select.xe: file format: xcore-xe

Loadable 1 for stdcore[0] (node "0", core 0):

Disassembly of section section .text (size: 922)

<_start>:
             0x00010000: 4b 68:       ldc (ru6)       r1, 0xb
             0x00010002: d1 fe ec 17: get (l2r)       r0, ps[r1]
             0x00010006: 04 f0 8b 68: ldc (lru6)      r2, 0x10b
             0x0001000a: c2 fe ec 1f: set (lr2r)      ps[r2], r0
             0x0001000e: 4a d0:       bl (u10)        0x4a <_SetupTraps>
             0x00010010: 0f d0:       bl (u10)        0xf <_GetRamEnd>
             0x00010012: f0 2f:       set (1r)        sp, r0
             0x00010014: 01 f0 80 77: extsp (lu6)     0x40
             0x00010018: 00 f0 0e da: ldap (lu10)     r11, 0x20e <.label0>
             0x0001001c: fb 37:       set (1r)        cp, r11
             0x0001001e: 00 f0 19 da: ldap (lu10)     r11, 0x219 <.label1>
             0x00010022: eb 37:       set (1r)        dp, r11
             0x00010024: c3 86:       getr (rus)      r0, 0x3

<_InitThreadLoop>:
             0x00010026: d4 06:       getst (2r)      r1, res[r0]
             0x00010028: b4 b0:       eq (2rus)       r11, r1, 0x0
             0x0001002a: cc 72:       bt (ru6)        r11, 0xc <_Join>
             0x0001002c: 1f d0:       bl (u10)        0x1f <_InitThread>
             0x0001002e: 05 77:       bu (u6)         -0x5 <_InitThreadLoop>

<_GetRamEnd>:
             0x00010030: cb 6a:       ldc (ru6)       r11, 0xb
             0x00010032: bb ff ec 17: get (l2r)       r10, ps[r11]
             0x00010036: 00 f0 fd d9: ldap (lu10)     r11, 0x1fd <.label2>
             0x0001003a: 3c 0a:       ldw (2rus)      r11, r11[0x0]
             0x0001003c: 0b 16:       add (3r)        r0, r10, r11
             0x0001003e: c0 77:       retsp (u6)      0x0

<_ExitWithError>:
             0x00010040: 04 f0 37 73: bu (lu6)        0x137 <_exit>

<_Join>:
             0x00010044: f0 1f:       msync (1r)      res[r0]
             0x00010046: f0 17:       mjoin (1r)      res[r0]
             0x00010048: e0 17:       freer (1r)      res[r0]
             0x0001004a: 1f d0:       bl (u10)        0x1f <_TouchRegisters>
             0x0001004c: 00 f0 a5 d1: bl (lu10)       0x1a5 <.label3>
             0x00010050: 00 f0 c6 6a: ldc (lru6)      r11, 0x6
             0x00010054: c8 ea:       setc (ru6)      res[r11], 0x8
             0x00010056: cf ea:       setc (ru6)      res[r11], 0xf
             0x00010058: 00 68:       ldc (ru6)       r0, 0x0
             0x0001005a: 00 f0 40 60: ldaw (lru6)     r1, dp[0x0]
             0x0001005e: 00 f0 55 d0: bl (lu10)       0x55 <main>
             0x00010062: 02 70:       bt (ru6)        r0, 0x2 <_NonZeroReturn>
             0x00010064: 04 f0 1a 73: bu (lu6)        0x11a <__libc_done>

<_NonZeroReturn>:
             0x00010068: 04 f0 29 73: bu (lu6)        0x129 <_exit_unlocked>

<_InitThread>:
             0x0001006c: 00 f0 e4 d9: ldap (lu10)     r11, 0x1e4 <.label0>
             0x00010070: 4d 1f:       init (2r)       t[r1]:cp, r11
             0x00010072: 00 f0 ef d9: ldap (lu10)     r11, 0x1ef <.label1>
             0x00010076: 4d 0f:       init (2r)       t[r1]:dp, r11
             0x00010078: 05 d8:       ldap (u10)      r11, 0x5 <_InitThreadRoutine>
             0x0001007a: 4d 07:       init (2r)       t[r1]:pc, r11
             0x0001007c: c0 77:       retsp (u6)      0x0
             0x0001007e: 00 90:       add (2rus)      r0, r0, 0x0

<_TrapHandler>:
             0x00010080: 04 f0 0a 73: bu (lu6)        0x10a <_DoException>

<_InitThreadRoutine>:
             0x00010084: 02 d0:       bl (u10)        0x2 <_TouchRegisters>
             0x00010086: 0e d0:       bl (u10)        0xe <_SetupTraps>
             0x00010088: ee 07:       ssync (0r)      

<_TouchRegisters>:
             0x0001008a: 00 68:       ldc (ru6)       r0, 0x0
             0x0001008c: 40 68:       ldc (ru6)       r1, 0x0
             0x0001008e: 80 68:       ldc (ru6)       r2, 0x0
             0x00010090: c0 68:       ldc (ru6)       r3, 0x0
             0x00010092: 00 69:       ldc (ru6)       r4, 0x0
             0x00010094: 40 69:       ldc (ru6)       r5, 0x0
             0x00010096: 80 69:       ldc (ru6)       r6, 0x0
             0x00010098: c0 69:       ldc (ru6)       r7, 0x0
             0x0001009a: 00 6a:       ldc (ru6)       r8, 0x0
             0x0001009c: 40 6a:       ldc (ru6)       r9, 0x0
             0x0001009e: 80 6a:       ldc (ru6)       r10, 0x0
             0x000100a0: c0 6a:       ldc (ru6)       r11, 0x0
             0x000100a2: c0 77:       retsp (u6)      0x0

<_SetupTraps>:
             0x000100a4: 13 dc:       ldap (u10)      r11, -0x13 <_TrapHandler>
             0x000100a6: ff 07:       set (0r)        kep, r11
             0x000100a8: c0 77:       retsp (u6)      0x0

<__register_frame_info_bases>:
<__free_libc_hwlock>:
.label26     0x000100aa: c0 77:       retsp (u6)      0x0

<__main_xm_0>:
             0x000100ac: 44 77:       entsp (u6)      0x4
             0x000100ae: 00 54:       stw (ru6)       r0, sp[0x0]
             0x000100b0: 00 68:       ldc (ru6)       r0, 0x0
             0x000100b2: 02 54:       stw (ru6)       r0, sp[0x2]

<starttrace0>:
             0x000100b4: 00 68:       ldc (ru6)       r0, 0x0
             0x000100b6: 03 54:       stw (ru6)       r0, sp[0x3]
.label7      0x000100b8: 43 5c:       ldw (ru6)       r1, sp[0x3]
             0x000100ba: 05 68:       ldc (ru6)       r0, 0x5
             0x000100bc: 04 c0:       lss (3r)        r0, r1, r0
             0x000100be: 01 70:       bt (ru6)        r0, 0x1 <.label4>
             0x000100c0: 1d 73:       bu (u6)         0x1d <endtrace0>
.label4      0x000100c2: ed 07:       clre (0r)       
             0x000100c4: 00 5c:       ldw (ru6)       r0, sp[0x0]
             0x000100c6: 04 d8:       ldap (u10)      r11, 0x4 <.label5>
             0x000100c8: f0 47:       setv (1r)       res[r0], r11
             0x000100ca: 00 5c:       ldw (ru6)       r0, sp[0x0]
             0x000100cc: f0 07:       eeu (1r)        res[r0]
             0x000100ce: ec 07:       waiteu (0r)     
.label5      0x000100d0: 00 5c:       ldw (ru6)       r0, sp[0x0]
             0x000100d2: d1 ce:       chkct (rus)     res[r0], 0x1
             0x000100d4: 00 5c:       ldw (ru6)       r0, sp[0x0]
             0x000100d6: d1 4e:       outct (rus)     res[r0], 0x1
             0x000100d8: 00 5c:       ldw (ru6)       r0, sp[0x0]
             0x000100da: c0 b6:       in (2r)         r0, res[r0]
             0x000100dc: 01 54:       stw (ru6)       r0, sp[0x1]
             0x000100de: 01 5c:       ldw (ru6)       r0, sp[0x1]
             0x000100e0: 01 54:       stw (ru6)       r0, sp[0x1]
             0x000100e2: 00 5c:       ldw (ru6)       r0, sp[0x0]
             0x000100e4: d1 ce:       chkct (rus)     res[r0], 0x1
             0x000100e6: 00 5c:       ldw (ru6)       r0, sp[0x0]
             0x000100e8: d1 4e:       outct (rus)     res[r0], 0x1
             0x000100ea: 42 5c:       ldw (ru6)       r1, sp[0x2]
             0x000100ec: 01 5c:       ldw (ru6)       r0, sp[0x1]
             0x000100ee: 04 10:       add (3r)        r0, r1, r0
             0x000100f0: 02 54:       stw (ru6)       r0, sp[0x2]
             0x000100f2: 00 73:       bu (u6)         0x0 <.label6>
.label6      0x000100f4: 03 5c:       ldw (ru6)       r0, sp[0x3]
             0x000100f6: 01 90:       add (2rus)      r0, r0, 0x1
             0x000100f8: 03 54:       stw (ru6)       r0, sp[0x3]
             0x000100fa: 22 77:       bu (u6)         -0x22 <.label7>

<endtrace0>:
             0x000100fc: c4 77:       retsp (u6)      0x4
             0x000100fe: 00 00:       stw (2rus)      r0, r0[0x0]

<__mcmain000000>:
             0x00010100: 42 77:       entsp (u6)      0x2
             0x00010102: 01 54:       stw (ru6)       r0, sp[0x1]
             0x00010104: 01 5c:       ldw (ru6)       r0, sp[0x1]
             0x00010106: 00 f0 2f d4: bl (lu10)       -0x2f <__main_xm_0>
             0x0001010a: c2 77:       retsp (u6)      0x2

<main>:
             0x0001010c: 42 77:       entsp (u6)      0x2

<getAllChannels>:
             0x0001010e: c2 86:       getr (rus)      r0, 0x2
             0x00010110: 02 74:       bt (ru6)        r0, -0x2 <getAllChannels>
             0x00010112: 9f 68:       ldc (ru6)       r2, 0x1f
             0x00010114: c1 68:       ldc (ru6)       r3, 0x1
             0x00010116: 04 f0 40 68: ldc (lru6)      r1, 0x100
             0x0001011a: 00 f0 00 6c: ldw (lru6)      r0, cp[0x0]
             0x0001011e: 01 10:       add (3r)        r0, r0, r1

<freeAllChannels>:
             0x00010120: e0 17:       freer (1r)      res[r0]

<skipFree>:
             0x00010122: 01 10:       add (3r)        r0, r0, r1
             0x00010124: 4e 30:       eq (3r)         r4, r3, r2
             0x00010126: 3d 90:       add (2rus)      r3, r3, 0x1
             0x00010128: 05 7d:       bf (ru6)        r4, -0x5 <freeAllChannels>

<programScratch>:
             0x0001012a: c6 86:       getr (rus)      r1, 0x2
             0x0001012c: 0c f3 8c 68: ldc (lru6)      r2, 0xc30c
             0x00010130: d9 16:       setd (r2r)      res[r1], r2
             0x00010132: 03 f0 c0 6a: ldc (lru6)      r11, 0xc0
             0x00010136: 27 4f:       outct (2r)      res[r1], r11
             0x00010138: 80 68:       ldc (ru6)       r2, 0x0
             0x0001013a: d9 0e:       outt (r2r)      res[r1], r2
             0x0001013c: d9 0e:       outt (r2r)      res[r1], r2
             0x0001013e: b4 ac:       shr (2rus)      r3, r1, 0x8
             0x00010140: dd 0e:       outt (r2r)      res[r1], r3
             0x00010142: d9 0e:       outt (r2r)      res[r1], r2
             0x00010144: 83 69:       ldc (ru6)       r6, 0x3
             0x00010146: 19 0f:       outt (r2r)      res[r1], r6
             0x00010148: c1 6a:       ldc (ru6)       r11, 0x1
             0x0001014a: 4d af:       out (r2r)       res[r1], r11
             0x0001014c: d5 4e:       outct (rus)     res[r1], 0x1
             0x0001014e: d7 ce:       chkct (rus)     res[r1], 0x3
             0x00010150: d5 ce:       chkct (rus)     res[r1], 0x1
             0x00010152: 03 f0 c1 6a: ldc (lru6)      r11, 0xc1

<waitForScratchTop>:
             0x00010156: 27 4f:       outct (2r)      res[r1], r11
             0x00010158: d9 0e:       outt (r2r)      res[r1], r2
             0x0001015a: d9 0e:       outt (r2r)      res[r1], r2
             0x0001015c: dd 0e:       outt (r2r)      res[r1], r3
             0x0001015e: d9 0e:       outt (r2r)      res[r1], r2
             0x00010160: 19 0f:       outt (r2r)      res[r1], r6
             0x00010162: d5 4e:       outct (rus)     res[r1], 0x1
             0x00010164: d7 ce:       chkct (rus)     res[r1], 0x3
             0x00010166: 45 b7:       in (2r)         r9, res[r1]
             0x00010168: d5 ce:       chkct (rus)     res[r1], 0x1
             0x0001016a: c4 69:       ldc (ru6)       r7, 0x4
             0x0001016c: 37 34:       eq (3r)         r7, r9, r7
             0x0001016e: cd 7d:       bf (ru6)        r7, -0xd <waitForScratchTop>
             0x00010170: e1 17:       freer (1r)      res[r1]
             0x00010172: 00 f0 81 6c: ldw (lru6)      r2, cp[0x1]
             0x00010176: 00 f0 d0 62: ldaw (lru6)     r11, dp[0x10]
             0x0001017a: 01 69:       ldc (ru6)       r4, 0x1
             0x0001017c: 72 d0:       bl (u10)        0x72 <wakeCore>
             0x0001017e: 00 f0 82 6c: ldw (lru6)      r2, cp[0x2]
             0x00010182: 00 f0 d1 62: ldaw (lru6)     r11, dp[0x11]
             0x00010186: 00 69:       ldc (ru6)       r4, 0x0
             0x00010188: 6c d0:       bl (u10)        0x6c <wakeCore>
             0x0001018a: 00 f0 83 6c: ldw (lru6)      r2, cp[0x3]
             0x0001018e: 00 f0 d1 62: ldaw (lru6)     r11, dp[0x11]
             0x00010192: 00 69:       ldc (ru6)       r4, 0x0
             0x00010194: 66 d0:       bl (u10)        0x66 <wakeCore>
             0x00010196: 00 f0 cf 62: ldaw (lru6)     r11, dp[0xf]
             0x0001019a: 01 69:       ldc (ru6)       r4, 0x1
             0x0001019c: fc f3 c0 69: ldc (lru6)      r7, 0xff00
             0x000101a0: 00 68:       ldc (ru6)       r0, 0x0

<allocLocalChanends>:
             0x000101a2: 90 32:       eq (3r)         r5, r0, r4
             0x000101a4: 47 71:       bt (ru6)        r5, 0x7 <doneLocalChanendsAlloc>
             0x000101a6: c6 86:       getr (rus)      r1, 0x2
             0x000101a8: 9c f9 ec 07: stw (l3r)       r1, r11[r0]
             0x000101ac: 67 42:       or (3r)         r2, r1, r7
             0x000101ae: d9 16:       setd (r2r)      res[r1], r2

<dontAllocOne>:
             0x000101b0: 01 90:       add (2rus)      r0, r0, 0x1
             0x000101b2: 09 77:       bu (u6)         -0x9 <allocLocalChanends>

<doneLocalChanendsAlloc>:
             0x000101b4: 00 f0 40 6c: ldw (lru6)      r1, cp[0x0]
             0x000101b8: 00 f0 c3 62: ldaw (lru6)     r11, dp[0x3]

<spreadToOneCore>:
             0x000101bc: 8c 09:       ldw (2rus)      r0, r11[0x0]
             0x000101be: 3d fa ec 9f: ldaw (l2rus)    r11, r11[0x1]
             0x000101c2: 3a 78:       bf (ru6)        r0, 0x3a <doneSpreading>
             0x000101c4: 40 6a:       ldc (ru6)       r9, 0x0
             0x000101c6: 81 b0:       eq (2rus)       r8, r0, 0x1
             0x000101c8: 02 72:       bt (ru6)        r8, 0x2 <localSpreadPrologue>

<remoteSpreadPrologue>:
             0x000101ca: d1 16:       setd (r2r)      res[r1], r0
             0x000101cc: 05 73:       bu (u6)         0x5 <doNextStore>

<localSpreadPrologue>:
             0x000101ce: ac 91:       add (2rus)      r2, r11, 0x0
             0x000101d0: 00 f0 cf 62: ldaw (lru6)     r11, dp[0xf]
             0x000101d4: 2c 92:       add (2rus)      r10, r11, 0x0
             0x000101d6: b8 90:       add (2rus)      r11, r2, 0x0

<doNextStore>:
             0x000101d8: 2b d0:       bl (u10)        0x2b <alignR11>
             0x000101da: ac 09:       ldw (2rus)      r2, r11[0x0]
             0x000101dc: 3d fa ec 9f: ldaw (l2rus)    r11, r11[0x1]
             0x000101e0: 93 7c:       bf (ru6)        r2, -0x13 <spreadToOneCore>
             0x000101e2: 3d 86:       ld16s (3r)      r3, r11[r9]
             0x000101e4: 3e 92:       add (2rus)      r11, r11, 0x2

<doStoreEntry>:
             0x000101e6: c8 7c:       bf (ru6)        r3, -0x8 <doNextStore>
             0x000101e8: 01 72:       bt (ru6)        r8, 0x1 <doStoreEntryNoIdSend>
             0x000101ea: c5 ae:       out (r2r)       res[r1], r1

<doStoreEntryNoIdSend>:
             0x000101ec: 4d 86:       ld16s (3r)      r4, r11[r9]
             0x000101ee: 74 a7:       mkmsk (rus)     r5, 0x8
             0x000101f0: a0 ad:       shr (2rus)      r6, r4, 0x8
             0x000101f2: 66 3b:       and (3r)        r6, r5, r6
             0x000101f4: 76 33:       eq (3r)         r7, r5, r6
             0x000101f6: c7 79:       bf (ru6)        r7, 0x7 <entryIsNotFixed>
             0x000101f8: 41 3b:       and (3r)        r4, r4, r5
             0x000101fa: 1a d0:       bl (u10)        0x1a <alignR11>
             0x000101fc: ec 09:       ldw (2rus)      r6, r11[0x0]
             0x000101fe: 3e 92:       add (2rus)      r11, r11, 0x2
             0x00010200: 12 72:       bt (ru6)        r8, 0x12 <setLocalEntryValue>
             0x00010202: 09 af:       out (r2r)       res[r1], r6
             0x00010204: 0b 73:       bu (u6)         0xb <sendRemoteEntryValue>

<entryIsNotFixed>:
             0x00010206: 01 72:       bt (ru6)        r8, 0x1 <skipRemoteSend>
             0x00010208: 09 af:       out (r2r)       res[r1], r6

<skipRemoteSend>:
             0x0001020a: 61 3b:       and (3r)        r6, r4, r5
             0x0001020c: 79 33:       eq (3r)         r7, r6, r5
             0x0001020e: 80 ad:       shr (2rus)      r4, r4, 0x8
             0x00010210: c3 79:       bf (ru6)        r7, 0x3 <isRealEnd>
             0x00010212: 0b 72:       bt (ru6)        r8, 0xb <sendLoopBottom>
             0x00010214: 80 69:       ldc (ru6)       r6, 0x0
             0x00010216: 02 73:       bu (u6)         0x2 <sendRemoteEntryValue>

<isRealEnd>:
             0x00010218: aa 4a:       ldw (3r)        r6, r2[r6]

<sendEndValue>:
             0x0001021a: 05 72:       bt (ru6)        r8, 0x5 <setLocalEntryValue>

<sendRemoteEntryValue>:
             0x0001021c: 09 af:       out (r2r)       res[r1], r6
             0x0001021e: d5 4e:       outct (rus)     res[r1], 0x1
             0x00010220: d7 ce:       chkct (rus)     res[r1], 0x3
             0x00010222: d5 ce:       chkct (rus)     res[r1], 0x1
             0x00010224: 02 73:       bu (u6)         0x2 <sendLoopBottom>

<setLocalEntryValue>:
             0x00010226: c8 4b:       ldw (3r)        r0, r10[r4]
             0x00010228: 18 17:       setd (r2r)      res[r0], r6

<sendLoopBottom>:
             0x0001022a: 3e 92:       add (2rus)      r11, r11, 0x2
             0x0001022c: 3d 98:       sub (2rus)      r3, r3, 0x1
             0x0001022e: 25 77:       bu (u6)         -0x25 <doStoreEntry>

<alignR11>:
             0x00010230: 83 68:       ldc (ru6)       r2, 0x3
             0x00010232: 3f 92:       add (2rus)      r11, r11, 0x3
             0x00010234: 4e 2f:       andnot (2r)     r11, r2
             0x00010236: c0 77:       retsp (u6)      0x0

<doneSpreading>:
             0x00010238: e1 17:       freer (1r)      res[r1]
             0x0001023a: 00 f0 cf 62: ldaw (lru6)     r11, dp[0xf]
             0x0001023e: c1 69:       ldc (ru6)       r7, 0x1
             0x00010240: fc f3 00 6a: ldc (lru6)      r8, 0xff00
             0x00010244: 05 d0:       bl (u10)        0x5 <buildRegArg>
             0x00010246: 0c 90:       add (2rus)      r0, r3, 0x0
             0x00010248: 00 f0 a6 d4: bl (lu10)       -0xa6 <__mcmain000000>
             0x0001024c: 00 68:       ldc (ru6)       r0, 0x0
             0x0001024e: c2 77:       retsp (u6)      0x2

<buildRegArg>:
             0x00010250: bc 09:       ldw (2rus)      r3, r11[0x0]
             0x00010252: 3d fa ec 9f: ldaw (l2rus)    r11, r11[0x1]
             0x00010256: df 3a:       and (3r)        r9, r3, r7
             0x00010258: 43 7a:       bf (ru6)        r9, 0x3 <hasEndReg>
             0x0001025a: 8f 2f:       andnot (2r)     r3, r7
             0x0001025c: 2c 45:       or (3r)         r10, r3, r8
             0x0001025e: 5b 17:       setd (r2r)      res[r3], r10

<hasEndReg>:
             0x00010260: c0 77:       retsp (u6)      0x0

<wakeCore>:
             0x00010262: 00 f0 40 6c: ldw (lru6)      r1, cp[0x0]
             0x00010266: bc 91:       add (2rus)      r3, r11, 0x0
             0x00010268: d9 16:       setd (r2r)      res[r1], r2
             0x0001026a: c5 ae:       out (r2r)       res[r1], r1
             0x0001026c: d5 4e:       outct (rus)     res[r1], 0x1
             0x0001026e: c1 b6:       in (2r)         r0, res[r1]
             0x00010270: d5 ce:       chkct (rus)     res[r1], 0x1
             0x00010272: 40 69:       ldc (ru6)       r5, 0x0
             0x00010274: 05 af:       out (r2r)       res[r1], r5
             0x00010276: d5 4e:       outct (rus)     res[r1], 0x1
             0x00010278: 00 f0 cf 62: ldaw (lru6)     r11, dp[0xf]

<readRemoteChanend>:
             0x0001027c: 01 33:       eq (3r)         r0, r4, r5
             0x0001027e: 05 70:       bt (ru6)        r0, 0x5 <doneRemoteChans>
             0x00010280: c1 b6:       in (2r)         r0, res[r1]
             0x00010282: 4d fa ec 07: stw (l3r)       r0, r3[r5]
             0x00010286: 15 91:       add (2rus)      r5, r5, 0x1
             0x00010288: 07 77:       bu (u6)         -0x7 <readRemoteChanend>

<doneRemoteChans>:
             0x0001028a: 01 71:       bt (ru6)        r4, 0x1 <doneRemoteChans_2>
             0x0001028c: c1 b6:       in (2r)         r0, res[r1]

<doneRemoteChans_2>:
             0x0001028e: d5 ce:       chkct (rus)     res[r1], 0x1
             0x00010290: c0 77:       retsp (u6)      0x0

<endOfStartup>:
             0x00010292: 00 f0 40 6c: ldw (lru6)      r1, cp[0x0]
             0x00010296: e1 17:       freer (1r)      res[r1]

<_DoException>:
             0x00010298: ed 07:       clre (0r)       
             0x0001029a: ec 07:       waiteu (0r)     

<__libc_done>:
             0x0001029c: 41 77:       entsp (u6)      0x1
             0x0001029e: 00 68:       ldc (ru6)       r0, 0x0
             0x000102a0: 10 90:       add (2rus)      r1, r0, 0x0
             0x000102a2: 00 f0 69 d0: bl (lu10)       0x69 <__call_exitprocs>
             0x000102a6: 00 f0 6f d0: bl (lu10)       0x6f <_cleanup>
             0x000102aa: 00 f0 a4 d0: bl (lu10)       0xa4 <.label8>
             0x000102ae: 00 f0 6f d0: bl (lu10)       0x6f <_done>

<_exit>:
             0x000102b2: 10 90:       add (2rus)      r1, r0, 0x0
             0x000102b4: 00 68:       ldc (ru6)       r0, 0x0
             0x000102b6: 00 f0 5d d0: bl (lu10)       0x5d <_DoSyscall>
             0x000102ba: ed 07:       clre (0r)       
             0x000102bc: ec 07:       waiteu (0r)     

<_exit_unlocked>:
             0x000102be: 42 77:       entsp (u6)      0x2
             0x000102c0: 01 55:       stw (ru6)       r4, sp[0x1]
             0x000102c2: 40 90:       add (2rus)      r4, r0, 0x0
             0x000102c4: 40 68:       ldc (ru6)       r1, 0x0
             0x000102c6: 00 f0 57 d0: bl (lu10)       0x57 <__call_exitprocs>
             0x000102ca: 00 f0 5d d0: bl (lu10)       0x5d <_cleanup>
             0x000102ce: 00 f0 92 d0: bl (lu10)       0x92 <.label8>
             0x000102d2: c0 90:       add (2rus)      r0, r4, 0x0
             0x000102d4: 00 f0 13 d4: bl (lu10)       -0x13 <_exit>

<memset>:
.label21     0x000102d8: 45 77:       entsp (u6)      0x5
             0x000102da: 04 55:       stw (ru6)       r4, sp[0x4]
             0x000102dc: 43 55:       stw (ru6)       r5, sp[0x3]
             0x000102de: 82 55:       stw (ru6)       r6, sp[0x2]
             0x000102e0: c1 55:       stw (ru6)       r7, sp[0x1]
             0x000102e2: 00 56:       stw (ru6)       r8, sp[0x0]
             0x000102e4: 34 90:       add (2rus)      r3, r1, 0x0
             0x000102e6: 3c 47:       zext (rus)      r3, 0x8
             0x000102e8: c0 6a:       ldc (ru6)       r11, 0x0
             0x000102ea: 00 69:       ldc (ru6)       r4, 0x0
             0x000102ec: dc 91:       add (2rus)      r5, r11, 0x0
             0x000102ee: 06 73:       bu (u6)         0x6 <.label9>
.label11     0x000102f0: 36 31:       eq (3r)         r7, r5, r2
             0x000102f2: fa 71:       bt (ru6)        r7, 0x3a <.label10>
             0x000102f4: 18 fb ec 8f: st8 (l3r)       r1, r6[r4]
             0x000102f8: 3d 9a:       sub (2rus)      r11, r11, 0x1
             0x000102fa: 15 91:       add (2rus)      r5, r5, 0x1
.label9      0x000102fc: a1 12:       add (3r)        r6, r0, r5
             0x000102fe: 38 91:       add (2rus)      r7, r6, 0x0
             0x00010300: 1e 47:       zext (rus)      r7, 0x2
             0x00010302: ca 75:       bt (ru6)        r7, -0xa <.label11>
             0x00010304: cb 14:       add (3r)        r4, r2, r11
             0x00010306: 1a a7:       mkmsk (rus)     r6, 0x2
             0x00010308: 48 cb:       lsu (3r)        r4, r6, r4
             0x0001030a: 25 79:       bf (ru6)        r4, 0x25 <.label12>
             0x0001030c: cc a4:       shl (2rus)      r4, r3, 0x8
             0x0001030e: f3 40:       or (3r)         r3, r4, r3
             0x00010310: cd a4:       shl (2rus)      r4, r3, 0x10
             0x00010312: 03 41:       or (3r)         r4, r4, r3
             0x00010314: bb 14:       add (3r)        r3, r2, r11
             0x00010316: 90 69:       ldc (ru6)       r6, 0x10
             0x00010318: 7e ca:       lsu (3r)        r3, r3, r6
             0x0001031a: 91 12:       add (3r)        r5, r0, r5
             0x0001031c: d1 70:       bt (ru6)        r3, 0x11 <.label13>
             0x0001031e: 80 69:       ldc (ru6)       r6, 0x0
             0x00010320: dc a7:       mkmsk (rus)     r7, 0x4
.label14     0x00010322: 04 01:       stw (2rus)      r4, r5[0x0]
             0x00010324: 05 01:       stw (2rus)      r4, r5[0x1]
             0x00010326: 06 01:       stw (2rus)      r4, r5[0x2]
             0x00010328: 07 01:       stw (2rus)      r4, r5[0x3]
             0x0001032a: bb 14:       add (3r)        r3, r2, r11
             0x0001032c: fb 10:       add (3r)        r3, r6, r3
             0x0001032e: 7c fa ec a7: ldaw (l2rus)    r3, r3[-0x4]
             0x00010332: 4f c9:       lsu (3r)        r8, r7, r3
             0x00010334: 68 fb ec a7: ldaw (l2rus)    r6, r6[-0x4]
             0x00010338: 54 fb ec 9f: ldaw (l2rus)    r5, r5[0x4]
             0x0001033c: 0e 76:       bt (ru6)        r8, -0xe <.label14>
             0x0001033e: 01 73:       bu (u6)         0x1 <.label15>
.label13     0x00010340: bb 14:       add (3r)        r3, r2, r11
.label15     0x00010342: da a6:       mkmsk (rus)     r2, 0x2
             0x00010344: 2b c8:       lsu (3r)        r2, r2, r3
             0x00010346: 89 78:       bf (ru6)        r2, 0x9 <.label16>
             0x00010348: da a6:       mkmsk (rus)     r2, 0x2
.label17     0x0001034a: 04 01:       stw (2rus)      r4, r5[0x0]
             0x0001034c: 7c 9a:       sub (2rus)      r3, r3, 0x4
             0x0001034e: bb c8:       lsu (3r)        r11, r2, r3
             0x00010350: 54 93:       add (2rus)      r5, r5, 0x4
             0x00010352: c5 76:       bt (ru6)        r11, -0x5 <.label17>
             0x00010354: 02 73:       bu (u6)         0x2 <.label16>
.label12     0x00010356: bb 14:       add (3r)        r3, r2, r11
             0x00010358: 91 12:       add (3r)        r5, r0, r5
.label16     0x0001035a: c6 78:       bf (ru6)        r3, 0x6 <.label10>
             0x0001035c: 80 68:       ldc (ru6)       r2, 0x0
.label18     0x0001035e: d6 f8 ec 8f: st8 (l3r)       r1, r5[r2]
             0x00010362: 29 90:       add (2rus)      r2, r2, 0x1
             0x00010364: bb 30:       eq (3r)         r11, r2, r3
             0x00010366: c5 7e:       bf (ru6)        r11, -0x5 <.label18>
.label10     0x00010368: 00 5e:       ldw (ru6)       r8, sp[0x0]
             0x0001036a: c1 5d:       ldw (ru6)       r7, sp[0x1]
             0x0001036c: 82 5d:       ldw (ru6)       r6, sp[0x2]
             0x0001036e: 43 5d:       ldw (ru6)       r5, sp[0x3]
             0x00010370: 04 5d:       ldw (ru6)       r4, sp[0x4]
             0x00010372: c5 77:       retsp (u6)      0x5

<_DoSyscall>:
             0x00010374: d0 a6:       mkmsk (rus)     r0, 0x20
             0x00010376: c0 77:       retsp (u6)      0x0

<__call_exitprocs>:
             0x00010378: 41 77:       entsp (u6)      0x1
             0x0001037a: 00 f0 59 d0: bl (lu10)       0x59 <.label19>
             0x0001037e: c1 77:       retsp (u6)      0x1

<__alloc_libc_hwlock>:
.label24     0x00010380: 81 87:       getr (rus)      r0, 0x5
             0x00010382: 00 f0 11 50: stw (lru6)      r0, dp[0x11]
             0x00010386: c0 77:       retsp (u6)      0x0

<_cleanup>:
             0x00010388: 41 77:       entsp (u6)      0x1
             0x0001038a: 00 f0 52 d0: bl (lu10)       0x52 <.label20>
             0x0001038e: c1 77:       retsp (u6)      0x1

<_done>:
             0x00010390: 07 68:       ldc (ru6)       r0, 0x7
             0x00010392: 00 f0 11 d4: bl (lu10)       -0x11 <_DoSyscall>
             0x00010396: ed 07:       clre (0r)       
             0x00010398: ec 07:       waiteu (0r)     

Disassembly of section section .init (size: 92)

<_init>:
.label3      0x0001039a: 41 77:       entsp (u6)      0x1
             0x0001039c: 00 f0 5a d8: ldap (lu10)     r11, 0x5a <.label1>
             0x000103a0: 8c 91:       add (2rus)      r0, r11, 0x0
             0x000103a2: 40 68:       ldc (ru6)       r1, 0x0
             0x000103a4: 00 f0 56 d8: ldap (lu10)     r11, 0x56 <.label1>
             0x000103a8: ac 19:       sub (3r)        r2, r11, r0
             0x000103aa: 00 f0 6b d4: bl (lu10)       -0x6b <.label21>
             0x000103ae: 00 f0 6f d8: ldap (lu10)     r11, 0x6f <.label22>
             0x000103b2: 8c 91:       add (2rus)      r0, r11, 0x0
             0x000103b4: 40 68:       ldc (ru6)       r1, 0x0
             0x000103b6: 00 f0 7f d8: ldap (lu10)     r11, 0x7f <.label23>
             0x000103ba: ac 19:       sub (3r)        r2, r11, r0
             0x000103bc: 00 f0 74 d4: bl (lu10)       -0x74 <.label21>
             0x000103c0: 00 f0 22 d4: bl (lu10)       -0x22 <.label24>
             0x000103c4: 00 f0 62 d8: ldap (lu10)     r11, 0x62 <.label25>
             0x000103c8: 8c 91:       add (2rus)      r0, r11, 0x0
             0x000103ca: 00 f0 52 60: ldaw (lru6)     r1, dp[0x12]
             0x000103ce: 80 68:       ldc (ru6)       r2, 0x0
             0x000103d0: c0 68:       ldc (ru6)       r3, 0x0
             0x000103d2: 00 f0 96 d5: bl (lu10)       -0x196 <.label26>
             0x000103d6: 00 f0 0d 59: ldw (lru6)      r4, dp[0xd]
             0x000103da: 02 a9:       shr (2rus)      r4, r4, 0x2
             0x000103dc: 0b 79:       bf (ru6)        r4, 0xb <do_ctors_end>
             0x000103de: 00 f0 39 d8: ldap (lu10)     r11, 0x39 <.label1>
             0x000103e2: dc 91:       add (2rus)      r5, r11, 0x0
             0x000103e4: 00 f0 8c 59: ldw (lru6)      r6, dp[0xc]
             0x000103e8: 66 1b:       sub (3r)        r6, r5, r6

<do_ctors_loop>:
             0x000103ea: 01 99:       sub (2rus)      r4, r4, 0x1
             0x000103ec: 04 4b:       ldw (3r)        r0, r5[r4]
             0x000103ee: 42 12:       add (3r)        r0, r0, r6
             0x000103f0: e0 27:       bla (1r)        r0
             0x000103f2: 05 75:       bt (ru6)        r4, -0x5 <do_ctors_loop>

<do_ctors_end>:
             0x000103f4: c1 77:       retsp (u6)      0x1

Disassembly of section section .fini (size: 58)

<_fini>:
.label8      0x000103f6: 41 77:       entsp (u6)      0x1
             0x000103f8: 85 77:       extsp (u6)      0x5
             0x000103fa: 01 55:       stw (ru6)       r4, sp[0x1]
             0x000103fc: 42 55:       stw (ru6)       r5, sp[0x2]
             0x000103fe: 83 55:       stw (ru6)       r6, sp[0x3]
             0x00010400: c4 55:       stw (ru6)       r7, sp[0x4]
             0x00010402: 00 f0 c2 59: ldw (lru6)      r7, dp[0x2]
             0x00010406: 3e a9:       shr (2rus)      r7, r7, 0x2
             0x00010408: cd 79:       bf (ru6)        r7, 0xd <do_dtors_end>
             0x0001040a: 00 69:       ldc (ru6)       r4, 0x0
             0x0001040c: 00 f0 22 d8: ldap (lu10)     r11, 0x22 <.label1>
             0x00010410: dc 91:       add (2rus)      r5, r11, 0x0
             0x00010412: 00 f0 81 59: ldw (lru6)      r6, dp[0x1]
             0x00010416: 66 1b:       sub (3r)        r6, r5, r6

<do_dtors_loop>:
             0x00010418: 04 4b:       ldw (3r)        r0, r5[r4]
             0x0001041a: 42 12:       add (3r)        r0, r0, r6
             0x0001041c: e0 27:       bla (1r)        r0
             0x0001041e: 01 91:       add (2rus)      r4, r4, 0x1
             0x00010420: b3 cb:       lsu (3r)        r11, r4, r7
             0x00010422: c6 76:       bt (ru6)        r11, -0x6 <do_dtors_loop>

<do_dtors_end>:
             0x00010424: 01 5d:       ldw (ru6)       r4, sp[0x1]
             0x00010426: 42 5d:       ldw (ru6)       r5, sp[0x2]
             0x00010428: 83 5d:       ldw (ru6)       r6, sp[0x3]
             0x0001042a: c4 5d:       ldw (ru6)       r7, sp[0x4]
             0x0001042c: 85 67:       ldaw (ru6)      sp, sp[0x5]
             0x0001042e: c1 77:       retsp (u6)      0x1

Disassembly of section section .gnu.linkonce.t.__call_exitprocs_impl (size: 2)

<__call_exitprocs_impl>:
.label19     0x00010430: c0 77:       retsp (u6)      0x0

Disassembly of section section .gnu.linkonce.t._cleanup_impl (size: 2)

<_cleanup_impl>:
.label20     0x00010432: c0 77:       retsp (u6)      0x0

Disassembly of section section .rodata (size: 4)

<_RamSize>:
.label2      0x00010434: 00 00 01 00: 

Disassembly of section section .cp.const4 (size: 28)

<thisChanendZero>:
<destChanendZero0000>:
<.CPM0>:
.label0      0x00010438: 02 00 00 00: 

<destChanendZero0001>:
<.CPM1>:
             0x0001043c: 02 00 01 00: 

<destChanendZero0002>:
<.CPM2>:
             0x00010440: 02 00 02 00: 

<destChanendZero0003>:
<.CPM3>:
             0x00010444: 02 00 03 00: 

<.CPM4>:
             0x00010448: 2d 7f 95 4c: 

<.CPM5>:
             0x0001044c: 2d f4 51 58: 

<.CPM6>:
             0x00010450: ff ff ff 7f: 

Disassembly of section section .dp.data (size: 56)

<_dp>:
<_NullPtr>:
.label1      0x00010454: 00 00 00 00: 

<dtor_list_ptr>:
             0x00010458: 54 04 01 00: 

<dtors_size>:
             0x0001045c: 00 00 00 00: 

<spreadRemoteEndsData>:
             0x00010460: 01 00 00 00: 
             0x00010464: 94 04 01 00: 
             0x00010468: 01 00 00 00: 
             0x0001046c: 00 00 00 00: 
             0x00010470: 02 00 01 00: 
             0x00010474: 90 04 01 00: 
             0x00010478: 01 00 00 00: 
             0x0001047c: 00 00 00 00: 
             0x00010480: 00 00 00 00: 

<ctor_list_ptr>:
             0x00010484: 54 04 01 00: 

<ctors_size>:
             0x00010488: 00 00 00 00: 

Disassembly of section section .eh_frame (size: 4)

<__EH_FRAME_BEGIN__>:
<__EH_FRAME_END__>:
.label25     0x0001048c: 00 00 00 00: 

Disassembly of section section .netinfo (size: 56)

             0x00000000: 5c a1 ab 1e: 
<main.parinfo.debugstring0>:
             0x00000004: 23 20 32 38: 
             0x00000008: 20 22 73 65: 
             0x0000000c: 6c 65 63 74: 
             0x00000010: 2e 78 63 22: 
             0x00000014: 00 23 20 32: 
             0x00000018: 36 20 22 73: 
             0x0000001c: 65 6c 65 63: 
             0x00000020: 74 2e 78 63: 
             0x00000024: 22 00 00 00: 
             0x00000028: 00 00 00 00: 
             0x0000002c: 00 00 00 00: 
             0x00000030: 00 00 00 00: 
             0x00000034: 00 00 00 00: 

Disassembly of section section .xtabranch (size: 8)

             0x00000000: ce 00 01 00: 
             0x00000004: d0 00 01 00: 

Disassembly of section section .xtaendpointtable (size: 78)

             0x00000000: 4e 00 00 00: 
             0x00000004: 00 00 00 00: 
             0x00000008: 2f 55 73 65: 
             0x0000000c: 72 73 2f 76: 
             0x00000010: 6c 69 6f 6e: 
             0x00000014: 2f 44 6f 63: 
             0x00000018: 75 6d 65 6e: 
             0x0000001c: 74 73 2f 6d: 
             0x00000020: 61 73 74 65: 
             0x00000024: 72 73 2f 70: 
             0x00000028: 72 6f 67 72: 
             0x0000002c: 61 6d 73 5f: 
             0x00000030: 6f 66 5f 69: 
             0x00000034: 6e 74 65 72: 
             0x00000038: 65 73 74 00: 
             0x0000003c: 73 65 6c 65: 
             0x00000040: 63 74 2e 78: 
             0x00000044: 63 00 28 00: 
             0x00000048: 00 00 da 00: 
             0x0000004c: 01 00 00 00: 

Disassembly of section section .xtalabeltable (size: 296)

             0x00000000: c0 00 00 00: 
             0x00000004: 00 00 00 00: 
             0x00000008: 2f 55 73 65: 
             0x0000000c: 72 73 2f 76: 
             0x00000010: 6c 69 6f 6e: 
             0x00000014: 2f 44 6f 63: 
             0x00000018: 75 6d 65 6e: 
             0x0000001c: 74 73 2f 6d: 
             0x00000020: 61 73 74 65: 
             0x00000024: 72 73 2f 70: 
             0x00000028: 72 6f 67 72: 
             0x0000002c: 61 6d 73 5f: 
             0x00000030: 6f 66 5f 69: 
             0x00000034: 6e 74 65 72: 
             0x00000038: 65 73 74 00: 
             0x0000003c: 73 65 6c 65: 
             0x00000040: 63 74 2e 78: 
             0x00000044: 63 00 54 00: 
             0x00000048: 00 00 54 00: 
             0x0000004c: 00 00 fc 00: 
             0x00000050: 01 00 73 65: 
             0x00000054: 6c 65 63 74: 
             0x00000058: 2e 78 63 00: 
             0x0000005c: 23 00 00 00: 
             0x00000060: 23 00 00 00: 
             0x00000064: f4 00 01 00: 
             0x00000068: 73 65 6c 65: 
             0x0000006c: 63 74 2e 78: 
             0x00000070: 63 00 2a 00: 
             0x00000074: 00 00 2a 00: 
             0x00000078: 00 00 ea 00: 
             0x0000007c: 01 00 73 65: 
             0x00000080: 6c 65 63 74: 
             0x00000084: 2e 78 63 00: 
             0x00000088: 23 00 00 00: 
             0x0000008c: 23 00 00 00: 
             0x00000090: b8 00 01 00: 
             0x00000094: 73 65 6c 65: 
             0x00000098: 63 74 2e 78: 
             0x0000009c: 63 00 23 00: 
             0x000000a0: 00 00 23 00: 
             0x000000a4: 00 00 b4 00: 
             0x000000a8: 01 00 73 65: 
             0x000000ac: 6c 65 63 74: 
             0x000000b0: 2e 78 63 00: 
             0x000000b4: 21 00 00 00: 
             0x000000b8: 21 00 00 00: 
             0x000000bc: b0 00 01 00: 
             0x000000c0: 68 00 00 00: 
             0x000000c4: 00 00 00 00: 
             0x000000c8: 2f 55 73 65: 
             0x000000cc: 72 73 2f 76: 
             0x000000d0: 6c 69 6f 6e: 
             0x000000d4: 2f 44 6f 63: 
             0x000000d8: 75 6d 65 6e: 
             0x000000dc: 74 73 2f 6d: 
             0x000000e0: 61 73 74 65: 
             0x000000e4: 72 73 2f 70: 
             0x000000e8: 72 6f 67 72: 
             0x000000ec: 61 6d 73 5f: 
             0x000000f0: 6f 66 5f 69: 
             0x000000f4: 6e 74 65 72: 
             0x000000f8: 65 73 74 00: 
             0x000000fc: 73 65 6c 65: 
             0x00000100: 63 74 2e 78: 
             0x00000104: 63 00 1d 00: 
             0x00000108: 00 00 1d 00: 
             0x0000010c: 00 00 0a 01: 
             0x00000110: 01 00 73 65: 
             0x00000114: 6c 65 63 74: 
             0x00000118: 2e 78 63 00: 
             0x0000011c: 1c 00 00 00: 
             0x00000120: 1c 00 00 00: 
             0x00000124: 04 01 01 00: 

Disassembly of section section .xtasystem (size: 46)

             0x00000000: 2e 00 00 00: 
             0x00000004: 00 00 00 00: 
             0x00000008: 64 69 72 00: 
             0x0000000c: 66 63 6c 6f: 
             0x00000010: 73 65 00 63: 
             0x00000014: 72 74 31 2e: 
             0x00000018: 73 00 00 00: 
             0x0000001c: 00 00 65 78: 
             0x00000020: 69 74 00 63: 
             0x00000024: 72 74 31 2e: 
             0x00000028: 73 00 00 00: 
             0x0000002c: 00 00 00 00: 

Disassembly of section section .xtathreadstart (size: 8)

             0x00000000: 00 00 01 00: 
             0x00000004: 84 00 01 00: 

Disassembly of section section .xtathreadstop (size: 16)

             0x00000000: 88 00 01 00: 
             0x00000004: 9a 02 01 00: 
             0x00000008: bc 02 01 00: 
             0x0000000c: 98 03 01 00: 

Disassembly of section section .xmosnote (size: 20)

             0x00000000: 04 00 00 00: 
             0x00000004: 03 00 00 00: 
             0x00000008: 02 00 00 00: 
             0x0000000c: 58 4d 4f 53: 
             0x00000010: 58 53 31 00: 

Disassembly of section section .xmosnote (size: 20)

             0x00000000: 04 00 00 00: 
             0x00000004: 04 00 00 00: 
             0x00000008: 03 00 00 00: 
             0x0000000c: 58 4d 4f 53: 
             0x00000010: 52 45 56 42: 

Disassembly of section section .xmosnote (size: 36)

             0x00000000: 04 00 00 00: 
             0x00000004: 14 00 00 00: 
             0x00000008: 01 00 00 00: 
             0x0000000c: 58 4d 4f 53: 
             0x00000010: 31 31 2e 32: 
             0x00000014: 2e 32 20 28: 
             0x00000018: 62 75 69 6c: 
             0x0000001c: 64 20 31 39: 
             0x00000020: 38 31 29 00: 

Disassembly of section section .expr (size: 3500)

             0x00000000: 41 00 00 00: 
             0x00000004: 0c 00 00 00: 
             0x00000008: 11 00 00 00: 
             0x0000000c: 00 00 00 00: 
             0x00000010: 00 00 00 00: 
             0x00000014: 01 07 00 00: 
             0x00000018: 0e 00 00 00: 
             0x0000001c: 0d 00 00 00: 
             0x00000020: 00 00 00 00: 
             0x00000024: 00 00 00 00: 
             0x00000028: 01 03 00 00: 
             0x0000002c: 0f 00 00 00: 
             0x00000030: 12 00 00 00: 
             0x00000034: 00 00 00 00: 
             0x00000038: 00 00 00 00: 
             0x0000003c: 01 03 00 00: 
             0x00000040: 0f 00 00 00: 
             0x00000044: 13 00 00 00: 
             0x00000048: 00 00 00 00: 
             0x0000004c: 00 00 00 00: 
             0x00000050: 01 03 00 00: 
             0x00000054: 0f 00 00 00: 
             0x00000058: 14 00 00 00: 
             0x0000005c: 00 00 00 00: 
             0x00000060: 00 00 00 00: 
             0x00000064: 01 03 00 00: 
             0x00000068: 0f 00 00 00: 
             0x0000006c: 15 00 00 00: 
             0x00000070: 00 00 00 00: 
             0x00000074: 00 00 00 00: 
             0x00000078: 01 03 00 00: 
             0x0000007c: 0f 00 00 00: 
             0x00000080: 16 00 00 00: 
             0x00000084: 00 00 00 00: 
             0x00000088: 00 00 00 00: 
             0x0000008c: 01 03 00 00: 
             0x00000090: 0f 00 00 00: 
             0x00000094: 17 00 00 00: 
             0x00000098: 00 00 00 00: 
             0x0000009c: 00 00 00 00: 
             0x000000a0: 01 03 00 00: 
             0x000000a4: 0f 00 00 00: 
             0x000000a8: 18 00 00 00: 
             0x000000ac: 00 00 00 00: 
             0x000000b0: 00 00 00 00: 
             0x000000b4: 01 03 00 00: 
             0x000000b8: 0f 00 00 00: 
             0x000000bc: 19 00 00 00: 
             0x000000c0: 00 00 00 00: 
             0x000000c4: 00 00 00 00: 
             0x000000c8: 41 04 00 00: 
             0x000000cc: 0f 00 00 00: 
             0x000000d0: 1a 00 00 00: 
             0x000000d4: 00 00 00 00: 
             0x000000d8: 00 00 00 00: 
             0x000000dc: c1 04 00 00: 
             0x000000e0: 0f 00 00 00: 
             0x000000e4: 1b 00 00 00: 
             0x000000e8: 00 00 00 00: 
             0x000000ec: 00 00 00 00: 
             0x000000f0: 01 05 00 00: 
             0x000000f4: 0f 00 00 00: 
             0x000000f8: 1c 00 00 00: 
             0x000000fc: 00 00 00 00: 
             0x00000100: 00 00 00 00: 
             0x00000104: 41 05 00 00: 
             0x00000108: 0f 00 00 00: 
             0x0000010c: 1d 00 00 00: 
             0x00000110: 00 00 00 00: 
             0x00000114: 00 00 00 00: 
             0x00000118: 42 09 00 00: 
             0x0000011c: 0f 00 00 00: 
             0x00000120: 9e 13 00 00: 
             0x00000124: 00 00 00 00: 
             0x00000128: 00 00 00 00: 
             0x0000012c: 42 09 00 00: 
             0x00000130: 0f 00 00 00: 
             0x00000134: 9e 13 00 00: 
             0x00000138: 00 00 00 00: 
             0x0000013c: 00 00 00 00: 
             0x00000140: 41 04 00 00: 
             0x00000144: 12 00 00 00: 
             0x00000148: 1e 00 00 00: 
             0x0000014c: 00 00 00 00: 
             0x00000150: 00 00 00 00: 
             0x00000154: c1 04 00 00: 
             0x00000158: 12 00 00 00: 
             0x0000015c: 25 00 00 00: 
             0x00000160: 00 00 00 00: 
             0x00000164: 00 00 00 00: 
             0x00000168: 01 05 00 00: 
             0x0000016c: 12 00 00 00: 
             0x00000170: 2d 00 00 00: 
             0x00000174: 00 00 00 00: 
             0x00000178: 00 00 00 00: 
             0x0000017c: 41 05 00 00: 
             0x00000180: 12 00 00 00: 
             0x00000184: 35 00 00 00: 
             0x00000188: 00 00 00 00: 
             0x0000018c: 00 00 00 00: 
             0x00000190: 41 04 00 00: 
             0x00000194: 13 00 00 00: 
             0x00000198: 1f 00 00 00: 
             0x0000019c: 00 00 00 00: 
             0x000001a0: 00 00 00 00: 
             0x000001a4: c1 04 00 00: 
             0x000001a8: 13 00 00 00: 
             0x000001ac: 26 00 00 00: 
             0x000001b0: 00 00 00 00: 
             0x000001b4: 00 00 00 00: 
             0x000001b8: 01 05 00 00: 
             0x000001bc: 13 00 00 00: 
             0x000001c0: 2e 00 00 00: 
             0x000001c4: 00 00 00 00: 
             0x000001c8: 00 00 00 00: 
             0x000001cc: 41 05 00 00: 
             0x000001d0: 13 00 00 00: 
             0x000001d4: 36 00 00 00: 
             0x000001d8: 00 00 00 00: 
             0x000001dc: 00 00 00 00: 
             0x000001e0: 41 04 00 00: 
             0x000001e4: 14 00 00 00: 
             0x000001e8: 20 00 00 00: 
             0x000001ec: 00 00 00 00: 
             0x000001f0: 00 00 00 00: 
             0x000001f4: c1 04 00 00: 
             0x000001f8: 14 00 00 00: 
             0x000001fc: 27 00 00 00: 
             0x00000200: 00 00 00 00: 
             0x00000204: 00 00 00 00: 
             0x00000208: 01 05 00 00: 
             0x0000020c: 14 00 00 00: 
             0x00000210: 2f 00 00 00: 
             0x00000214: 00 00 00 00: 
             0x00000218: 00 00 00 00: 
             0x0000021c: 41 05 00 00: 
             0x00000220: 14 00 00 00: 
             0x00000224: 37 00 00 00: 
             0x00000228: 00 00 00 00: 
             0x0000022c: 00 00 00 00: 
             0x00000230: 41 04 00 00: 
             0x00000234: 15 00 00 00: 
             0x00000238: 21 00 00 00: 
             0x0000023c: 00 00 00 00: 
             0x00000240: 00 00 00 00: 
             0x00000244: c1 04 00 00: 
             0x00000248: 15 00 00 00: 
             0x0000024c: 28 00 00 00: 
             0x00000250: 00 00 00 00: 
             0x00000254: 00 00 00 00: 
             0x00000258: 01 05 00 00: 
             0x0000025c: 15 00 00 00: 
             0x00000260: 30 00 00 00: 
             0x00000264: 00 00 00 00: 
             0x00000268: 00 00 00 00: 
             0x0000026c: 41 05 00 00: 
             0x00000270: 15 00 00 00: 
             0x00000274: 38 00 00 00: 
             0x00000278: 00 00 00 00: 
             0x0000027c: 00 00 00 00: 
             0x00000280: 41 04 00 00: 
             0x00000284: 16 00 00 00: 
             0x00000288: 22 00 00 00: 
             0x0000028c: 00 00 00 00: 
             0x00000290: 00 00 00 00: 
             0x00000294: c1 04 00 00: 
             0x00000298: 16 00 00 00: 
             0x0000029c: 29 00 00 00: 
             0x000002a0: 00 00 00 00: 
             0x000002a4: 00 00 00 00: 
             0x000002a8: 01 05 00 00: 
             0x000002ac: 16 00 00 00: 
             0x000002b0: 31 00 00 00: 
             0x000002b4: 00 00 00 00: 
             0x000002b8: 00 00 00 00: 
             0x000002bc: 41 05 00 00: 
             0x000002c0: 16 00 00 00: 
             0x000002c4: 39 00 00 00: 
             0x000002c8: 00 00 00 00: 
             0x000002cc: 00 00 00 00: 
             0x000002d0: 01 03 00 00: 
             0x000002d4: 17 00 00 00: 
             0x000002d8: 6f 00 00 00: 
             0x000002dc: 00 00 00 00: 
             0x000002e0: 00 00 00 00: 
             0x000002e4: 41 04 00 00: 
             0x000002e8: 17 00 00 00: 
             0x000002ec: 0d 00 00 00: 
             0x000002f0: 00 00 00 00: 
             0x000002f4: 00 00 00 00: 
             0x000002f8: c1 04 00 00: 
             0x000002fc: 17 00 00 00: 
             0x00000300: 2a 00 00 00: 
             0x00000304: 00 00 00 00: 
             0x00000308: 00 00 00 00: 
             0x0000030c: 01 05 00 00: 
             0x00000310: 17 00 00 00: 
             0x00000314: 32 00 00 00: 
             0x00000318: 00 00 00 00: 
             0x0000031c: 00 00 00 00: 
             0x00000320: 41 05 00 00: 
             0x00000324: 17 00 00 00: 
             0x00000328: 3a 00 00 00: 
             0x0000032c: 00 00 00 00: 
             0x00000330: 00 00 00 00: 
             0x00000334: 42 09 00 00: 
             0x00000338: 17 00 00 00: 
             0x0000033c: a6 13 00 00: 
             0x00000340: 00 00 00 00: 
             0x00000344: 00 00 00 00: 
             0x00000348: 42 09 00 00: 
             0x0000034c: 17 00 00 00: 
             0x00000350: a6 13 00 00: 
             0x00000354: 00 00 00 00: 
             0x00000358: 00 00 00 00: 
             0x0000035c: 41 04 00 00: 
             0x00000360: 18 00 00 00: 
             0x00000364: 23 00 00 00: 
             0x00000368: 00 00 00 00: 
             0x0000036c: 00 00 00 00: 
             0x00000370: c1 04 00 00: 
             0x00000374: 18 00 00 00: 
             0x00000378: 2b 00 00 00: 
             0x0000037c: 00 00 00 00: 
             0x00000380: 00 00 00 00: 
             0x00000384: 01 05 00 00: 
             0x00000388: 18 00 00 00: 
             0x0000038c: 33 00 00 00: 
             0x00000390: 00 00 00 00: 
             0x00000394: 00 00 00 00: 
             0x00000398: 41 05 00 00: 
             0x0000039c: 18 00 00 00: 
             0x000003a0: 3b 00 00 00: 
             0x000003a4: 00 00 00 00: 
             0x000003a8: 00 00 00 00: 
             0x000003ac: c1 07 00 00: 
             0x000003b0: 18 00 00 00: 
             0x000003b4: b5 00 00 00: 
             0x000003b8: 00 00 00 00: 
             0x000003bc: 00 00 00 00: 
             0x000003c0: 01 06 00 00: 
             0x000003c4: 18 00 00 00: 
             0x000003c8: b6 00 00 00: 
             0x000003cc: 00 00 00 00: 
             0x000003d0: 00 00 00 00: 
             0x000003d4: 42 09 00 00: 
             0x000003d8: 18 00 00 00: 
             0x000003dc: 9e 13 00 00: 
             0x000003e0: 00 00 00 00: 
             0x000003e4: 00 00 00 00: 
             0x000003e8: 42 09 00 00: 
             0x000003ec: 18 00 00 00: 
             0x000003f0: 9e 13 00 00: 
             0x000003f4: 00 00 00 00: 
             0x000003f8: 00 00 00 00: 
             0x000003fc: 41 04 00 00: 
             0x00000400: 19 00 00 00: 
             0x00000404: 24 00 00 00: 
             0x00000408: 00 00 00 00: 
             0x0000040c: 00 00 00 00: 
             0x00000410: c1 04 00 00: 
             0x00000414: 19 00 00 00: 
             0x00000418: 2c 00 00 00: 
             0x0000041c: 00 00 00 00: 
             0x00000420: 00 00 00 00: 
             0x00000424: 01 05 00 00: 
             0x00000428: 19 00 00 00: 
             0x0000042c: 34 00 00 00: 
             0x00000430: 00 00 00 00: 
             0x00000434: 00 00 00 00: 
             0x00000438: 41 05 00 00: 
             0x0000043c: 19 00 00 00: 
             0x00000440: 3c 00 00 00: 
             0x00000444: 00 00 00 00: 
             0x00000448: 00 00 00 00: 
             0x0000044c: c1 07 00 00: 
             0x00000450: 19 00 00 00: 
             0x00000454: c3 00 00 00: 
             0x00000458: 00 00 00 00: 
             0x0000045c: 00 00 00 00: 
             0x00000460: 01 06 00 00: 
             0x00000464: 19 00 00 00: 
             0x00000468: c4 00 00 00: 
             0x0000046c: 00 00 00 00: 
             0x00000470: 00 00 00 00: 
             0x00000474: 42 09 00 00: 
             0x00000478: 19 00 00 00: 
             0x0000047c: af 13 00 00: 
             0x00000480: 00 00 00 00: 
             0x00000484: 00 00 00 00: 
             0x00000488: 42 09 00 00: 
             0x0000048c: 19 00 00 00: 
             0x00000490: af 13 00 00: 
             0x00000494: 00 00 00 00: 
             0x00000498: 00 00 00 00: 
             0x0000049c: 41 00 00 00: 
             0x000004a0: 2a 00 00 00: 
             0x000004a4: 71 00 00 00: 
             0x000004a8: 00 00 00 00: 
             0x000004ac: 00 00 00 00: 
             0x000004b0: 41 00 00 00: 
             0x000004b4: 32 00 00 00: 
             0x000004b8: 72 00 00 00: 
             0x000004bc: 00 00 00 00: 
             0x000004c0: 00 00 00 00: 
             0x000004c4: 41 04 00 00: 
             0x000004c8: 43 00 00 00: 
             0x000004cc: d9 00 00 00: 
             0x000004d0: 00 00 00 00: 
             0x000004d4: 00 00 00 00: 
             0x000004d8: c1 04 00 00: 
             0x000004dc: 43 00 00 00: 
             0x000004e0: da 00 00 00: 
             0x000004e4: 00 00 00 00: 
             0x000004e8: 00 00 00 00: 
             0x000004ec: 01 05 00 00: 
             0x000004f0: 43 00 00 00: 
             0x000004f4: db 00 00 00: 
             0x000004f8: 00 00 00 00: 
             0x000004fc: 00 00 00 00: 
             0x00000500: 41 05 00 00: 
             0x00000504: 43 00 00 00: 
             0x00000508: dc 00 00 00: 
             0x0000050c: 00 00 00 00: 
             0x00000510: 00 00 00 00: 
             0x00000514: c1 07 00 00: 
             0x00000518: 43 00 00 00: 
             0x0000051c: dd 00 00 00: 
             0x00000520: 00 00 00 00: 
             0x00000524: 00 00 00 00: 
             0x00000528: 01 06 00 00: 
             0x0000052c: 43 00 00 00: 
             0x00000530: de 00 00 00: 
             0x00000534: 00 00 00 00: 
             0x00000538: 00 00 00 00: 
             0x0000053c: 42 09 00 00: 
             0x00000540: 43 00 00 00: 
             0x00000544: 9e 13 00 00: 
             0x00000548: 00 00 00 00: 
             0x0000054c: 00 00 00 00: 
             0x00000550: 42 09 00 00: 
             0x00000554: 43 00 00 00: 
             0x00000558: 9e 13 00 00: 
             0x0000055c: 00 00 00 00: 
             0x00000560: 00 00 00 00: 
             0x00000564: 41 04 00 00: 
             0x00000568: 46 00 00 00: 
             0x0000056c: 47 00 00 00: 
             0x00000570: 00 00 00 00: 
             0x00000574: 00 00 00 00: 
             0x00000578: 41 05 00 00: 
             0x0000057c: 46 00 00 00: 
             0x00000580: 48 00 00 00: 
             0x00000584: 00 00 00 00: 
             0x00000588: 00 00 00 00: 
             0x0000058c: 01 05 00 00: 
             0x00000590: 46 00 00 00: 
             0x00000594: 49 00 00 00: 
             0x00000598: 00 00 00 00: 
             0x0000059c: 00 00 00 00: 
             0x000005a0: c1 04 00 00: 
             0x000005a4: 46 00 00 00: 
             0x000005a8: 4a 00 00 00: 
             0x000005ac: 00 00 00 00: 
             0x000005b0: 00 00 00 00: 
             0x000005b4: 42 09 00 00: 
             0x000005b8: 46 00 00 00: 
             0x000005bc: 9e 13 00 00: 
             0x000005c0: 00 00 00 00: 
             0x000005c4: 00 00 00 00: 
             0x000005c8: 42 09 00 00: 
             0x000005cc: 46 00 00 00: 
             0x000005d0: 9e 13 00 00: 
             0x000005d4: 00 00 00 00: 
             0x000005d8: 00 00 00 00: 
             0x000005dc: c1 07 00 00: 
             0x000005e0: 4d 00 00 00: 
             0x000005e4: b8 00 00 00: 
             0x000005e8: 00 00 00 00: 
             0x000005ec: 00 00 00 00: 
             0x000005f0: 41 04 00 00: 
             0x000005f4: 4d 00 00 00: 
             0x000005f8: b9 00 00 00: 
             0x000005fc: 00 00 00 00: 
             0x00000600: 00 00 00 00: 
             0x00000604: 41 05 00 00: 
             0x00000608: 4d 00 00 00: 
             0x0000060c: ba 00 00 00: 
             0x00000610: 00 00 00 00: 
             0x00000614: 00 00 00 00: 
             0x00000618: 01 05 00 00: 
             0x0000061c: 4d 00 00 00: 
             0x00000620: bb 00 00 00: 
             0x00000624: 00 00 00 00: 
             0x00000628: 00 00 00 00: 
             0x0000062c: c1 04 00 00: 
             0x00000630: 4d 00 00 00: 
             0x00000634: bc 00 00 00: 
             0x00000638: 00 00 00 00: 
             0x0000063c: 00 00 00 00: 
             0x00000640: 42 09 00 00: 
             0x00000644: 4d 00 00 00: 
             0x00000648: af 13 00 00: 
             0x0000064c: 00 00 00 00: 
             0x00000650: 00 00 00 00: 
             0x00000654: 42 09 00 00: 
             0x00000658: 4d 00 00 00: 
             0x0000065c: af 13 00 00: 
             0x00000660: 00 00 00 00: 
             0x00000664: 00 00 00 00: 
             0x00000668: 42 09 00 00: 
             0x0000066c: 4d 00 00 00: 
             0x00000670: af 13 00 00: 
             0x00000674: 00 00 00 00: 
             0x00000678: 00 00 00 00: 
             0x0000067c: c1 07 00 00: 
             0x00000680: 4e 00 00 00: 
             0x00000684: a0 00 00 00: 
             0x00000688: 00 00 00 00: 
             0x0000068c: 00 00 00 00: 
             0x00000690: 41 04 00 00: 
             0x00000694: 4e 00 00 00: 
             0x00000698: a1 00 00 00: 
             0x0000069c: 00 00 00 00: 
             0x000006a0: 00 00 00 00: 
             0x000006a4: 41 05 00 00: 
             0x000006a8: 4e 00 00 00: 
             0x000006ac: a2 00 00 00: 
             0x000006b0: 00 00 00 00: 
             0x000006b4: 00 00 00 00: 
             0x000006b8: 01 05 00 00: 
             0x000006bc: 4e 00 00 00: 
             0x000006c0: a3 00 00 00: 
             0x000006c4: 00 00 00 00: 
             0x000006c8: 00 00 00 00: 
             0x000006cc: c1 04 00 00: 
             0x000006d0: 4e 00 00 00: 
             0x000006d4: a4 00 00 00: 
             0x000006d8: 00 00 00 00: 
             0x000006dc: 00 00 00 00: 
             0x000006e0: 41 04 00 00: 
             0x000006e4: 50 00 00 00: 
             0x000006e8: c6 00 00 00: 
             0x000006ec: 00 00 00 00: 
             0x000006f0: 00 00 00 00: 
             0x000006f4: c1 04 00 00: 
             0x000006f8: 50 00 00 00: 
             0x000006fc: c7 00 00 00: 
             0x00000700: 00 00 00 00: 
             0x00000704: 00 00 00 00: 
             0x00000708: 01 05 00 00: 
             0x0000070c: 50 00 00 00: 
             0x00000710: c8 00 00 00: 
             0x00000714: 00 00 00 00: 
             0x00000718: 00 00 00 00: 
             0x0000071c: 41 05 00 00: 
             0x00000720: 50 00 00 00: 
             0x00000724: c9 00 00 00: 
             0x00000728: 00 00 00 00: 
             0x0000072c: 00 00 00 00: 
             0x00000730: c1 07 00 00: 
             0x00000734: 50 00 00 00: 
             0x00000738: ca 00 00 00: 
             0x0000073c: 00 00 00 00: 
             0x00000740: 00 00 00 00: 
             0x00000744: 01 06 00 00: 
             0x00000748: 50 00 00 00: 
             0x0000074c: cb 00 00 00: 
             0x00000750: 00 00 00 00: 
             0x00000754: 00 00 00 00: 
             0x00000758: 42 09 00 00: 
             0x0000075c: 50 00 00 00: 
             0x00000760: b8 13 00 00: 
             0x00000764: 00 00 00 00: 
             0x00000768: 00 00 00 00: 
             0x0000076c: 42 09 00 00: 
             0x00000770: 50 00 00 00: 
             0x00000774: b8 13 00 00: 
             0x00000778: 00 00 00 00: 
             0x0000077c: 00 00 00 00: 
             0x00000780: 01 06 00 00: 
             0x00000784: 59 00 00 00: 
             0x00000788: 5a 00 00 00: 
             0x0000078c: 00 00 00 00: 
             0x00000790: 00 00 00 00: 
             0x00000794: c1 07 00 00: 
             0x00000798: 59 00 00 00: 
             0x0000079c: 5b 00 00 00: 
             0x000007a0: 00 00 00 00: 
             0x000007a4: 00 00 00 00: 
             0x000007a8: 01 06 00 00: 
             0x000007ac: 5f 00 00 00: 
             0x000007b0: 65 00 00 00: 
             0x000007b4: 00 00 00 00: 
             0x000007b8: 00 00 00 00: 
             0x000007bc: c1 07 00 00: 
             0x000007c0: 5f 00 00 00: 
             0x000007c4: 66 00 00 00: 
             0x000007c8: 00 00 00 00: 
             0x000007cc: 00 00 00 00: 
             0x000007d0: 41 04 00 00: 
             0x000007d4: 5f 00 00 00: 
             0x000007d8: 61 00 00 00: 
             0x000007dc: 00 00 00 00: 
             0x000007e0: 00 00 00 00: 
             0x000007e4: 41 05 00 00: 
             0x000007e8: 5f 00 00 00: 
             0x000007ec: 64 00 00 00: 
             0x000007f0: 00 00 00 00: 
             0x000007f4: 00 00 00 00: 
             0x000007f8: 01 05 00 00: 
             0x000007fc: 5f 00 00 00: 
             0x00000800: 63 00 00 00: 
             0x00000804: 00 00 00 00: 
             0x00000808: 00 00 00 00: 
             0x0000080c: c1 04 00 00: 
             0x00000810: 5f 00 00 00: 
             0x00000814: 62 00 00 00: 
             0x00000818: 00 00 00 00: 
             0x0000081c: 00 00 00 00: 
             0x00000820: 42 09 00 00: 
             0x00000824: 5f 00 00 00: 
             0x00000828: cc 13 00 00: 
             0x0000082c: 00 00 00 00: 
             0x00000830: 00 00 00 00: 
             0x00000834: 42 09 00 00: 
             0x00000838: 5f 00 00 00: 
             0x0000083c: cc 13 00 00: 
             0x00000840: 00 00 00 00: 
             0x00000844: 00 00 00 00: 
             0x00000848: 42 09 00 00: 
             0x0000084c: 5f 00 00 00: 
             0x00000850: cc 13 00 00: 
             0x00000854: 00 00 00 00: 
             0x00000858: 00 00 00 00: 
             0x0000085c: 42 09 00 00: 
             0x00000860: 60 00 00 00: 
             0x00000864: d6 13 00 00: 
             0x00000868: 00 00 00 00: 
             0x0000086c: 00 00 00 00: 
             0x00000870: 42 09 00 00: 
             0x00000874: 60 00 00 00: 
             0x00000878: d6 13 00 00: 
             0x0000087c: 00 00 00 00: 
             0x00000880: 00 00 00 00: 
             0x00000884: 42 09 00 00: 
             0x00000888: 60 00 00 00: 
             0x0000088c: d6 13 00 00: 
             0x00000890: 00 00 00 00: 
             0x00000894: 00 00 00 00: 
             0x00000898: 01 03 00 00: 
             0x0000089c: 6f 00 00 00: 
             0x000008a0: 5f 00 00 00: 
             0x000008a4: 00 00 00 00: 
             0x000008a8: 00 00 00 00: 
             0x000008ac: 01 06 00 00: 
             0x000008b0: 6f 00 00 00: 
             0x000008b4: 74 00 00 00: 
             0x000008b8: 00 00 00 00: 
             0x000008bc: 00 00 00 00: 
             0x000008c0: c1 07 00 00: 
             0x000008c4: 6f 00 00 00: 
             0x000008c8: 75 00 00 00: 
             0x000008cc: 00 00 00 00: 
             0x000008d0: 00 00 00 00: 
             0x000008d4: 41 04 00 00: 
             0x000008d8: 6f 00 00 00: 
             0x000008dc: 70 00 00 00: 
             0x000008e0: 00 00 00 00: 
             0x000008e4: 00 00 00 00: 
             0x000008e8: 41 05 00 00: 
             0x000008ec: 6f 00 00 00: 
             0x000008f0: 73 00 00 00: 
             0x000008f4: 00 00 00 00: 
             0x000008f8: 00 00 00 00: 
             0x000008fc: 01 05 00 00: 
             0x00000900: 6f 00 00 00: 
             0x00000904: 72 00 00 00: 
             0x00000908: 00 00 00 00: 
             0x0000090c: 00 00 00 00: 
             0x00000910: c1 04 00 00: 
             0x00000914: 6f 00 00 00: 
             0x00000918: 71 00 00 00: 
             0x0000091c: 00 00 00 00: 
             0x00000920: 00 00 00 00: 
             0x00000924: 42 09 00 00: 
             0x00000928: 6f 00 00 00: 
             0x0000092c: de 13 00 00: 
             0x00000930: 00 00 00 00: 
             0x00000934: 00 00 00 00: 
             0x00000938: 42 09 00 00: 
             0x0000093c: 6f 00 00 00: 
             0x00000940: de 13 00 00: 
             0x00000944: 00 00 00 00: 
             0x00000948: 00 00 00 00: 
             0x0000094c: 41 00 00 00: 
             0x00000950: 72 00 00 00: 
             0x00000954: 63 00 00 00: 
             0x00000958: 00 00 00 00: 
             0x0000095c: 00 00 00 00: 
             0x00000960: 41 00 00 00: 
             0x00000964: 73 00 00 00: 
             0x00000968: 64 00 00 00: 
             0x0000096c: 00 00 00 00: 
             0x00000970: 00 00 00 00: 
             0x00000974: 41 04 00 00: 
             0x00000978: a6 00 00 00: 
             0x0000097c: a9 00 00 00: 
             0x00000980: 00 00 00 00: 
             0x00000984: 00 00 00 00: 
             0x00000988: c1 04 00 00: 
             0x0000098c: a6 00 00 00: 
             0x00000990: ac 00 00 00: 
             0x00000994: 00 00 00 00: 
             0x00000998: 00 00 00 00: 
             0x0000099c: 01 05 00 00: 
             0x000009a0: a6 00 00 00: 
             0x000009a4: af 00 00 00: 
             0x000009a8: 00 00 00 00: 
             0x000009ac: 00 00 00 00: 
             0x000009b0: 41 05 00 00: 
             0x000009b4: a6 00 00 00: 
             0x000009b8: b2 00 00 00: 
             0x000009bc: 00 00 00 00: 
             0x000009c0: 00 00 00 00: 
             0x000009c4: c1 07 00 00: 
             0x000009c8: a6 00 00 00: 
             0x000009cc: d6 00 00 00: 
             0x000009d0: 00 00 00 00: 
             0x000009d4: 00 00 00 00: 
             0x000009d8: 01 06 00 00: 
             0x000009dc: a6 00 00 00: 
             0x000009e0: d7 00 00 00: 
             0x000009e4: 00 00 00 00: 
             0x000009e8: 00 00 00 00: 
             0x000009ec: 42 09 00 00: 
             0x000009f0: a6 00 00 00: 
             0x000009f4: e9 13 00 00: 
             0x000009f8: 00 00 00 00: 
             0x000009fc: 00 00 00 00: 
             0x00000a00: 42 09 00 00: 
             0x00000a04: a6 00 00 00: 
             0x00000a08: e9 13 00 00: 
             0x00000a0c: 00 00 00 00: 
             0x00000a10: 00 00 00 00: 
             0x00000a14: 42 09 00 00: 
             0x00000a18: a6 00 00 00: 
             0x00000a1c: e9 13 00 00: 
             0x00000a20: 00 00 00 00: 
             0x00000a24: 00 00 00 00: 
             0x00000a28: 42 09 00 00: 
             0x00000a2c: a6 00 00 00: 
             0x00000a30: e9 13 00 00: 
             0x00000a34: 00 00 00 00: 
             0x00000a38: 00 00 00 00: 
             0x00000a3c: 41 04 00 00: 
             0x00000a40: a7 00 00 00: 
             0x00000a44: aa 00 00 00: 
             0x00000a48: 00 00 00 00: 
             0x00000a4c: 00 00 00 00: 
             0x00000a50: c1 04 00 00: 
             0x00000a54: a7 00 00 00: 
             0x00000a58: ad 00 00 00: 
             0x00000a5c: 00 00 00 00: 
             0x00000a60: 00 00 00 00: 
             0x00000a64: 01 05 00 00: 
             0x00000a68: a7 00 00 00: 
             0x00000a6c: b0 00 00 00: 
             0x00000a70: 00 00 00 00: 
             0x00000a74: 00 00 00 00: 
             0x00000a78: 41 05 00 00: 
             0x00000a7c: a7 00 00 00: 
             0x00000a80: b3 00 00 00: 
             0x00000a84: 00 00 00 00: 
             0x00000a88: 00 00 00 00: 
             0x00000a8c: c1 07 00 00: 
             0x00000a90: a7 00 00 00: 
             0x00000a94: e8 00 00 00: 
             0x00000a98: 00 00 00 00: 
             0x00000a9c: 00 00 00 00: 
             0x00000aa0: 01 06 00 00: 
             0x00000aa4: a7 00 00 00: 
             0x00000aa8: e9 00 00 00: 
             0x00000aac: 00 00 00 00: 
             0x00000ab0: 00 00 00 00: 
             0x00000ab4: 42 09 00 00: 
             0x00000ab8: a7 00 00 00: 
             0x00000abc: 9e 13 00 00: 
             0x00000ac0: 00 00 00 00: 
             0x00000ac4: 00 00 00 00: 
             0x00000ac8: 42 09 00 00: 
             0x00000acc: a7 00 00 00: 
             0x00000ad0: 9e 13 00 00: 
             0x00000ad4: 00 00 00 00: 
             0x00000ad8: 00 00 00 00: 
             0x00000adc: 42 09 00 00: 
             0x00000ae0: a7 00 00 00: 
             0x00000ae4: 9e 13 00 00: 
             0x00000ae8: 00 00 00 00: 
             0x00000aec: 00 00 00 00: 
             0x00000af0: 42 09 00 00: 
             0x00000af4: a7 00 00 00: 
             0x00000af8: 9e 13 00 00: 
             0x00000afc: 00 00 00 00: 
             0x00000b00: 00 00 00 00: 
             0x00000b04: c1 07 00 00: 
             0x00000b08: a8 00 00 00: 
             0x00000b0c: eb 00 00 00: 
             0x00000b10: 00 00 00 00: 
             0x00000b14: 00 00 00 00: 
             0x00000b18: 41 04 00 00: 
             0x00000b1c: a8 00 00 00: 
             0x00000b20: ab 00 00 00: 
             0x00000b24: 00 00 00 00: 
             0x00000b28: 00 00 00 00: 
             0x00000b2c: 41 05 00 00: 
             0x00000b30: a8 00 00 00: 
             0x00000b34: b4 00 00 00: 
             0x00000b38: 00 00 00 00: 
             0x00000b3c: 00 00 00 00: 
             0x00000b40: 01 05 00 00: 
             0x00000b44: a8 00 00 00: 
             0x00000b48: b1 00 00 00: 
             0x00000b4c: 00 00 00 00: 
             0x00000b50: 00 00 00 00: 
             0x00000b54: c1 04 00 00: 
             0x00000b58: a8 00 00 00: 
             0x00000b5c: ae 00 00 00: 
             0x00000b60: 00 00 00 00: 
             0x00000b64: 00 00 00 00: 
             0x00000b68: 42 09 00 00: 
             0x00000b6c: a8 00 00 00: 
             0x00000b70: 9e 13 00 00: 
             0x00000b74: 00 00 00 00: 
             0x00000b78: 00 00 00 00: 
             0x00000b7c: 42 09 00 00: 
             0x00000b80: a8 00 00 00: 
             0x00000b84: 9e 13 00 00: 
             0x00000b88: 00 00 00 00: 
             0x00000b8c: 00 00 00 00: 
             0x00000b90: 42 09 00 00: 
             0x00000b94: a8 00 00 00: 
             0x00000b98: 9e 13 00 00: 
             0x00000b9c: 00 00 00 00: 
             0x00000ba0: 00 00 00 00: 
             0x00000ba4: 41 00 00 00: 
             0x00000ba8: ab 00 00 00: 
             0x00000bac: bd 00 00 00: 
             0x00000bb0: 00 00 00 00: 
             0x00000bb4: 00 00 00 00: 
             0x00000bb8: 41 00 00 00: 
             0x00000bbc: ae 00 00 00: 
             0x00000bc0: c0 00 00 00: 
             0x00000bc4: 00 00 00 00: 
             0x00000bc8: 00 00 00 00: 
             0x00000bcc: 41 00 00 00: 
             0x00000bd0: b1 00 00 00: 
             0x00000bd4: bf 00 00 00: 
             0x00000bd8: 00 00 00 00: 
             0x00000bdc: 00 00 00 00: 
             0x00000be0: 41 00 00 00: 
             0x00000be4: b4 00 00 00: 
             0x00000be8: be 00 00 00: 
             0x00000bec: 00 00 00 00: 
             0x00000bf0: 00 00 00 00: 
             0x00000bf4: 41 00 00 00: 
             0x00000bf8: b9 00 00 00: 
             0x00000bfc: bd 00 00 00: 
             0x00000c00: 00 00 00 00: 
             0x00000c04: 00 00 00 00: 
             0x00000c08: 41 00 00 00: 
             0x00000c0c: ba 00 00 00: 
             0x00000c10: be 00 00 00: 
             0x00000c14: 00 00 00 00: 
             0x00000c18: 00 00 00 00: 
             0x00000c1c: 41 00 00 00: 
             0x00000c20: bb 00 00 00: 
             0x00000c24: bf 00 00 00: 
             0x00000c28: 00 00 00 00: 
             0x00000c2c: 00 00 00 00: 
             0x00000c30: 41 00 00 00: 
             0x00000c34: bc 00 00 00: 
             0x00000c38: c0 00 00 00: 
             0x00000c3c: 00 00 00 00: 
             0x00000c40: 00 00 00 00: 
             0x00000c44: 41 04 00 00: 
             0x00000c48: c1 00 00 00: 
             0x00000c4c: bd 00 00 00: 
             0x00000c50: 00 00 00 00: 
             0x00000c54: 00 00 00 00: 
             0x00000c58: 41 05 00 00: 
             0x00000c5c: c1 00 00 00: 
             0x00000c60: be 00 00 00: 
             0x00000c64: 00 00 00 00: 
             0x00000c68: 00 00 00 00: 
             0x00000c6c: 01 05 00 00: 
             0x00000c70: c1 00 00 00: 
             0x00000c74: bf 00 00 00: 
             0x00000c78: 00 00 00 00: 
             0x00000c7c: 00 00 00 00: 
             0x00000c80: c1 04 00 00: 
             0x00000c84: c1 00 00 00: 
             0x00000c88: c0 00 00 00: 
             0x00000c8c: 00 00 00 00: 
             0x00000c90: 00 00 00 00: 
             0x00000c94: 41 04 00 00: 
             0x00000c98: cf 00 00 00: 
             0x00000c9c: d0 00 00 00: 
             0x00000ca0: 00 00 00 00: 
             0x00000ca4: 00 00 00 00: 
             0x00000ca8: c1 04 00 00: 
             0x00000cac: cf 00 00 00: 
             0x00000cb0: d1 00 00 00: 
             0x00000cb4: 00 00 00 00: 
             0x00000cb8: 00 00 00 00: 
             0x00000cbc: 01 05 00 00: 
             0x00000cc0: cf 00 00 00: 
             0x00000cc4: d2 00 00 00: 
             0x00000cc8: 00 00 00 00: 
             0x00000ccc: 00 00 00 00: 
             0x00000cd0: 41 05 00 00: 
             0x00000cd4: cf 00 00 00: 
             0x00000cd8: d3 00 00 00: 
             0x00000cdc: 00 00 00 00: 
             0x00000ce0: 00 00 00 00: 
             0x00000ce4: c1 07 00 00: 
             0x00000ce8: cf 00 00 00: 
             0x00000cec: d4 00 00 00: 
             0x00000cf0: 00 00 00 00: 
             0x00000cf4: 00 00 00 00: 
             0x00000cf8: 01 06 00 00: 
             0x00000cfc: cf 00 00 00: 
             0x00000d00: d5 00 00 00: 
             0x00000d04: 00 00 00 00: 
             0x00000d08: 00 00 00 00: 
             0x00000d0c: 42 09 00 00: 
             0x00000d10: df 00 00 00: 
             0x00000d14: f7 13 00 00: 
             0x00000d18: 00 00 00 00: 
             0x00000d1c: 00 00 00 00: 
             0x00000d20: 42 09 00 00: 
             0x00000d24: df 00 00 00: 
             0x00000d28: f7 13 00 00: 
             0x00000d2c: 00 00 00 00: 
             0x00000d30: 00 00 00 00: 
             0x00000d34: 41 04 00 00: 
             0x00000d38: e1 00 00 00: 
             0x00000d3c: e2 00 00 00: 
             0x00000d40: 00 00 00 00: 
             0x00000d44: 00 00 00 00: 
             0x00000d48: c1 04 00 00: 
             0x00000d4c: e1 00 00 00: 
             0x00000d50: e3 00 00 00: 
             0x00000d54: 00 00 00 00: 
             0x00000d58: 00 00 00 00: 
             0x00000d5c: 01 05 00 00: 
             0x00000d60: e1 00 00 00: 
             0x00000d64: e4 00 00 00: 
             0x00000d68: 00 00 00 00: 
             0x00000d6c: 00 00 00 00: 
             0x00000d70: 41 05 00 00: 
             0x00000d74: e1 00 00 00: 
             0x00000d78: e5 00 00 00: 
             0x00000d7c: 00 00 00 00: 
             0x00000d80: 00 00 00 00: 
             0x00000d84: c1 07 00 00: 
             0x00000d88: e1 00 00 00: 
             0x00000d8c: e6 00 00 00: 
             0x00000d90: 00 00 00 00: 
             0x00000d94: 00 00 00 00: 
             0x00000d98: 01 06 00 00: 
             0x00000d9c: e1 00 00 00: 
             0x00000da0: e7 00 00 00: 
             0x00000da4: 00 00 00 00: 
             0x00000da8: 00 00 00 00: 

Disassembly of section section .symtab (size: 4048)

             0x00000000: 00 00 00 00: 
             0x00000004: 00 00 00 00: 
             0x00000008: 00 00 00 00: 
             0x0000000c: 00 00 00 00: 
             0x00000010: 00 00 00 00: 
             0x00000014: 00 00 00 00: 
             0x00000018: 00 00 00 00: 
             0x0000001c: 04 00 f1 ff: 
             0x00000020: 02 01 00 00: 
             0x00000024: 38 04 01 00: 
             0x00000028: 00 00 00 00: 
             0x0000002c: 10 00 03 00: 
             0x00000030: 06 01 00 00: 
             0x00000034: 54 04 01 00: 
             0x00000038: 00 00 00 00: 
             0x0000003c: 10 00 06 00: 
             0x00000040: 0a 01 00 00: 
             0x00000044: 54 04 01 00: 
             0x00000048: 00 00 00 00: 
             0x0000004c: 10 00 01 00: 
             0x00000050: 10 01 00 00: 
             0x00000054: 90 04 01 00: 
             0x00000058: 00 00 00 00: 
             0x0000005c: 10 00 05 00: 
             0x00000060: 19 01 00 00: 
             0x00000064: 54 04 01 00: 
             0x00000068: 00 00 00 00: 
             0x0000006c: 10 00 04 00: 
             0x00000070: 25 01 00 00: 
             0x00000074: 54 04 01 00: 
             0x00000078: 00 00 00 00: 
             0x0000007c: 10 00 07 00: 
             0x00000080: 31 01 00 00: 
             0x00000084: 00 e1 f5 05: 
             0x00000088: 00 00 00 00: 
             0x0000008c: 10 00 f1 ff: 
             0x00000090: 3f 01 00 00: 
             0x00000094: 06 00 00 00: 
             0x00000098: 00 00 00 00: 
             0x0000009c: 10 00 f1 ff: 
             0x000000a0: 4f 01 00 00: 
             0x000000a4: 00 00 00 00: 
             0x000000a8: 00 00 00 00: 
             0x000000ac: 04 00 f1 ff: 
             0x000000b0: 56 01 00 00: 
             0x000000b4: e8 fe 01 00: 
             0x000000b8: 00 00 00 00: 
             0x000000bc: 10 00 f1 ff: 
             0x000000c0: 5d 01 00 00: 
             0x000000c4: b8 04 01 00: 
             0x000000c8: 00 00 00 00: 
             0x000000cc: 10 00 f1 ff: 
             0x000000d0: 64 01 00 00: 
             0x000000d4: 06 00 00 00: 
             0x000000d8: 00 00 00 00: 
             0x000000dc: 10 00 f1 ff: 
             0x000000e0: 75 01 00 00: 
             0x000000e4: 01 00 00 00: 
             0x000000e8: 00 00 00 00: 
             0x000000ec: 00 00 f1 ff: 
             0x000000f0: 8e 01 00 00: 
             0x000000f4: 00 00 01 00: 
             0x000000f8: 00 00 00 00: 
             0x000000fc: 12 00 0f 00: 
             0x00000100: 95 01 00 00: 
             0x00000104: 00 00 01 00: 
             0x00000108: 00 00 00 00: 
             0x0000010c: 10 00 f1 ff: 
             0x00000110: 9f 01 00 00: 
             0x00000114: b8 04 01 00: 
             0x00000118: 00 00 00 00: 
             0x0000011c: 10 00 05 00: 
             0x00000120: a8 01 00 00: 
             0x00000124: a4 00 01 00: 
             0x00000128: 00 00 00 00: 
             0x0000012c: 02 00 0f 00: 
             0x00000130: b4 01 00 00: 
             0x00000134: 30 00 01 00: 
             0x00000138: 00 00 00 00: 
             0x0000013c: 02 00 0f 00: 
             0x00000140: bf 01 00 00: 
             0x00000144: 6c 00 01 00: 
             0x00000148: 00 00 00 00: 
             0x0000014c: 02 00 0f 00: 
             0x00000150: cb 01 00 00: 
             0x00000154: 8a 00 01 00: 
             0x00000158: 00 00 00 00: 
             0x0000015c: 02 00 0f 00: 
             0x00000160: db 01 00 00: 
             0x00000164: 9a 03 01 00: 
             0x00000168: 00 00 00 00: 
             0x0000016c: 12 00 0c 00: 
             0x00000170: e1 01 00 00: 
             0x00000174: 0c 01 01 00: 
             0x00000178: 00 00 00 00: 
             0x0000017c: 12 00 0f 00: 
             0x00000180: e6 01 00 00: 
             0x00000184: 9c 02 01 00: 
             0x00000188: 16 00 00 00: 
             0x0000018c: 12 00 0f 00: 
             0x00000190: f2 01 00 00: 
             0x00000194: be 02 01 00: 
             0x00000198: 1a 00 00 00: 
             0x0000019c: 12 00 0f 00: 
             0x000001a0: 01 02 00 00: 
             0x000001a4: 34 00 00 00: 
             0x000001a8: 00 00 00 00: 
             0x000001ac: 10 00 f1 ff: 
             0x000001b0: 14 02 00 00: 
             0x000001b4: 01 00 00 00: 
             0x000001b8: 00 00 00 00: 
             0x000001bc: 10 00 f1 ff: 
             0x000001c0: 26 02 00 00: 
             0x000001c4: 00 00 00 00: 
             0x000001c8: 00 00 00 00: 
             0x000001cc: 10 00 f1 ff: 
             0x000001d0: 37 02 00 00: 
             0x000001d4: 01 00 00 00: 
             0x000001d8: 00 00 00 00: 
             0x000001dc: 10 00 f1 ff: 
             0x000001e0: 4a 02 00 00: 
             0x000001e4: 00 00 00 00: 
             0x000001e8: 00 00 00 00: 
             0x000001ec: 00 00 f1 ff: 
             0x000001f0: 62 02 00 00: 
             0x000001f4: 00 00 00 00: 
             0x000001f8: 00 00 00 00: 
             0x000001fc: 00 00 f1 ff: 
             0x00000200: 79 02 00 00: 
             0x00000204: 00 00 00 00: 
             0x00000208: 00 00 00 00: 
             0x0000020c: 00 00 f1 ff: 
             0x00000210: 91 02 00 00: 
             0x00000214: 00 00 00 00: 
             0x00000218: 00 00 00 00: 
             0x0000021c: 00 00 f1 ff: 
             0x00000220: ad 02 00 00: 
             0x00000224: 32 00 00 00: 
             0x00000228: 00 00 00 00: 
             0x0000022c: 00 00 f1 ff: 
             0x00000230: bf 02 00 00: 
             0x00000234: 33 00 00 00: 
             0x00000238: 00 00 00 00: 
             0x0000023c: 10 00 f1 ff: 
             0x00000240: d7 02 00 00: 
             0x00000244: 34 00 00 00: 
             0x00000248: 00 00 00 00: 
             0x0000024c: 10 00 f1 ff: 
             0x00000250: f2 02 00 00: 
             0x00000254: 01 00 00 00: 
             0x00000258: 00 00 00 00: 
             0x0000025c: 00 00 f1 ff: 
             0x00000260: 09 03 00 00: 
             0x00000264: 01 00 00 00: 
             0x00000268: 00 00 00 00: 
             0x0000026c: 00 00 f1 ff: 
             0x00000270: 1f 03 00 00: 
             0x00000274: 01 00 00 00: 
             0x00000278: 00 00 00 00: 
             0x0000027c: 00 00 f1 ff: 
             0x00000280: 36 03 00 00: 
             0x00000284: 01 00 00 00: 
             0x00000288: 00 00 00 00: 
             0x0000028c: 00 00 f1 ff: 
             0x00000290: 51 03 00 00: 
             0x00000294: 01 00 00 00: 
             0x00000298: 00 00 00 00: 
             0x0000029c: 00 00 f1 ff: 
             0x000002a0: 62 03 00 00: 
             0x000002a4: 01 00 00 00: 
             0x000002a8: 00 00 00 00: 
             0x000002ac: 10 00 f1 ff: 
             0x000002b0: 72 03 00 00: 
             0x000002b4: 01 00 00 00: 
             0x000002b8: 00 00 00 00: 
             0x000002bc: 10 00 f1 ff: 
             0x000002c0: 89 03 00 00: 
             0x000002c4: 01 00 00 00: 
             0x000002c8: 00 00 00 00: 
             0x000002cc: 10 00 f1 ff: 
             0x000002d0: a3 03 00 00: 
             0x000002d4: 00 00 00 00: 
             0x000002d8: 00 00 00 00: 
             0x000002dc: 00 00 f1 ff: 
             0x000002e0: b9 03 00 00: 
             0x000002e4: 00 00 00 00: 
             0x000002e8: 00 00 00 00: 
             0x000002ec: 00 00 f1 ff: 
             0x000002f0: ce 03 00 00: 
             0x000002f4: 00 00 00 00: 
             0x000002f8: 00 00 00 00: 
             0x000002fc: 00 00 f1 ff: 
             0x00000300: e4 03 00 00: 
             0x00000304: 00 00 00 00: 
             0x00000308: 00 00 00 00: 
             0x0000030c: 00 00 f1 ff: 
             0x00000310: fe 03 00 00: 
             0x00000314: 00 00 00 00: 
             0x00000318: 00 00 00 00: 
             0x0000031c: 00 00 f1 ff: 
             0x00000320: 0e 04 00 00: 
             0x00000324: 00 00 00 00: 
             0x00000328: 00 00 00 00: 
             0x0000032c: 10 00 f1 ff: 
             0x00000330: 1d 04 00 00: 
             0x00000334: 00 00 00 00: 
             0x00000338: 00 00 00 00: 
             0x0000033c: 10 00 f1 ff: 
             0x00000340: 33 04 00 00: 
             0x00000344: 00 00 00 00: 
             0x00000348: 00 00 00 00: 
             0x0000034c: 10 00 f1 ff: 
             0x00000350: 4c 04 00 00: 
             0x00000354: 00 00 00 00: 
             0x00000358: 00 00 00 00: 
             0x0000035c: 00 00 f1 ff: 
             0x00000360: 64 04 00 00: 
             0x00000364: 00 00 00 00: 
             0x00000368: 00 00 00 00: 
             0x0000036c: 00 00 f1 ff: 
             0x00000370: 7b 04 00 00: 
             0x00000374: 00 00 00 00: 
             0x00000378: 00 00 00 00: 
             0x0000037c: 00 00 f1 ff: 
             0x00000380: 93 04 00 00: 
             0x00000384: 00 00 00 00: 
             0x00000388: 00 00 00 00: 
             0x0000038c: 00 00 f1 ff: 
             0x00000390: af 04 00 00: 
             0x00000394: 00 00 00 00: 
             0x00000398: 00 00 00 00: 
             0x0000039c: 00 00 f1 ff: 
             0x000003a0: c1 04 00 00: 
             0x000003a4: 01 00 00 00: 
             0x000003a8: 00 00 00 00: 
             0x000003ac: 10 00 f1 ff: 
             0x000003b0: d2 04 00 00: 
             0x000003b4: 00 00 00 00: 
             0x000003b8: 00 00 00 00: 
             0x000003bc: 10 00 f1 ff: 
             0x000003c0: ea 04 00 00: 
             0x000003c4: 00 00 00 00: 
             0x000003c8: 00 00 00 00: 
             0x000003cc: 10 00 f1 ff: 
             0x000003d0: 05 05 00 00: 
             0x000003d4: 26 00 01 00: 
             0x000003d8: 00 00 00 00: 
             0x000003dc: 00 00 0f 00: 
             0x000003e0: 15 05 00 00: 
             0x000003e4: 40 00 01 00: 
             0x000003e8: 00 00 00 00: 
             0x000003ec: 02 00 0f 00: 
             0x000003f0: 24 05 00 00: 
             0x000003f4: 44 00 01 00: 
             0x000003f8: 00 00 00 00: 
             0x000003fc: 00 00 0f 00: 
             0x00000400: 2a 05 00 00: 
             0x00000404: 68 00 01 00: 
             0x00000408: 00 00 00 00: 
             0x0000040c: 00 00 0f 00: 
             0x00000410: 39 05 00 00: 
             0x00000414: 80 00 01 00: 
             0x00000418: 00 00 00 00: 
             0x0000041c: 02 00 0f 00: 
             0x00000420: 46 05 00 00: 
             0x00000424: 84 00 01 00: 
             0x00000428: 00 00 00 00: 
             0x0000042c: 02 00 0f 00: 
             0x00000430: 59 05 00 00: 
             0x00000434: 80 03 01 00: 
             0x00000438: 08 00 00 00: 
             0x0000043c: 12 00 0f 00: 
             0x00000440: 6d 05 00 00: 
             0x00000444: aa 00 01 00: 
             0x00000448: 00 00 00 00: 
             0x0000044c: 12 00 0f 00: 
             0x00000450: 89 05 00 00: 
             0x00000454: aa 00 01 00: 
             0x00000458: 00 00 00 00: 
             0x0000045c: 02 00 0f 00: 
             0x00000460: 9c 05 00 00: 
             0x00000464: f6 03 01 00: 
             0x00000468: 00 00 00 00: 
             0x0000046c: 12 00 09 00: 
             0x00000470: a2 05 00 00: 
             0x00000474: 32 00 00 00: 
             0x00000478: 00 00 00 00: 
             0x0000047c: 10 00 f1 ff: 
             0x00000480: b4 05 00 00: 
             0x00000484: 00 00 00 00: 
             0x00000488: 00 00 00 00: 
             0x0000048c: 10 00 f1 ff: 
             0x00000490: c6 05 00 00: 
             0x00000494: 00 00 00 00: 
             0x00000498: 00 00 00 00: 
             0x0000049c: 10 00 f1 ff: 
             0x000004a0: d6 05 00 00: 
             0x000004a4: 00 00 00 00: 
             0x000004a8: 00 00 00 00: 
             0x000004ac: 10 00 f1 ff: 
             0x000004b0: e7 05 00 00: 
             0x000004b4: 34 04 01 00: 
             0x000004b8: 00 00 00 00: 
             0x000004bc: 00 00 0e 00: 
             0x000004c0: f0 05 00 00: 
             0x000004c4: 54 04 01 00: 
             0x000004c8: 00 00 00 00: 
             0x000004cc: 00 00 06 00: 
             0x000004d0: f9 05 00 00: 
             0x000004d4: b2 02 01 00: 
             0x000004d8: 0c 00 00 00: 
             0x000004dc: 12 00 0f 00: 
             0x000004e0: ff 05 00 00: 
             0x000004e4: 98 02 01 00: 
             0x000004e8: 04 00 00 00: 
             0x000004ec: 12 00 0f 00: 
             0x000004f0: 0c 06 00 00: 
             0x000004f4: 54 04 01 00: 
             0x000004f8: 00 00 00 00: 
             0x000004fc: 10 00 01 00: 
             0x00000500: 12 06 00 00: 
             0x00000504: d8 02 01 00: 
             0x00000508: 9c 00 00 00: 
             0x0000050c: 12 00 0f 00: 
             0x00000510: 19 06 00 00: 
             0x00000514: 00 00 00 00: 
             0x00000518: 00 00 00 00: 
             0x0000051c: 04 00 f1 ff: 
             0x00000520: 24 06 00 00: 
             0x00000524: 58 04 01 00: 
             0x00000528: 00 00 00 00: 
             0x0000052c: 00 00 06 00: 
             0x00000530: 32 06 00 00: 
             0x00000534: 5c 04 01 00: 
             0x00000538: 00 00 00 00: 
             0x0000053c: 00 00 06 00: 
             0x00000540: 3d 06 00 00: 
             0x00000544: 54 04 01 00: 
             0x00000548: 00 00 00 00: 
             0x0000054c: 10 00 07 00: 
             0x00000550: 48 06 00 00: 
             0x00000554: 18 04 01 00: 
             0x00000558: 00 00 00 00: 
             0x0000055c: 00 00 09 00: 
             0x00000560: 56 06 00 00: 
             0x00000564: 24 04 01 00: 
             0x00000568: 00 00 00 00: 
             0x0000056c: 00 00 09 00: 
             0x00000570: 63 06 00 00: 
             0x00000574: 8c 04 01 00: 
             0x00000578: 00 00 00 00: 
             0x0000057c: 10 00 08 00: 
             0x00000580: 76 06 00 00: 
             0x00000584: 00 00 00 00: 
             0x00000588: 00 00 00 00: 
             0x0000058c: 04 00 f1 ff: 
             0x00000590: 80 06 00 00: 
             0x00000594: 00 00 00 00: 
             0x00000598: 00 00 00 00: 
             0x0000059c: 00 00 f1 ff: 
             0x000005a0: 96 06 00 00: 
             0x000005a4: 00 00 00 00: 
             0x000005a8: 00 00 00 00: 
             0x000005ac: 00 00 f1 ff: 
             0x000005b0: b6 06 00 00: 
             0x000005b4: 01 00 00 00: 
             0x000005b8: 00 00 00 00: 
             0x000005bc: 00 00 f1 ff: 
             0x000005c0: d9 06 00 00: 
             0x000005c4: 04 00 00 00: 
             0x000005c8: 00 00 00 00: 
             0x000005cc: 00 00 0d 00: 
             0x000005d0: f3 06 00 00: 
             0x000005d4: 15 00 00 00: 
             0x000005d8: 00 00 00 00: 
             0x000005dc: 00 00 0d 00: 
             0x000005e0: 0d 07 00 00: 
             0x000005e4: 00 00 00 00: 
             0x000005e8: 00 00 00 00: 
             0x000005ec: 10 00 f1 ff: 
             0x000005f0: 24 07 00 00: 
             0x000005f4: ac 00 01 00: 
             0x000005f8: 52 00 00 00: 
             0x000005fc: 12 00 0f 00: 
             0x00000600: 30 07 00 00: 
             0x00000604: 88 00 00 00: 
             0x00000608: 00 00 00 00: 
             0x0000060c: 11 00 0d 00: 
             0x00000610: 38 07 00 00: 
             0x00000614: 04 00 00 00: 
             0x00000618: 00 00 00 00: 
             0x0000061c: 10 00 f1 ff: 
             0x00000620: 50 07 00 00: 
             0x00000624: 01 00 00 00: 
             0x00000628: 00 00 00 00: 
             0x0000062c: 10 00 f1 ff: 
             0x00000630: 67 07 00 00: 
             0x00000634: 00 00 00 00: 
             0x00000638: 00 00 00 00: 
             0x0000063c: 10 00 f1 ff: 
             0x00000640: 7d 07 00 00: 
             0x00000644: 00 00 00 00: 
             0x00000648: 00 00 00 00: 
             0x0000064c: 10 00 f1 ff: 
             0x00000650: 95 07 00 00: 
             0x00000654: 01 00 00 00: 
             0x00000658: 00 00 00 00: 
             0x0000065c: 00 00 f1 ff: 
             0x00000660: ab 07 00 00: 
             0x00000664: 01 00 00 00: 
             0x00000668: 00 00 00 00: 
             0x0000066c: 00 00 f1 ff: 
             0x00000670: c4 07 00 00: 
             0x00000674: b4 00 01 00: 
             0x00000678: 00 00 00 00: 
             0x0000067c: 00 00 0f 00: 
             0x00000680: d0 07 00 00: 
             0x00000684: fc 00 01 00: 
             0x00000688: 00 00 00 00: 
             0x0000068c: 00 00 0f 00: 
             0x00000690: da 07 00 00: 
             0x00000694: 00 00 00 00: 
             0x00000698: 00 00 00 00: 
             0x0000069c: 00 00 f1 ff: 
             0x000006a0: e8 07 00 00: 
             0x000006a4: 00 00 00 00: 
             0x000006a8: 00 00 00 00: 
             0x000006ac: 00 00 f1 ff: 
             0x000006b0: f6 07 00 00: 
             0x000006b4: 00 00 00 00: 
             0x000006b8: 00 00 00 00: 
             0x000006bc: 00 00 f1 ff: 
             0x000006c0: 04 08 00 00: 
             0x000006c4: 00 00 00 00: 
             0x000006c8: 00 00 00 00: 
             0x000006cc: 00 00 f1 ff: 
             0x000006d0: 12 08 00 00: 
             0x000006d4: 00 00 00 00: 
             0x000006d8: 00 00 00 00: 
             0x000006dc: 00 00 f1 ff: 
             0x000006e0: 76 06 00 00: 
             0x000006e4: 00 00 00 00: 
             0x000006e8: 00 00 00 00: 
             0x000006ec: 04 00 f1 ff: 
             0x000006f0: 20 08 00 00: 
             0x000006f4: 00 01 01 00: 
             0x000006f8: 0c 00 00 00: 
             0x000006fc: 12 00 0f 00: 
             0x00000700: 2f 08 00 00: 
             0x00000704: 06 00 00 00: 
             0x00000708: 00 00 00 00: 
             0x0000070c: 10 00 f1 ff: 
             0x00000710: 4a 08 00 00: 
             0x00000714: 01 00 00 00: 
             0x00000718: 00 00 00 00: 
             0x0000071c: 10 00 f1 ff: 
             0x00000720: 64 08 00 00: 
             0x00000724: 00 00 00 00: 
             0x00000728: 00 00 00 00: 
             0x0000072c: 10 00 f1 ff: 
             0x00000730: 7d 08 00 00: 
             0x00000734: 00 00 00 00: 
             0x00000738: 00 00 00 00: 
             0x0000073c: 10 00 f1 ff: 
             0x00000740: 98 08 00 00: 
             0x00000744: 01 00 00 00: 
             0x00000748: 00 00 00 00: 
             0x0000074c: 00 00 f1 ff: 
             0x00000750: b1 08 00 00: 
             0x00000754: 01 00 00 00: 
             0x00000758: 00 00 00 00: 
             0x0000075c: 00 00 f1 ff: 
             0x00000760: cd 08 00 00: 
             0x00000764: 00 00 00 00: 
             0x00000768: 00 00 00 00: 
             0x0000076c: 04 00 f1 ff: 
             0x00000770: d8 08 00 00: 
             0x00000774: 0e 01 01 00: 
             0x00000778: 00 00 00 00: 
             0x0000077c: 00 00 0f 00: 
             0x00000780: e7 08 00 00: 
             0x00000784: 20 01 01 00: 
             0x00000788: 00 00 00 00: 
             0x0000078c: 00 00 0f 00: 
             0x00000790: f7 08 00 00: 
             0x00000794: 22 01 01 00: 
             0x00000798: 00 00 00 00: 
             0x0000079c: 00 00 0f 00: 
             0x000007a0: 00 09 00 00: 
             0x000007a4: 2a 01 01 00: 
             0x000007a8: 00 00 00 00: 
             0x000007ac: 00 00 0f 00: 
             0x000007b0: 0f 09 00 00: 
             0x000007b4: 56 01 01 00: 
             0x000007b8: 00 00 00 00: 
             0x000007bc: 00 00 0f 00: 
             0x000007c0: 21 09 00 00: 
             0x000007c4: a2 01 01 00: 
             0x000007c8: 00 00 00 00: 
             0x000007cc: 00 00 0f 00: 
             0x000007d0: 34 09 00 00: 
             0x000007d4: b0 01 01 00: 
             0x000007d8: 00 00 00 00: 
             0x000007dc: 00 00 0f 00: 
             0x000007e0: 41 09 00 00: 
             0x000007e4: b4 01 01 00: 
             0x000007e8: 00 00 00 00: 
             0x000007ec: 00 00 0f 00: 
             0x000007f0: 58 09 00 00: 
             0x000007f4: 60 04 01 00: 
             0x000007f8: 00 00 00 00: 
             0x000007fc: 00 00 06 00: 
             0x00000800: 6d 09 00 00: 
             0x00000804: 94 04 01 00: 
             0x00000808: 00 00 00 00: 
             0x0000080c: 00 00 05 00: 
             0x00000810: 7e 09 00 00: 
             0x00000814: 90 04 01 00: 
             0x00000818: 00 00 00 00: 
             0x0000081c: 00 00 05 00: 
             0x00000820: 8f 09 00 00: 
             0x00000824: bc 01 01 00: 
             0x00000828: 00 00 00 00: 
             0x0000082c: 00 00 0f 00: 
             0x00000830: 9f 09 00 00: 
             0x00000834: ca 01 01 00: 
             0x00000838: 00 00 00 00: 
             0x0000083c: 00 00 0f 00: 
             0x00000840: b4 09 00 00: 
             0x00000844: ce 01 01 00: 
             0x00000848: 00 00 00 00: 
             0x0000084c: 00 00 0f 00: 
             0x00000850: c8 09 00 00: 
             0x00000854: d8 01 01 00: 
             0x00000858: 00 00 00 00: 
             0x0000085c: 00 00 0f 00: 
             0x00000860: d4 09 00 00: 
             0x00000864: e6 01 01 00: 
             0x00000868: 00 00 00 00: 
             0x0000086c: 00 00 0f 00: 
             0x00000870: e1 09 00 00: 
             0x00000874: ec 01 01 00: 
             0x00000878: 00 00 00 00: 
             0x0000087c: 00 00 0f 00: 
             0x00000880: f6 09 00 00: 
             0x00000884: 06 02 01 00: 
             0x00000888: 00 00 00 00: 
             0x0000088c: 00 00 0f 00: 
             0x00000890: 06 0a 00 00: 
             0x00000894: 0a 02 01 00: 
             0x00000898: 00 00 00 00: 
             0x0000089c: 00 00 0f 00: 
             0x000008a0: 15 0a 00 00: 
             0x000008a4: 18 02 01 00: 
             0x000008a8: 00 00 00 00: 
             0x000008ac: 00 00 0f 00: 
             0x000008b0: 1f 0a 00 00: 
             0x000008b4: 1a 02 01 00: 
             0x000008b8: 00 00 00 00: 
             0x000008bc: 00 00 0f 00: 
             0x000008c0: 2c 0a 00 00: 
             0x000008c4: 1c 02 01 00: 
             0x000008c8: 00 00 00 00: 
             0x000008cc: 00 00 0f 00: 
             0x000008d0: 41 0a 00 00: 
             0x000008d4: 26 02 01 00: 
             0x000008d8: 00 00 00 00: 
             0x000008dc: 00 00 0f 00: 
             0x000008e0: 54 0a 00 00: 
             0x000008e4: 2a 02 01 00: 
             0x000008e8: 00 00 00 00: 
             0x000008ec: 00 00 0f 00: 
             0x000008f0: 63 0a 00 00: 
             0x000008f4: 30 02 01 00: 
             0x000008f8: 00 00 00 00: 
             0x000008fc: 00 00 0f 00: 
             0x00000900: 6c 0a 00 00: 
             0x00000904: 38 02 01 00: 
             0x00000908: 00 00 00 00: 
             0x0000090c: 00 00 0f 00: 
             0x00000910: 7a 0a 00 00: 
             0x00000914: 50 02 01 00: 
             0x00000918: 00 00 00 00: 
             0x0000091c: 00 00 0f 00: 
             0x00000920: 86 0a 00 00: 
             0x00000924: 60 02 01 00: 
             0x00000928: 00 00 00 00: 
             0x0000092c: 00 00 0f 00: 
             0x00000930: 90 0a 00 00: 
             0x00000934: 62 02 01 00: 
             0x00000938: 00 00 00 00: 
             0x0000093c: 00 00 0f 00: 
             0x00000940: 99 0a 00 00: 
             0x00000944: 7c 02 01 00: 
             0x00000948: 00 00 00 00: 
             0x0000094c: 00 00 0f 00: 
             0x00000950: ab 0a 00 00: 
             0x00000954: 8a 02 01 00: 
             0x00000958: 00 00 00 00: 
             0x0000095c: 00 00 0f 00: 
             0x00000960: bb 0a 00 00: 
             0x00000964: 8e 02 01 00: 
             0x00000968: 00 00 00 00: 
             0x0000096c: 00 00 0f 00: 
             0x00000970: cd 0a 00 00: 
             0x00000974: 92 02 01 00: 
             0x00000978: 00 00 00 00: 
             0x0000097c: 00 00 0f 00: 
             0x00000980: da 0a 00 00: 
             0x00000984: 98 04 01 00: 
             0x00000988: 00 00 00 00: 
             0x0000098c: 00 00 05 00: 
             0x00000990: eb 0a 00 00: 
             0x00000994: 98 04 01 00: 
             0x00000998: 00 00 00 00: 
             0x0000099c: 00 00 05 00: 
             0x000009a0: fc 0a 00 00: 
             0x000009a4: 38 04 01 00: 
             0x000009a8: 00 00 00 00: 
             0x000009ac: 00 00 02 00: 
             0x000009b0: 0c 0b 00 00: 
             0x000009b4: 38 04 01 00: 
             0x000009b8: 00 00 00 00: 
             0x000009bc: 00 00 02 00: 
             0x000009c0: 20 0b 00 00: 
             0x000009c4: 3c 04 01 00: 
             0x000009c8: 00 00 00 00: 
             0x000009cc: 00 00 02 00: 
             0x000009d0: 34 0b 00 00: 
             0x000009d4: 40 04 01 00: 
             0x000009d8: 00 00 00 00: 
             0x000009dc: 00 00 02 00: 
             0x000009e0: 48 0b 00 00: 
             0x000009e4: 44 04 01 00: 
             0x000009e8: 00 00 00 00: 
             0x000009ec: 00 00 02 00: 
             0x000009f0: 5c 0b 00 00: 
             0x000009f4: 00 00 00 00: 
             0x000009f8: 00 00 00 00: 
             0x000009fc: 04 00 f1 ff: 
             0x00000a00: 68 0b 00 00: 
             0x00000a04: 01 00 00 00: 
             0x00000a08: 00 00 00 00: 
             0x00000a0c: 00 00 f1 ff: 
             0x00000a10: 82 0b 00 00: 
             0x00000a14: 00 00 00 00: 
             0x00000a18: 00 00 00 00: 
             0x00000a1c: 10 00 f1 ff: 
             0x00000a20: 9b 0b 00 00: 
             0x00000a24: 00 00 00 00: 
             0x00000a28: 00 00 00 00: 
             0x00000a2c: 10 00 f1 ff: 
             0x00000a30: b4 0b 00 00: 
             0x00000a34: 00 00 00 00: 
             0x00000a38: 00 00 00 00: 
             0x00000a3c: 10 00 f1 ff: 
             0x00000a40: cb 0b 00 00: 
             0x00000a44: 00 00 00 00: 
             0x00000a48: 00 00 00 00: 
             0x00000a4c: 10 00 f1 ff: 
             0x00000a50: e3 0b 00 00: 
             0x00000a54: 00 00 00 00: 
             0x00000a58: 00 00 00 00: 
             0x00000a5c: 04 00 f1 ff: 
             0x00000a60: 1a 0c 00 00: 
             0x00000a64: 78 03 01 00: 
             0x00000a68: 08 00 00 00: 
             0x00000a6c: 12 00 0f 00: 
             0x00000a70: 2b 0c 00 00: 
             0x00000a74: 88 03 01 00: 
             0x00000a78: 08 00 00 00: 
             0x00000a7c: 12 00 0f 00: 
             0x00000a80: 34 0c 00 00: 
             0x00000a84: 90 03 01 00: 
             0x00000a88: 0a 00 00 00: 
             0x00000a8c: 12 00 0f 00: 
             0x00000a90: 3a 0c 00 00: 
             0x00000a94: 01 00 00 00: 
             0x00000a98: 00 00 00 00: 
             0x00000a9c: 10 00 f1 ff: 
             0x00000aa0: 57 0c 00 00: 
             0x00000aa4: 01 00 00 00: 
             0x00000aa8: 00 00 00 00: 
             0x00000aac: 10 00 f1 ff: 
             0x00000ab0: 6c 0c 00 00: 
             0x00000ab4: 00 00 00 00: 
             0x00000ab8: 00 00 00 00: 
             0x00000abc: 10 00 f1 ff: 
             0x00000ac0: 7e 0c 00 00: 
             0x00000ac4: 01 00 00 00: 
             0x00000ac8: 00 00 00 00: 
             0x00000acc: 10 00 f1 ff: 
             0x00000ad0: 9a 0c 00 00: 
             0x00000ad4: 01 00 00 00: 
             0x00000ad8: 00 00 00 00: 
             0x00000adc: 10 00 f1 ff: 
             0x00000ae0: ae 0c 00 00: 
             0x00000ae4: 00 00 00 00: 
             0x00000ae8: 00 00 00 00: 
             0x00000aec: 10 00 f1 ff: 
             0x00000af0: bf 0c 00 00: 
             0x00000af4: 00 00 00 00: 
             0x00000af8: 00 00 00 00: 
             0x00000afc: 10 00 f1 ff: 
             0x00000b00: da 0c 00 00: 
             0x00000b04: 00 00 00 00: 
             0x00000b08: 00 00 00 00: 
             0x00000b0c: 10 00 f1 ff: 
             0x00000b10: ed 0c 00 00: 
             0x00000b14: 00 00 00 00: 
             0x00000b18: 00 00 00 00: 
             0x00000b1c: 10 00 f1 ff: 
             0x00000b20: fd 0c 00 00: 
             0x00000b24: 00 00 00 00: 
             0x00000b28: 00 00 00 00: 
             0x00000b2c: 10 00 f1 ff: 
             0x00000b30: 1a 0d 00 00: 
             0x00000b34: 00 00 00 00: 
             0x00000b38: 00 00 00 00: 
             0x00000b3c: 10 00 f1 ff: 
             0x00000b40: 2f 0d 00 00: 
             0x00000b44: 00 00 00 00: 
             0x00000b48: 00 00 00 00: 
             0x00000b4c: 10 00 f1 ff: 
             0x00000b50: 41 0d 00 00: 
             0x00000b54: 01 00 00 00: 
             0x00000b58: 00 00 00 00: 
             0x00000b5c: 00 00 f1 ff: 
             0x00000b60: 5a 0d 00 00: 
             0x00000b64: 01 00 00 00: 
             0x00000b68: 00 00 00 00: 
             0x00000b6c: 00 00 f1 ff: 
             0x00000b70: 70 0d 00 00: 
             0x00000b74: 00 00 00 00: 
             0x00000b78: 00 00 00 00: 
             0x00000b7c: 04 00 f1 ff: 
             0x00000b80: 77 0d 00 00: 
             0x00000b84: 01 00 00 00: 
             0x00000b88: 00 00 00 00: 
             0x00000b8c: 00 00 f1 ff: 
             0x00000b90: 8a 0d 00 00: 
             0x00000b94: 00 00 00 00: 
             0x00000b98: 00 00 00 00: 
             0x00000b9c: 10 00 f1 ff: 
             0x00000ba0: 9c 0d 00 00: 
             0x00000ba4: 00 00 00 00: 
             0x00000ba8: 00 00 00 00: 
             0x00000bac: 10 00 f1 ff: 
             0x00000bb0: ae 0d 00 00: 
             0x00000bb4: 00 00 00 00: 
             0x00000bb8: 00 00 00 00: 
             0x00000bbc: 10 00 f1 ff: 
             0x00000bc0: be 0d 00 00: 
             0x00000bc4: 00 00 00 00: 
             0x00000bc8: 00 00 00 00: 
             0x00000bcc: 10 00 f1 ff: 
             0x00000bd0: cf 0d 00 00: 
             0x00000bd4: 00 00 00 00: 
             0x00000bd8: 00 00 00 00: 
             0x00000bdc: 10 00 f1 ff: 
             0x00000be0: e6 0d 00 00: 
             0x00000be4: 00 00 00 00: 
             0x00000be8: 00 00 00 00: 
             0x00000bec: 10 00 f1 ff: 
             0x00000bf0: fd 0d 00 00: 
             0x00000bf4: 00 00 00 00: 
             0x00000bf8: 00 00 00 00: 
             0x00000bfc: 10 00 f1 ff: 
             0x00000c00: 12 0e 00 00: 
             0x00000c04: 00 00 00 00: 
             0x00000c08: 00 00 00 00: 
             0x00000c0c: 10 00 f1 ff: 
             0x00000c10: 28 0e 00 00: 
             0x00000c14: 74 03 01 00: 
             0x00000c18: 04 00 00 00: 
             0x00000c1c: 12 00 0f 00: 
             0x00000c20: 33 0e 00 00: 
             0x00000c24: 00 00 00 00: 
             0x00000c28: 00 00 00 00: 
             0x00000c2c: 04 00 f1 ff: 
             0x00000c30: 6a 0e 00 00: 
             0x00000c34: 01 00 00 00: 
             0x00000c38: 00 00 00 00: 
             0x00000c3c: 00 00 f1 ff: 
             0x00000c40: 86 0e 00 00: 
             0x00000c44: 01 00 00 00: 
             0x00000c48: 00 00 00 00: 
             0x00000c4c: 00 00 f1 ff: 
             0x00000c50: 9f 0e 00 00: 
             0x00000c54: 00 00 00 00: 
             0x00000c58: 00 00 00 00: 
             0x00000c5c: 04 00 f1 ff: 
             0x00000c60: d8 0e 00 00: 
             0x00000c64: 05 00 00 00: 
             0x00000c68: 00 00 00 00: 
             0x00000c6c: 10 00 f1 ff: 
             0x00000c70: eb 0e 00 00: 
             0x00000c74: 01 00 00 00: 
             0x00000c78: 00 00 00 00: 
             0x00000c7c: 10 00 f1 ff: 
             0x00000c80: fd 0e 00 00: 
             0x00000c84: 00 00 00 00: 
             0x00000c88: 00 00 00 00: 
             0x00000c8c: 10 00 f1 ff: 
             0x00000c90: 0e 0f 00 00: 
             0x00000c94: 00 00 00 00: 
             0x00000c98: 00 00 00 00: 
             0x00000c9c: 10 00 f1 ff: 
             0x00000ca0: 21 0f 00 00: 
             0x00000ca4: 01 00 00 00: 
             0x00000ca8: 00 00 00 00: 
             0x00000cac: 00 00 f1 ff: 
             0x00000cb0: 35 0f 00 00: 
             0x00000cb4: 01 00 00 00: 
             0x00000cb8: 00 00 00 00: 
             0x00000cbc: 00 00 f1 ff: 
             0x00000cc0: 46 0f 00 00: 
             0x00000cc4: 00 00 00 00: 
             0x00000cc8: 00 00 00 00: 
             0x00000ccc: 04 00 f1 ff: 
             0x00000cd0: 73 0f 00 00: 
             0x00000cd4: 00 00 00 00: 
             0x00000cd8: 00 00 00 00: 
             0x00000cdc: 04 00 f1 ff: 
             0x00000ce0: 7d 0f 00 00: 
             0x00000ce4: 00 00 00 00: 
             0x00000ce8: 00 00 00 00: 
             0x00000cec: 04 00 f1 ff: 
             0x00000cf0: bd 0f 00 00: 
             0x00000cf4: 30 04 01 00: 
             0x00000cf8: 02 00 00 00: 
             0x00000cfc: 22 00 0a 00: 
             0x00000d00: d3 0f 00 00: 
             0x00000d04: 00 00 00 00: 
             0x00000d08: 00 00 00 00: 
             0x00000d0c: 20 00 f1 ff: 
             0x00000d10: f5 0f 00 00: 
             0x00000d14: 01 00 00 00: 
             0x00000d18: 00 00 00 00: 
             0x00000d1c: 20 00 f1 ff: 
             0x00000d20: 16 10 00 00: 
             0x00000d24: 00 00 00 00: 
             0x00000d28: 00 00 00 00: 
             0x00000d2c: 20 00 f1 ff: 
             0x00000d30: 36 10 00 00: 
             0x00000d34: 00 00 00 00: 
             0x00000d38: 00 00 00 00: 
             0x00000d3c: 20 00 f1 ff: 
             0x00000d40: 58 10 00 00: 
             0x00000d44: 01 00 00 00: 
             0x00000d48: 00 00 00 00: 
             0x00000d4c: 00 00 f1 ff: 
             0x00000d50: 7b 10 00 00: 
             0x00000d54: 01 00 00 00: 
             0x00000d58: 00 00 00 00: 
             0x00000d5c: 00 00 f1 ff: 
             0x00000d60: 9b 10 00 00: 
             0x00000d64: 01 00 00 00: 
             0x00000d68: 00 00 00 00: 
             0x00000d6c: 00 00 f1 ff: 
             0x00000d70: b9 10 00 00: 
             0x00000d74: 01 00 00 00: 
             0x00000d78: 00 00 00 00: 
             0x00000d7c: 00 00 f1 ff: 
             0x00000d80: d4 10 00 00: 
             0x00000d84: 00 00 00 00: 
             0x00000d88: 00 00 00 00: 
             0x00000d8c: 04 00 f1 ff: 
             0x00000d90: 07 11 00 00: 
             0x00000d94: 00 00 00 00: 
             0x00000d98: 00 00 00 00: 
             0x00000d9c: 10 00 f1 ff: 
             0x00000da0: 27 11 00 00: 
             0x00000da4: 01 00 00 00: 
             0x00000da8: 00 00 00 00: 
             0x00000dac: 10 00 f1 ff: 
             0x00000db0: 46 11 00 00: 
             0x00000db4: 00 00 00 00: 
             0x00000db8: 00 00 00 00: 
             0x00000dbc: 10 00 f1 ff: 
             0x00000dc0: 64 11 00 00: 
             0x00000dc4: 00 00 00 00: 
             0x00000dc8: 00 00 00 00: 
             0x00000dcc: 10 00 f1 ff: 
             0x00000dd0: 84 11 00 00: 
             0x00000dd4: 01 00 00 00: 
             0x00000dd8: 00 00 00 00: 
             0x00000ddc: 00 00 f1 ff: 
             0x00000de0: a5 11 00 00: 
             0x00000de4: 01 00 00 00: 
             0x00000de8: 00 00 00 00: 
             0x00000dec: 00 00 f1 ff: 
             0x00000df0: c3 11 00 00: 
             0x00000df4: 98 04 01 00: 
             0x00000df8: 04 00 00 00: 
             0x00000dfc: 11 00 05 00: 
             0x00000e00: d1 11 00 00: 
             0x00000e04: 00 00 00 00: 
             0x00000e08: 00 00 00 00: 
             0x00000e0c: 04 00 f1 ff: 
             0x00000e10: 0b 12 00 00: 
             0x00000e14: 32 04 01 00: 
             0x00000e18: 02 00 00 00: 
             0x00000e1c: 22 00 0b 00: 
             0x00000e20: 19 12 00 00: 
             0x00000e24: 00 00 00 00: 
             0x00000e28: 00 00 00 00: 
             0x00000e2c: 20 00 f1 ff: 
             0x00000e30: 33 12 00 00: 
             0x00000e34: 01 00 00 00: 
             0x00000e38: 00 00 00 00: 
             0x00000e3c: 20 00 f1 ff: 
             0x00000e40: 4c 12 00 00: 
             0x00000e44: 00 00 00 00: 
             0x00000e48: 00 00 00 00: 
             0x00000e4c: 20 00 f1 ff: 
             0x00000e50: 64 12 00 00: 
             0x00000e54: 00 00 00 00: 
             0x00000e58: 00 00 00 00: 
             0x00000e5c: 20 00 f1 ff: 
             0x00000e60: 7e 12 00 00: 
             0x00000e64: 01 00 00 00: 
             0x00000e68: 00 00 00 00: 
             0x00000e6c: 00 00 f1 ff: 
             0x00000e70: 99 12 00 00: 
             0x00000e74: 01 00 00 00: 
             0x00000e78: 00 00 00 00: 
             0x00000e7c: 00 00 f1 ff: 
             0x00000e80: b1 12 00 00: 
             0x00000e84: 01 00 00 00: 
             0x00000e88: 00 00 00 00: 
             0x00000e8c: 00 00 f1 ff: 
             0x00000e90: c7 12 00 00: 
             0x00000e94: 01 00 00 00: 
             0x00000e98: 00 00 00 00: 
             0x00000e9c: 00 00 f1 ff: 
             0x00000ea0: da 12 00 00: 
             0x00000ea4: 00 00 00 00: 
             0x00000ea8: 00 00 00 00: 
             0x00000eac: 04 00 f1 ff: 
             0x00000eb0: e1 12 00 00: 
             0x00000eb4: 01 00 00 00: 
             0x00000eb8: 00 00 00 00: 
             0x00000ebc: 00 00 f1 ff: 
             0x00000ec0: f4 12 00 00: 
             0x00000ec4: 00 00 00 00: 
             0x00000ec8: 00 00 00 00: 
             0x00000ecc: 04 00 f1 ff: 
             0x00000ed0: fd 12 00 00: 
             0x00000ed4: 84 04 01 00: 
             0x00000ed8: 00 00 00 00: 
             0x00000edc: 00 00 06 00: 
             0x00000ee0: 0b 13 00 00: 
             0x00000ee4: 88 04 01 00: 
             0x00000ee8: 00 00 00 00: 
             0x00000eec: 00 00 06 00: 
             0x00000ef0: 16 13 00 00: 
             0x00000ef4: 54 04 01 00: 
             0x00000ef8: 00 00 00 00: 
             0x00000efc: 10 00 04 00: 
             0x00000f00: 21 13 00 00: 
             0x00000f04: ea 03 01 00: 
             0x00000f08: 00 00 00 00: 
             0x00000f0c: 00 00 0c 00: 
             0x00000f10: 2f 13 00 00: 
             0x00000f14: f4 03 01 00: 
             0x00000f18: 00 00 00 00: 
             0x00000f1c: 00 00 0c 00: 
             0x00000f20: 3c 13 00 00: 
             0x00000f24: 9c 04 01 00: 
             0x00000f28: 00 00 00 00: 
             0x00000f2c: 00 00 05 00: 
             0x00000f30: 48 13 00 00: 
             0x00000f34: 8c 04 01 00: 
             0x00000f38: 00 00 00 00: 
             0x00000f3c: 10 00 08 00: 
             0x00000f40: 59 13 00 00: 
             0x00000f44: 00 00 00 00: 
             0x00000f48: 00 00 00 00: 
             0x00000f4c: 04 00 f1 ff: 
             0x00000f50: 60 13 00 00: 
             0x00000f54: 00 00 01 00: 
             0x00000f58: 00 00 00 00: 
             0x00000f5c: 10 00 f1 ff: 
             0x00000f60: 6a 13 00 00: 
             0x00000f64: 38 04 01 00: 
             0x00000f68: 00 00 00 00: 
             0x00000f6c: 00 00 02 00: 
             0x00000f70: 70 13 00 00: 
             0x00000f74: 3c 04 01 00: 
             0x00000f78: 00 00 00 00: 
             0x00000f7c: 00 00 02 00: 
             0x00000f80: 76 13 00 00: 
             0x00000f84: 40 04 01 00: 
             0x00000f88: 00 00 00 00: 
             0x00000f8c: 00 00 02 00: 
             0x00000f90: 7c 13 00 00: 
             0x00000f94: 44 04 01 00: 
             0x00000f98: 00 00 00 00: 
             0x00000f9c: 00 00 02 00: 
             0x00000fa0: 82 13 00 00: 
             0x00000fa4: 48 04 01 00: 
             0x00000fa8: 00 00 00 00: 
             0x00000fac: 00 00 02 00: 
             0x00000fb0: 88 13 00 00: 
             0x00000fb4: 4c 04 01 00: 
             0x00000fb8: 00 00 00 00: 
             0x00000fbc: 00 00 02 00: 
             0x00000fc0: 8e 13 00 00: 
             0x00000fc4: 50 04 01 00: 
             0x00000fc8: 00 00 00 00: 
             0x00000fcc: 00 00 02 00: 

Disassembly of section section .strtab (size: 5136)

             0x00000000: 00 2e 62 73: 
             0x00000004: 73 00 2e 63: 
             0x00000008: 70 2e 63 6f: 
             0x0000000c: 6e 73 74 34: 
             0x00000010: 00 2e 63 70: 
             0x00000014: 2e 72 6f 64: 
             0x00000018: 61 74 61 00: 
             0x0000001c: 2e 63 74 6f: 
             0x00000020: 72 73 00 2e: 
             0x00000024: 64 70 2e 62: 
             0x00000028: 73 73 00 2e: 
             0x0000002c: 64 70 2e 64: 
             0x00000030: 61 74 61 00: 
             0x00000034: 2e 64 74 6f: 
             0x00000038: 72 73 00 2e: 
             0x0000003c: 65 68 5f 66: 
             0x00000040: 72 61 6d 65: 
             0x00000044: 00 2e 66 69: 
             0x00000048: 6e 69 00 2e: 
             0x0000004c: 67 6e 75 2e: 
             0x00000050: 6c 69 6e 6b: 
             0x00000054: 6f 6e 63 65: 
             0x00000058: 2e 74 2e 5f: 
             0x0000005c: 5f 63 61 6c: 
             0x00000060: 6c 5f 65 78: 
             0x00000064: 69 74 70 72: 
             0x00000068: 6f 63 73 5f: 
             0x0000006c: 69 6d 70 6c: 
             0x00000070: 00 2e 67 6e: 
             0x00000074: 75 2e 6c 69: 
             0x00000078: 6e 6b 6f 6e: 
             0x0000007c: 63 65 2e 74: 
             0x00000080: 2e 5f 63 6c: 
             0x00000084: 65 61 6e 75: 
             0x00000088: 70 5f 69 6d: 
             0x0000008c: 70 6c 00 2e: 
             0x00000090: 69 6e 69 74: 
             0x00000094: 00 2e 6e 65: 
             0x00000098: 74 69 6e 66: 
             0x0000009c: 6f 00 2e 72: 
             0x000000a0: 6f 64 61 74: 
             0x000000a4: 61 00 2e 74: 
             0x000000a8: 65 78 74 00: 
             0x000000ac: 2e 78 74 61: 
             0x000000b0: 62 72 61 6e: 
             0x000000b4: 63 68 00 2e: 
             0x000000b8: 78 74 61 65: 
             0x000000bc: 6e 64 70 6f: 
             0x000000c0: 69 6e 74 74: 
             0x000000c4: 61 62 6c 65: 
             0x000000c8: 00 2e 78 74: 
             0x000000cc: 61 6c 61 62: 
             0x000000d0: 65 6c 74 61: 
             0x000000d4: 62 6c 65 00: 
             0x000000d8: 2e 78 74 61: 
             0x000000dc: 73 79 73 74: 
             0x000000e0: 65 6d 00 2e: 
             0x000000e4: 78 74 61 74: 
             0x000000e8: 68 72 65 61: 
             0x000000ec: 64 73 74 61: 
             0x000000f0: 72 74 00 2e: 
             0x000000f4: 78 74 61 74: 
             0x000000f8: 68 72 65 61: 
             0x000000fc: 64 73 74 6f: 
             0x00000100: 70 00 5f 63: 
             0x00000104: 70 00 5f 64: 
             0x00000108: 70 00 5f 66: 
             0x0000010c: 62 73 73 00: 
             0x00000110: 5f 66 64 70: 
             0x00000114: 2e 62 73 73: 
             0x00000118: 00 5f 43 54: 
             0x0000011c: 4f 52 5f 4c: 
             0x00000120: 49 53 54 5f: 
             0x00000124: 00 5f 44 54: 
             0x00000128: 4f 52 5f 4c: 
             0x0000012c: 49 53 54 5f: 
             0x00000130: 00 5f 78 73: 
             0x00000134: 31 5f 74 69: 
             0x00000138: 6d 65 72 5f: 
             0x0000013c: 68 7a 00 5f: 
             0x00000140: 64 65 66 61: 
             0x00000144: 75 6c 74 5f: 
             0x00000148: 63 6c 6b 62: 
             0x0000014c: 6c 6b 00 63: 
             0x00000150: 72 74 31 2e: 
             0x00000154: 53 00 5f 65: 
             0x00000158: 68 65 61 70: 
             0x0000015c: 00 5f 62 68: 
             0x00000160: 65 61 70 00: 
             0x00000164: 6d 61 69 6e: 
             0x00000168: 2e 6e 73 74: 
             0x0000016c: 61 63 6b 77: 
             0x00000170: 6f 72 64 73: 
             0x00000174: 00 6d 61 69: 
             0x00000178: 6e 2e 6e 73: 
             0x0000017c: 74 61 63 6b: 
             0x00000180: 77 6f 72 64: 
             0x00000184: 73 2e 64 65: 
             0x00000188: 66 69 6e 65: 
             0x0000018c: 64 00 5f 73: 
             0x00000190: 74 61 72 74: 
             0x00000194: 00 2e 72 61: 
             0x00000198: 6d 5f 73 69: 
             0x0000019c: 7a 65 00 5f: 
             0x000001a0: 65 64 70 2e: 
             0x000001a4: 62 73 73 00: 
             0x000001a8: 5f 53 65 74: 
             0x000001ac: 75 70 54 72: 
             0x000001b0: 61 70 73 00: 
             0x000001b4: 5f 47 65 74: 
             0x000001b8: 52 61 6d 45: 
             0x000001bc: 6e 64 00 5f: 
             0x000001c0: 49 6e 69 74: 
             0x000001c4: 54 68 72 65: 
             0x000001c8: 61 64 00 5f: 
             0x000001cc: 54 6f 75 63: 
             0x000001d0: 68 52 65 67: 
             0x000001d4: 69 73 74 65: 
             0x000001d8: 72 73 00 5f: 
             0x000001dc: 69 6e 69 74: 
             0x000001e0: 00 6d 61 69: 
             0x000001e4: 6e 00 5f 5f: 
             0x000001e8: 6c 69 62 63: 
             0x000001ec: 5f 64 6f 6e: 
             0x000001f0: 65 00 5f 65: 
             0x000001f4: 78 69 74 5f: 
             0x000001f8: 75 6e 6c 6f: 
             0x000001fc: 63 6b 65 64: 
             0x00000200: 00 5f 73 74: 
             0x00000204: 61 72 74 2e: 
             0x00000208: 6e 73 74 61: 
             0x0000020c: 63 6b 77 6f: 
             0x00000210: 72 64 73 00: 
             0x00000214: 5f 73 74 61: 
             0x00000218: 72 74 2e 6d: 
             0x0000021c: 61 78 74 68: 
             0x00000220: 72 65 61 64: 
             0x00000224: 73 00 5f 73: 
             0x00000228: 74 61 72 74: 
             0x0000022c: 2e 6d 61 78: 
             0x00000230: 74 69 6d 65: 
             0x00000234: 72 73 00 5f: 
             0x00000238: 73 74 61 72: 
             0x0000023c: 74 2e 6d 61: 
             0x00000240: 78 63 68 61: 
             0x00000244: 6e 65 6e 64: 
             0x00000248: 73 00 5f 53: 
             0x0000024c: 65 74 75 70: 
             0x00000250: 54 72 61 70: 
             0x00000254: 73 2e 6e 73: 
             0x00000258: 74 61 63 6b: 
             0x0000025c: 77 6f 72 64: 
             0x00000260: 73 00 5f 47: 
             0x00000264: 65 74 52 61: 
             0x00000268: 6d 45 6e 64: 
             0x0000026c: 2e 6e 73 74: 
             0x00000270: 61 63 6b 77: 
             0x00000274: 6f 72 64 73: 
             0x00000278: 00 5f 49 6e: 
             0x0000027c: 69 74 54 68: 
             0x00000280: 72 65 61 64: 
             0x00000284: 2e 6e 73 74: 
             0x00000288: 61 63 6b 77: 
             0x0000028c: 6f 72 64 73: 
             0x00000290: 00 5f 54 6f: 
             0x00000294: 75 63 68 52: 
             0x00000298: 65 67 69 73: 
             0x0000029c: 74 65 72 73: 
             0x000002a0: 2e 6e 73 74: 
             0x000002a4: 61 63 6b 77: 
             0x000002a8: 6f 72 64 73: 
             0x000002ac: 00 5f 69 6e: 
             0x000002b0: 69 74 2e 6e: 
             0x000002b4: 73 74 61 63: 
             0x000002b8: 6b 77 6f 72: 
             0x000002bc: 64 73 00 5f: 
             0x000002c0: 5f 6c 69 62: 
             0x000002c4: 63 5f 64 6f: 
             0x000002c8: 6e 65 2e 6e: 
             0x000002cc: 73 74 61 63: 
             0x000002d0: 6b 77 6f 72: 
             0x000002d4: 64 73 00 5f: 
             0x000002d8: 65 78 69 74: 
             0x000002dc: 5f 75 6e 6c: 
             0x000002e0: 6f 63 6b 65: 
             0x000002e4: 64 2e 6e 73: 
             0x000002e8: 74 61 63 6b: 
             0x000002ec: 77 6f 72 64: 
             0x000002f0: 73 00 5f 53: 
             0x000002f4: 65 74 75 70: 
             0x000002f8: 54 72 61 70: 
             0x000002fc: 73 2e 6d 61: 
             0x00000300: 78 74 68 72: 
             0x00000304: 65 61 64 73: 
             0x00000308: 00 5f 47 65: 
             0x0000030c: 74 52 61 6d: 
             0x00000310: 45 6e 64 2e: 
             0x00000314: 6d 61 78 74: 
             0x00000318: 68 72 65 61: 
             0x0000031c: 64 73 00 5f: 
             0x00000320: 49 6e 69 74: 
             0x00000324: 54 68 72 65: 
             0x00000328: 61 64 2e 6d: 
             0x0000032c: 61 78 74 68: 
             0x00000330: 72 65 61 64: 
             0x00000334: 73 00 5f 54: 
             0x00000338: 6f 75 63 68: 
             0x0000033c: 52 65 67 69: 
             0x00000340: 73 74 65 72: 
             0x00000344: 73 2e 6d 61: 
             0x00000348: 78 74 68 72: 
             0x0000034c: 65 61 64 73: 
             0x00000350: 00 5f 69 6e: 
             0x00000354: 69 74 2e 6d: 
             0x00000358: 61 78 74 68: 
             0x0000035c: 72 65 61 64: 
             0x00000360: 73 00 6d 61: 
             0x00000364: 69 6e 2e 6d: 
             0x00000368: 61 78 74 68: 
             0x0000036c: 72 65 61 64: 
             0x00000370: 73 00 5f 5f: 
             0x00000374: 6c 69 62 63: 
             0x00000378: 5f 64 6f 6e: 
             0x0000037c: 65 2e 6d 61: 
             0x00000380: 78 74 68 72: 
             0x00000384: 65 61 64 73: 
             0x00000388: 00 5f 65 78: 
             0x0000038c: 69 74 5f 75: 
             0x00000390: 6e 6c 6f 63: 
             0x00000394: 6b 65 64 2e: 
             0x00000398: 6d 61 78 74: 
             0x0000039c: 68 72 65 61: 
             0x000003a0: 64 73 00 5f: 
             0x000003a4: 53 65 74 75: 
             0x000003a8: 70 54 72 61: 
             0x000003ac: 70 73 2e 6d: 
             0x000003b0: 61 78 74 69: 
             0x000003b4: 6d 65 72 73: 
             0x000003b8: 00 5f 47 65: 
             0x000003bc: 74 52 61 6d: 
             0x000003c0: 45 6e 64 2e: 
             0x000003c4: 6d 61 78 74: 
             0x000003c8: 69 6d 65 72: 
             0x000003cc: 73 00 5f 49: 
             0x000003d0: 6e 69 74 54: 
             0x000003d4: 68 72 65 61: 
             0x000003d8: 64 2e 6d 61: 
             0x000003dc: 78 74 69 6d: 
             0x000003e0: 65 72 73 00: 
             0x000003e4: 5f 54 6f 75: 
             0x000003e8: 63 68 52 65: 
             0x000003ec: 67 69 73 74: 
             0x000003f0: 65 72 73 2e: 
             0x000003f4: 6d 61 78 74: 
             0x000003f8: 69 6d 65 72: 
             0x000003fc: 73 00 5f 69: 
             0x00000400: 6e 69 74 2e: 
             0x00000404: 6d 61 78 74: 
             0x00000408: 69 6d 65 72: 
             0x0000040c: 73 00 6d 61: 
             0x00000410: 69 6e 2e 6d: 
             0x00000414: 61 78 74 69: 
             0x00000418: 6d 65 72 73: 
             0x0000041c: 00 5f 5f 6c: 
             0x00000420: 69 62 63 5f: 
             0x00000424: 64 6f 6e 65: 
             0x00000428: 2e 6d 61 78: 
             0x0000042c: 74 69 6d 65: 
             0x00000430: 72 73 00 5f: 
             0x00000434: 65 78 69 74: 
             0x00000438: 5f 75 6e 6c: 
             0x0000043c: 6f 63 6b 65: 
             0x00000440: 64 2e 6d 61: 
             0x00000444: 78 74 69 6d: 
             0x00000448: 65 72 73 00: 
             0x0000044c: 5f 53 65 74: 
             0x00000450: 75 70 54 72: 
             0x00000454: 61 70 73 2e: 
             0x00000458: 6d 61 78 63: 
             0x0000045c: 68 61 6e 65: 
             0x00000460: 6e 64 73 00: 
             0x00000464: 5f 47 65 74: 
             0x00000468: 52 61 6d 45: 
             0x0000046c: 6e 64 2e 6d: 
             0x00000470: 61 78 63 68: 
             0x00000474: 61 6e 65 6e: 
             0x00000478: 64 73 00 5f: 
             0x0000047c: 49 6e 69 74: 
             0x00000480: 54 68 72 65: 
             0x00000484: 61 64 2e 6d: 
             0x00000488: 61 78 63 68: 
             0x0000048c: 61 6e 65 6e: 
             0x00000490: 64 73 00 5f: 
             0x00000494: 54 6f 75 63: 
             0x00000498: 68 52 65 67: 
             0x0000049c: 69 73 74 65: 
             0x000004a0: 72 73 2e 6d: 
             0x000004a4: 61 78 63 68: 
             0x000004a8: 61 6e 65 6e: 
             0x000004ac: 64 73 00 5f: 
             0x000004b0: 69 6e 69 74: 
             0x000004b4: 2e 6d 61 78: 
             0x000004b8: 63 68 61 6e: 
             0x000004bc: 65 6e 64 73: 
             0x000004c0: 00 6d 61 69: 
             0x000004c4: 6e 2e 6d 61: 
             0x000004c8: 78 63 68 61: 
             0x000004cc: 6e 65 6e 64: 
             0x000004d0: 73 00 5f 5f: 
             0x000004d4: 6c 69 62 63: 
             0x000004d8: 5f 64 6f 6e: 
             0x000004dc: 65 2e 6d 61: 
             0x000004e0: 78 63 68 61: 
             0x000004e4: 6e 65 6e 64: 
             0x000004e8: 73 00 5f 65: 
             0x000004ec: 78 69 74 5f: 
             0x000004f0: 75 6e 6c 6f: 
             0x000004f4: 63 6b 65 64: 
             0x000004f8: 2e 6d 61 78: 
             0x000004fc: 63 68 61 6e: 
             0x00000500: 65 6e 64 73: 
             0x00000504: 00 5f 49 6e: 
             0x00000508: 69 74 54 68: 
             0x0000050c: 72 65 61 64: 
             0x00000510: 4c 6f 6f 70: 
             0x00000514: 00 5f 45 78: 
             0x00000518: 69 74 57 69: 
             0x0000051c: 74 68 45 72: 
             0x00000520: 72 6f 72 00: 
             0x00000524: 5f 4a 6f 69: 
             0x00000528: 6e 00 5f 4e: 
             0x0000052c: 6f 6e 5a 65: 
             0x00000530: 72 6f 52 65: 
             0x00000534: 74 75 72 6e: 
             0x00000538: 00 5f 54 72: 
             0x0000053c: 61 70 48 61: 
             0x00000540: 6e 64 6c 65: 
             0x00000544: 72 00 5f 49: 
             0x00000548: 6e 69 74 54: 
             0x0000054c: 68 72 65 61: 
             0x00000550: 64 52 6f 75: 
             0x00000554: 74 69 6e 65: 
             0x00000558: 00 5f 5f 61: 
             0x0000055c: 6c 6c 6f 63: 
             0x00000560: 5f 6c 69 62: 
             0x00000564: 63 5f 68 77: 
             0x00000568: 6c 6f 63 6b: 
             0x0000056c: 00 5f 5f 72: 
             0x00000570: 65 67 69 73: 
             0x00000574: 74 65 72 5f: 
             0x00000578: 66 72 61 6d: 
             0x0000057c: 65 5f 69 6e: 
             0x00000580: 66 6f 5f 62: 
             0x00000584: 61 73 65 73: 
             0x00000588: 00 5f 5f 66: 
             0x0000058c: 72 65 65 5f: 
             0x00000590: 6c 69 62 63: 
             0x00000594: 5f 68 77 6c: 
             0x00000598: 6f 63 6b 00: 
             0x0000059c: 5f 66 69 6e: 
             0x000005a0: 69 00 5f 66: 
             0x000005a4: 69 6e 69 2e: 
             0x000005a8: 6e 73 74 61: 
             0x000005ac: 63 6b 77 6f: 
             0x000005b0: 72 64 73 00: 
             0x000005b4: 5f 66 69 6e: 
             0x000005b8: 69 2e 6d 61: 
             0x000005bc: 78 63 68 61: 
             0x000005c0: 6e 65 6e 64: 
             0x000005c4: 73 00 5f 66: 
             0x000005c8: 69 6e 69 2e: 
             0x000005cc: 6d 61 78 74: 
             0x000005d0: 69 6d 65 72: 
             0x000005d4: 73 00 5f 66: 
             0x000005d8: 69 6e 69 2e: 
             0x000005dc: 6d 61 78 74: 
             0x000005e0: 68 72 65 61: 
             0x000005e4: 64 73 00 5f: 
             0x000005e8: 52 61 6d 53: 
             0x000005ec: 69 7a 65 00: 
             0x000005f0: 5f 4e 75 6c: 
             0x000005f4: 6c 50 74 72: 
             0x000005f8: 00 5f 65 78: 
             0x000005fc: 69 74 00 5f: 
             0x00000600: 44 6f 45 78: 
             0x00000604: 63 65 70 74: 
             0x00000608: 69 6f 6e 00: 
             0x0000060c: 5f 65 62 73: 
             0x00000610: 73 00 6d 65: 
             0x00000614: 6d 73 65 74: 
             0x00000618: 00 63 72 74: 
             0x0000061c: 62 65 67 69: 
             0x00000620: 6e 2e 73 00: 
             0x00000624: 64 74 6f 72: 
             0x00000628: 5f 6c 69 73: 
             0x0000062c: 74 5f 70 74: 
             0x00000630: 72 00 64 74: 
             0x00000634: 6f 72 73 5f: 
             0x00000638: 73 69 7a 65: 
             0x0000063c: 00 5f 44 54: 
             0x00000640: 4f 52 5f 45: 
             0x00000644: 4e 44 5f 00: 
             0x00000648: 64 6f 5f 64: 
             0x0000064c: 74 6f 72 73: 
             0x00000650: 5f 6c 6f 6f: 
             0x00000654: 70 00 64 6f: 
             0x00000658: 5f 64 74 6f: 
             0x0000065c: 72 73 5f 65: 
             0x00000660: 6e 64 00 5f: 
             0x00000664: 5f 45 48 5f: 
             0x00000668: 46 52 41 4d: 
             0x0000066c: 45 5f 42 45: 
             0x00000670: 47 49 4e 5f: 
             0x00000674: 5f 00 73 65: 
             0x00000678: 6c 65 63 74: 
             0x0000067c: 2e 78 63 00: 
             0x00000680: 5f 5f 62 75: 
             0x00000684: 69 6c 74 69: 
             0x00000688: 6e 5f 74 69: 
             0x0000068c: 6d 65 72 5f: 
             0x00000690: 61 66 74 65: 
             0x00000694: 72 00 5f 5f: 
             0x00000698: 62 75 69 6c: 
             0x0000069c: 74 69 6e 5f: 
             0x000006a0: 74 69 6d 65: 
             0x000006a4: 72 5f 61 66: 
             0x000006a8: 74 65 72 2e: 
             0x000006ac: 6c 6f 63 6e: 
             0x000006b0: 6f 73 69 64: 
             0x000006b4: 65 00 5f 5f: 
             0x000006b8: 62 75 69 6c: 
             0x000006bc: 74 69 6e 5f: 
             0x000006c0: 74 69 6d 65: 
             0x000006c4: 72 5f 61 66: 
             0x000006c8: 74 65 72 2e: 
             0x000006cc: 6c 6f 63 6e: 
             0x000006d0: 6f 63 68 61: 
             0x000006d4: 6e 64 65 63: 
             0x000006d8: 00 6d 61 69: 
             0x000006dc: 6e 2e 70 61: 
             0x000006e0: 72 69 6e 66: 
             0x000006e4: 6f 2e 64 65: 
             0x000006e8: 62 75 67 73: 
             0x000006ec: 74 72 69 6e: 
             0x000006f0: 67 30 00 6d: 
             0x000006f4: 61 69 6e 2e: 
             0x000006f8: 70 61 72 69: 
             0x000006fc: 6e 66 6f 2e: 
             0x00000700: 64 65 62 75: 
             0x00000704: 67 73 74 72: 
             0x00000708: 69 6e 67 31: 
             0x0000070c: 00 5f 5f 6d: 
             0x00000710: 61 69 6e 5f: 
             0x00000714: 64 65 66 61: 
             0x00000718: 75 6c 74 5f: 
             0x0000071c: 6e 65 74 77: 
             0x00000720: 6f 72 6b 00: 
             0x00000724: 5f 5f 6d 61: 
             0x00000728: 69 6e 5f 78: 
             0x0000072c: 6d 5f 30 00: 
             0x00000730: 73 74 64 63: 
             0x00000734: 6f 72 65 00: 
             0x00000738: 5f 5f 6d 61: 
             0x0000073c: 69 6e 5f 78: 
             0x00000740: 6d 5f 30 2e: 
             0x00000744: 6e 73 74 61: 
             0x00000748: 63 6b 77 6f: 
             0x0000074c: 72 64 73 00: 
             0x00000750: 5f 5f 6d 61: 
             0x00000754: 69 6e 5f 78: 
             0x00000758: 6d 5f 30 2e: 
             0x0000075c: 6d 61 78 74: 
             0x00000760: 68 72 65 61: 
             0x00000764: 64 73 00 5f: 
             0x00000768: 5f 6d 61 69: 
             0x0000076c: 6e 5f 78 6d: 
             0x00000770: 5f 30 2e 6d: 
             0x00000774: 61 78 74 69: 
             0x00000778: 6d 65 72 73: 
             0x0000077c: 00 5f 5f 6d: 
             0x00000780: 61 69 6e 5f: 
             0x00000784: 78 6d 5f 30: 
             0x00000788: 2e 6d 61 78: 
             0x0000078c: 63 68 61 6e: 
             0x00000790: 65 6e 64 73: 
             0x00000794: 00 5f 5f 6d: 
             0x00000798: 61 69 6e 5f: 
             0x0000079c: 78 6d 5f 30: 
             0x000007a0: 2e 6c 6f 63: 
             0x000007a4: 6e 6f 73 69: 
             0x000007a8: 64 65 00 5f: 
             0x000007ac: 5f 6d 61 69: 
             0x000007b0: 6e 5f 78 6d: 
             0x000007b4: 5f 30 2e 6c: 
             0x000007b8: 6f 63 6e 6f: 
             0x000007bc: 63 68 61 6e: 
             0x000007c0: 64 65 63 00: 
             0x000007c4: 73 74 61 72: 
             0x000007c8: 74 74 72 61: 
             0x000007cc: 63 65 30 00: 
             0x000007d0: 65 6e 64 74: 
             0x000007d4: 72 61 63 65: 
             0x000007d8: 30 00 74 68: 
             0x000007dc: 72 65 61 64: 
             0x000007e0: 2e 61 6e 6f: 
             0x000007e4: 6e 2e 30 00: 
             0x000007e8: 74 68 72 65: 
             0x000007ec: 61 64 2e 61: 
             0x000007f0: 6e 6f 6e 2e: 
             0x000007f4: 31 00 74 68: 
             0x000007f8: 72 65 61 64: 
             0x000007fc: 2e 61 6e 6f: 
             0x00000800: 6e 2e 32 00: 
             0x00000804: 74 68 72 65: 
             0x00000808: 61 64 2e 61: 
             0x0000080c: 6e 6f 6e 2e: 
             0x00000810: 33 00 74 68: 
             0x00000814: 72 65 61 64: 
             0x00000818: 2e 61 6e 6f: 
             0x0000081c: 6e 2e 34 00: 
             0x00000820: 5f 5f 6d 63: 
             0x00000824: 6d 61 69 6e: 
             0x00000828: 30 30 30 30: 
             0x0000082c: 30 30 00 5f: 
             0x00000830: 5f 6d 63 6d: 
             0x00000834: 61 69 6e 30: 
             0x00000838: 30 30 30 30: 
             0x0000083c: 30 2e 6e 73: 
             0x00000840: 74 61 63 6b: 
             0x00000844: 77 6f 72 64: 
             0x00000848: 73 00 5f 5f: 
             0x0000084c: 6d 63 6d 61: 
             0x00000850: 69 6e 30 30: 
             0x00000854: 30 30 30 30: 
             0x00000858: 2e 6d 61 78: 
             0x0000085c: 74 68 72 65: 
             0x00000860: 61 64 73 00: 
             0x00000864: 5f 5f 6d 63: 
             0x00000868: 6d 61 69 6e: 
             0x0000086c: 30 30 30 30: 
             0x00000870: 30 30 2e 6d: 
             0x00000874: 61 78 74 69: 
             0x00000878: 6d 65 72 73: 
             0x0000087c: 00 5f 5f 6d: 
             0x00000880: 63 6d 61 69: 
             0x00000884: 6e 30 30 30: 
             0x00000888: 30 30 30 2e: 
             0x0000088c: 6d 61 78 63: 
             0x00000890: 68 61 6e 65: 
             0x00000894: 6e 64 73 00: 
             0x00000898: 5f 5f 6d 63: 
             0x0000089c: 6d 61 69 6e: 
             0x000008a0: 30 30 30 30: 
             0x000008a4: 30 30 2e 6c: 
             0x000008a8: 6f 63 6e 6f: 
             0x000008ac: 73 69 64 65: 
             0x000008b0: 00 5f 5f 6d: 
             0x000008b4: 63 6d 61 69: 
             0x000008b8: 6e 30 30 30: 
             0x000008bc: 30 30 30 2e: 
             0x000008c0: 6c 6f 63 6e: 
             0x000008c4: 6f 63 68 61: 
             0x000008c8: 6e 64 65 63: 
             0x000008cc: 00 63 63 6d: 
             0x000008d0: 59 67 52 68: 
             0x000008d4: 35 2e 73 00: 
             0x000008d8: 67 65 74 41: 
             0x000008dc: 6c 6c 43 68: 
             0x000008e0: 61 6e 6e 65: 
             0x000008e4: 6c 73 00 66: 
             0x000008e8: 72 65 65 41: 
             0x000008ec: 6c 6c 43 68: 
             0x000008f0: 61 6e 6e 65: 
             0x000008f4: 6c 73 00 73: 
             0x000008f8: 6b 69 70 46: 
             0x000008fc: 72 65 65 00: 
             0x00000900: 70 72 6f 67: 
             0x00000904: 72 61 6d 53: 
             0x00000908: 63 72 61 74: 
             0x0000090c: 63 68 00 77: 
             0x00000910: 61 69 74 46: 
             0x00000914: 6f 72 53 63: 
             0x00000918: 72 61 74 63: 
             0x0000091c: 68 54 6f 70: 
             0x00000920: 00 61 6c 6c: 
             0x00000924: 6f 63 4c 6f: 
             0x00000928: 63 61 6c 43: 
             0x0000092c: 68 61 6e 65: 
             0x00000930: 6e 64 73 00: 
             0x00000934: 64 6f 6e 74: 
             0x00000938: 41 6c 6c 6f: 
             0x0000093c: 63 4f 6e 65: 
             0x00000940: 00 64 6f 6e: 
             0x00000944: 65 4c 6f 63: 
             0x00000948: 61 6c 43 68: 
             0x0000094c: 61 6e 65 6e: 
             0x00000950: 64 73 41 6c: 
             0x00000954: 6c 6f 63 00: 
             0x00000958: 73 70 72 65: 
             0x0000095c: 61 64 52 65: 
             0x00000960: 6d 6f 74 65: 
             0x00000964: 45 6e 64 73: 
             0x00000968: 44 61 74 61: 
             0x0000096c: 00 63 68 61: 
             0x00000970: 6e 45 6e 64: 
             0x00000974: 53 74 6f 72: 
             0x00000978: 65 30 30 30: 
             0x0000097c: 31 00 63 68: 
             0x00000980: 61 6e 45 6e: 
             0x00000984: 64 53 74 6f: 
             0x00000988: 72 65 30 30: 
             0x0000098c: 30 30 00 73: 
             0x00000990: 70 72 65 61: 
             0x00000994: 64 54 6f 4f: 
             0x00000998: 6e 65 43 6f: 
             0x0000099c: 72 65 00 72: 
             0x000009a0: 65 6d 6f 74: 
             0x000009a4: 65 53 70 72: 
             0x000009a8: 65 61 64 50: 
             0x000009ac: 72 6f 6c 6f: 
             0x000009b0: 67 75 65 00: 
             0x000009b4: 6c 6f 63 61: 
             0x000009b8: 6c 53 70 72: 
             0x000009bc: 65 61 64 50: 
             0x000009c0: 72 6f 6c 6f: 
             0x000009c4: 67 75 65 00: 
             0x000009c8: 64 6f 4e 65: 
             0x000009cc: 78 74 53 74: 
             0x000009d0: 6f 72 65 00: 
             0x000009d4: 64 6f 53 74: 
             0x000009d8: 6f 72 65 45: 
             0x000009dc: 6e 74 72 79: 
             0x000009e0: 00 64 6f 53: 
             0x000009e4: 74 6f 72 65: 
             0x000009e8: 45 6e 74 72: 
             0x000009ec: 79 4e 6f 49: 
             0x000009f0: 64 53 65 6e: 
             0x000009f4: 64 00 65 6e: 
             0x000009f8: 74 72 79 49: 
             0x000009fc: 73 4e 6f 74: 
             0x00000a00: 46 69 78 65: 
             0x00000a04: 64 00 73 6b: 
             0x00000a08: 69 70 52 65: 
             0x00000a0c: 6d 6f 74 65: 
             0x00000a10: 53 65 6e 64: 
             0x00000a14: 00 69 73 52: 
             0x00000a18: 65 61 6c 45: 
             0x00000a1c: 6e 64 00 73: 
             0x00000a20: 65 6e 64 45: 
             0x00000a24: 6e 64 56 61: 
             0x00000a28: 6c 75 65 00: 
             0x00000a2c: 73 65 6e 64: 
             0x00000a30: 52 65 6d 6f: 
             0x00000a34: 74 65 45 6e: 
             0x00000a38: 74 72 79 56: 
             0x00000a3c: 61 6c 75 65: 
             0x00000a40: 00 73 65 74: 
             0x00000a44: 4c 6f 63 61: 
             0x00000a48: 6c 45 6e 74: 
             0x00000a4c: 72 79 56 61: 
             0x00000a50: 6c 75 65 00: 
             0x00000a54: 73 65 6e 64: 
             0x00000a58: 4c 6f 6f 70: 
             0x00000a5c: 42 6f 74 74: 
             0x00000a60: 6f 6d 00 61: 
             0x00000a64: 6c 69 67 6e: 
             0x00000a68: 52 31 31 00: 
             0x00000a6c: 64 6f 6e 65: 
             0x00000a70: 53 70 72 65: 
             0x00000a74: 61 64 69 6e: 
             0x00000a78: 67 00 62 75: 
             0x00000a7c: 69 6c 64 52: 
             0x00000a80: 65 67 41 72: 
             0x00000a84: 67 00 68 61: 
             0x00000a88: 73 45 6e 64: 
             0x00000a8c: 52 65 67 00: 
             0x00000a90: 77 61 6b 65: 
             0x00000a94: 43 6f 72 65: 
             0x00000a98: 00 72 65 61: 
             0x00000a9c: 64 52 65 6d: 
             0x00000aa0: 6f 74 65 43: 
             0x00000aa4: 68 61 6e 65: 
             0x00000aa8: 6e 64 00 64: 
             0x00000aac: 6f 6e 65 52: 
             0x00000ab0: 65 6d 6f 74: 
             0x00000ab4: 65 43 68 61: 
             0x00000ab8: 6e 73 00 64: 
             0x00000abc: 6f 6e 65 52: 
             0x00000ac0: 65 6d 6f 74: 
             0x00000ac4: 65 43 68 61: 
             0x00000ac8: 6e 73 5f 32: 
             0x00000acc: 00 65 6e 64: 
             0x00000ad0: 4f 66 53 74: 
             0x00000ad4: 61 72 74 75: 
             0x00000ad8: 70 00 63 68: 
             0x00000adc: 61 6e 45 6e: 
             0x00000ae0: 64 53 74 6f: 
             0x00000ae4: 72 65 30 30: 
             0x00000ae8: 30 32 00 63: 
             0x00000aec: 68 61 6e 45: 
             0x00000af0: 6e 64 53 74: 
             0x00000af4: 6f 72 65 30: 
             0x00000af8: 30 30 33 00: 
             0x00000afc: 74 68 69 73: 
             0x00000b00: 43 68 61 6e: 
             0x00000b04: 65 6e 64 5a: 
             0x00000b08: 65 72 6f 00: 
             0x00000b0c: 64 65 73 74: 
             0x00000b10: 43 68 61 6e: 
             0x00000b14: 65 6e 64 5a: 
             0x00000b18: 65 72 6f 30: 
             0x00000b1c: 30 30 30 00: 
             0x00000b20: 64 65 73 74: 
             0x00000b24: 43 68 61 6e: 
             0x00000b28: 65 6e 64 5a: 
             0x00000b2c: 65 72 6f 30: 
             0x00000b30: 30 30 31 00: 
             0x00000b34: 64 65 73 74: 
             0x00000b38: 43 68 61 6e: 
             0x00000b3c: 65 6e 64 5a: 
             0x00000b40: 65 72 6f 30: 
             0x00000b44: 30 30 32 00: 
             0x00000b48: 64 65 73 74: 
             0x00000b4c: 43 68 61 6e: 
             0x00000b50: 65 6e 64 5a: 
             0x00000b54: 65 72 6f 30: 
             0x00000b58: 30 30 33 00: 
             0x00000b5c: 65 78 63 65: 
             0x00000b60: 70 74 69 6f: 
             0x00000b64: 6e 2e 53 00: 
             0x00000b68: 5f 44 6f 45: 
             0x00000b6c: 78 63 65 70: 
             0x00000b70: 74 69 6f 6e: 
             0x00000b74: 2e 6c 6f 63: 
             0x00000b78: 6e 6f 63 68: 
             0x00000b7c: 61 6e 64 65: 
             0x00000b80: 63 00 5f 44: 
             0x00000b84: 6f 45 78 63: 
             0x00000b88: 65 70 74 69: 
             0x00000b8c: 6f 6e 2e 6e: 
             0x00000b90: 73 74 61 63: 
             0x00000b94: 6b 77 6f 72: 
             0x00000b98: 64 73 00 5f: 
             0x00000b9c: 44 6f 45 78: 
             0x00000ba0: 63 65 70 74: 
             0x00000ba4: 69 6f 6e 2e: 
             0x00000ba8: 6d 61 78 63: 
             0x00000bac: 68 61 6e 65: 
             0x00000bb0: 6e 64 73 00: 
             0x00000bb4: 5f 44 6f 45: 
             0x00000bb8: 78 63 65 70: 
             0x00000bbc: 74 69 6f 6e: 
             0x00000bc0: 2e 6d 61 78: 
             0x00000bc4: 74 69 6d 65: 
             0x00000bc8: 72 73 00 5f: 
             0x00000bcc: 44 6f 45 78: 
             0x00000bd0: 63 65 70 74: 
             0x00000bd4: 69 6f 6e 2e: 
             0x00000bd8: 6d 61 78 74: 
             0x00000bdc: 68 72 65 61: 
             0x00000be0: 64 73 00 2e: 
             0x00000be4: 2e 2f 2e 2e: 
             0x00000be8: 2f 2e 2e 2f: 
             0x00000bec: 2e 2e 2f 2e: 
             0x00000bf0: 2e 2f 2e 2e: 
             0x00000bf4: 2f 73 72 63: 
             0x00000bf8: 2f 6e 65 77: 
             0x00000bfc: 6c 69 62 2f: 
             0x00000c00: 6c 69 62 63: 
             0x00000c04: 2f 6d 61 63: 
             0x00000c08: 68 69 6e 65: 
             0x00000c0c: 2f 78 63 6f: 
             0x00000c10: 72 65 2f 64: 
             0x00000c14: 6f 6e 65 2e: 
             0x00000c18: 63 00 5f 5f: 
             0x00000c1c: 63 61 6c 6c: 
             0x00000c20: 5f 65 78 69: 
             0x00000c24: 74 70 72 6f: 
             0x00000c28: 63 73 00 5f: 
             0x00000c2c: 63 6c 65 61: 
             0x00000c30: 6e 75 70 00: 
             0x00000c34: 5f 64 6f 6e: 
             0x00000c38: 65 00 5f 5f: 
             0x00000c3c: 63 61 6c 6c: 
             0x00000c40: 5f 65 78 69: 
             0x00000c44: 74 70 72 6f: 
             0x00000c48: 63 73 2e 6e: 
             0x00000c4c: 73 74 61 63: 
             0x00000c50: 6b 77 6f 72: 
             0x00000c54: 64 73 00 5f: 
             0x00000c58: 63 6c 65 61: 
             0x00000c5c: 6e 75 70 2e: 
             0x00000c60: 6e 73 74 61: 
             0x00000c64: 63 6b 77 6f: 
             0x00000c68: 72 64 73 00: 
             0x00000c6c: 5f 64 6f 6e: 
             0x00000c70: 65 2e 6e 73: 
             0x00000c74: 74 61 63 6b: 
             0x00000c78: 77 6f 72 64: 
             0x00000c7c: 73 00 5f 5f: 
             0x00000c80: 63 61 6c 6c: 
             0x00000c84: 5f 65 78 69: 
             0x00000c88: 74 70 72 6f: 
             0x00000c8c: 63 73 2e 6d: 
             0x00000c90: 61 78 74 68: 
             0x00000c94: 72 65 61 64: 
             0x00000c98: 73 00 5f 63: 
             0x00000c9c: 6c 65 61 6e: 
             0x00000ca0: 75 70 2e 6d: 
             0x00000ca4: 61 78 74 68: 
             0x00000ca8: 72 65 61 64: 
             0x00000cac: 73 00 5f 64: 
             0x00000cb0: 6f 6e 65 2e: 
             0x00000cb4: 6d 61 78 74: 
             0x00000cb8: 68 72 65 61: 
             0x00000cbc: 64 73 00 5f: 
             0x00000cc0: 5f 63 61 6c: 
             0x00000cc4: 6c 5f 65 78: 
             0x00000cc8: 69 74 70 72: 
             0x00000ccc: 6f 63 73 2e: 
             0x00000cd0: 6d 61 78 74: 
             0x00000cd4: 69 6d 65 72: 
             0x00000cd8: 73 00 5f 63: 
             0x00000cdc: 6c 65 61 6e: 
             0x00000ce0: 75 70 2e 6d: 
             0x00000ce4: 61 78 74 69: 
             0x00000ce8: 6d 65 72 73: 
             0x00000cec: 00 5f 64 6f: 
             0x00000cf0: 6e 65 2e 6d: 
             0x00000cf4: 61 78 74 69: 
             0x00000cf8: 6d 65 72 73: 
             0x00000cfc: 00 5f 5f 63: 
             0x00000d00: 61 6c 6c 5f: 
             0x00000d04: 65 78 69 74: 
             0x00000d08: 70 72 6f 63: 
             0x00000d0c: 73 2e 6d 61: 
             0x00000d10: 78 63 68 61: 
             0x00000d14: 6e 65 6e 64: 
             0x00000d18: 73 00 5f 63: 
             0x00000d1c: 6c 65 61 6e: 
             0x00000d20: 75 70 2e 6d: 
             0x00000d24: 61 78 63 68: 
             0x00000d28: 61 6e 65 6e: 
             0x00000d2c: 64 73 00 5f: 
             0x00000d30: 64 6f 6e 65: 
             0x00000d34: 2e 6d 61 78: 
             0x00000d38: 63 68 61 6e: 
             0x00000d3c: 65 6e 64 73: 
             0x00000d40: 00 5f 5f 6c: 
             0x00000d44: 69 62 63 5f: 
             0x00000d48: 64 6f 6e 65: 
             0x00000d4c: 2e 6c 6f 63: 
             0x00000d50: 6e 6f 63 68: 
             0x00000d54: 61 6e 64 65: 
             0x00000d58: 63 00 5f 5f: 
             0x00000d5c: 6c 69 62 63: 
             0x00000d60: 5f 64 6f 6e: 
             0x00000d64: 65 2e 6c 6f: 
             0x00000d68: 63 6e 6f 73: 
             0x00000d6c: 69 64 65 00: 
             0x00000d70: 65 78 69 74: 
             0x00000d74: 2e 53 00 5f: 
             0x00000d78: 65 78 69 74: 
             0x00000d7c: 2e 6c 6f 63: 
             0x00000d80: 6e 6f 63 68: 
             0x00000d84: 61 6e 64 65: 
             0x00000d88: 63 00 5f 65: 
             0x00000d8c: 78 69 74 2e: 
             0x00000d90: 6e 73 74 61: 
             0x00000d94: 63 6b 77 6f: 
             0x00000d98: 72 64 73 00: 
             0x00000d9c: 5f 65 78 69: 
             0x00000da0: 74 2e 6d 61: 
             0x00000da4: 78 63 68 61: 
             0x00000da8: 6e 65 6e 64: 
             0x00000dac: 73 00 5f 65: 
             0x00000db0: 78 69 74 2e: 
             0x00000db4: 6d 61 78 74: 
             0x00000db8: 69 6d 65 72: 
             0x00000dbc: 73 00 5f 65: 
             0x00000dc0: 78 69 74 2e: 
             0x00000dc4: 6d 61 78 74: 
             0x00000dc8: 68 72 65 61: 
             0x00000dcc: 64 73 00 5f: 
             0x00000dd0: 44 6f 53 79: 
             0x00000dd4: 73 63 61 6c: 
             0x00000dd8: 6c 2e 6e 73: 
             0x00000ddc: 74 61 63 6b: 
             0x00000de0: 77 6f 72 64: 
             0x00000de4: 73 00 5f 44: 
             0x00000de8: 6f 53 79 73: 
             0x00000dec: 63 61 6c 6c: 
             0x00000df0: 2e 6d 61 78: 
             0x00000df4: 63 68 61 6e: 
             0x00000df8: 65 6e 64 73: 
             0x00000dfc: 00 5f 44 6f: 
             0x00000e00: 53 79 73 63: 
             0x00000e04: 61 6c 6c 2e: 
             0x00000e08: 6d 61 78 74: 
             0x00000e0c: 69 6d 65 72: 
             0x00000e10: 73 00 5f 44: 
             0x00000e14: 6f 53 79 73: 
             0x00000e18: 63 61 6c 6c: 
             0x00000e1c: 2e 6d 61 78: 
             0x00000e20: 74 68 72 65: 
             0x00000e24: 61 64 73 00: 
             0x00000e28: 5f 44 6f 53: 
             0x00000e2c: 79 73 63 61: 
             0x00000e30: 6c 6c 00 2e: 
             0x00000e34: 2e 2f 2e 2e: 
             0x00000e38: 2f 2e 2e 2f: 
             0x00000e3c: 2e 2e 2f 2e: 
             0x00000e40: 2e 2f 2e 2e: 
             0x00000e44: 2f 73 72 63: 
             0x00000e48: 2f 6e 65 77: 
             0x00000e4c: 6c 69 62 2f: 
             0x00000e50: 6c 69 62 63: 
             0x00000e54: 2f 6d 61 63: 
             0x00000e58: 68 69 6e 65: 
             0x00000e5c: 2f 78 63 6f: 
             0x00000e60: 72 65 2f 65: 
             0x00000e64: 78 69 74 2e: 
             0x00000e68: 63 00 5f 65: 
             0x00000e6c: 78 69 74 5f: 
             0x00000e70: 75 6e 6c 6f: 
             0x00000e74: 63 6b 65 64: 
             0x00000e78: 2e 6c 6f 63: 
             0x00000e7c: 6e 6f 63 68: 
             0x00000e80: 61 6e 64 65: 
             0x00000e84: 63 00 5f 65: 
             0x00000e88: 78 69 74 5f: 
             0x00000e8c: 75 6e 6c 6f: 
             0x00000e90: 63 6b 65 64: 
             0x00000e94: 2e 6c 6f 63: 
             0x00000e98: 6e 6f 73 69: 
             0x00000e9c: 64 65 00 2e: 
             0x00000ea0: 2e 2f 2e 2e: 
             0x00000ea4: 2f 2e 2e 2f: 
             0x00000ea8: 2e 2e 2f 2e: 
             0x00000eac: 2e 2f 2e 2e: 
             0x00000eb0: 2f 73 72 63: 
             0x00000eb4: 2f 6e 65 77: 
             0x00000eb8: 6c 69 62 2f: 
             0x00000ebc: 6c 69 62 63: 
             0x00000ec0: 2f 6d 61 63: 
             0x00000ec4: 68 69 6e 65: 
             0x00000ec8: 2f 78 63 6f: 
             0x00000ecc: 72 65 2f 6d: 
             0x00000ed0: 65 6d 73 65: 
             0x00000ed4: 74 2e 63 00: 
             0x00000ed8: 6d 65 6d 73: 
             0x00000edc: 65 74 2e 6e: 
             0x00000ee0: 73 74 61 63: 
             0x00000ee4: 6b 77 6f 72: 
             0x00000ee8: 64 73 00 6d: 
             0x00000eec: 65 6d 73 65: 
             0x00000ef0: 74 2e 6d 61: 
             0x00000ef4: 78 74 68 72: 
             0x00000ef8: 65 61 64 73: 
             0x00000efc: 00 6d 65 6d: 
             0x00000f00: 73 65 74 2e: 
             0x00000f04: 6d 61 78 74: 
             0x00000f08: 69 6d 65 72: 
             0x00000f0c: 73 00 6d 65: 
             0x00000f10: 6d 73 65 74: 
             0x00000f14: 2e 6d 61 78: 
             0x00000f18: 63 68 61 6e: 
             0x00000f1c: 65 6e 64 73: 
             0x00000f20: 00 6d 65 6d: 
             0x00000f24: 73 65 74 2e: 
             0x00000f28: 6c 6f 63 6e: 
             0x00000f2c: 6f 63 68 61: 
             0x00000f30: 6e 64 65 63: 
             0x00000f34: 00 6d 65 6d: 
             0x00000f38: 73 65 74 2e: 
             0x00000f3c: 6c 6f 63 6e: 
             0x00000f40: 6f 73 69 64: 
             0x00000f44: 65 00 2e 2e: 
             0x00000f48: 2f 2e 2e 2f: 
             0x00000f4c: 2e 2e 2f 2e: 
             0x00000f50: 2e 2f 2e 2e: 
             0x00000f54: 2f 73 72 63: 
             0x00000f58: 2f 6e 65 77: 
             0x00000f5c: 6c 69 62 2f: 
             0x00000f60: 6c 69 62 63: 
             0x00000f64: 2f 73 74 64: 
             0x00000f68: 6c 69 62 2f: 
             0x00000f6c: 72 61 6e 64: 
             0x00000f70: 2e 63 00 73: 
             0x00000f74: 79 73 63 61: 
             0x00000f78: 6c 6c 2e 53: 
             0x00000f7c: 00 2e 2e 2f: 
             0x00000f80: 2e 2e 2f 2e: 
             0x00000f84: 2e 2f 2e 2e: 
             0x00000f88: 2f 2e 2e 2f: 
             0x00000f8c: 2e 2e 2f 73: 
             0x00000f90: 72 63 2f 6e: 
             0x00000f94: 65 77 6c 69: 
             0x00000f98: 62 2f 6c 69: 
             0x00000f9c: 62 63 2f 6d: 
             0x00000fa0: 61 63 68 69: 
             0x00000fa4: 6e 65 2f 78: 
             0x00000fa8: 63 6f 72 65: 
             0x00000fac: 2f 5f 5f 63: 
             0x00000fb0: 61 6c 6c 5f: 
             0x00000fb4: 61 74 65 78: 
             0x00000fb8: 69 74 2e 63: 
             0x00000fbc: 00 5f 5f 63: 
             0x00000fc0: 61 6c 6c 5f: 
             0x00000fc4: 65 78 69 74: 
             0x00000fc8: 70 72 6f 63: 
             0x00000fcc: 73 5f 69 6d: 
             0x00000fd0: 70 6c 00 5f: 
             0x00000fd4: 5f 63 61 6c: 
             0x00000fd8: 6c 5f 65 78: 
             0x00000fdc: 69 74 70 72: 
             0x00000fe0: 6f 63 73 5f: 
             0x00000fe4: 69 6d 70 6c: 
             0x00000fe8: 2e 6e 73 74: 
             0x00000fec: 61 63 6b 77: 
             0x00000ff0: 6f 72 64 73: 
             0x00000ff4: 00 5f 5f 63: 
             0x00000ff8: 61 6c 6c 5f: 
             0x00000ffc: 65 78 69 74: 
             0x00001000: 70 72 6f 63: 
             0x00001004: 73 5f 69 6d: 
             0x00001008: 70 6c 2e 6d: 
             0x0000100c: 61 78 74 68: 
             0x00001010: 72 65 61 64: 
             0x00001014: 73 00 5f 5f: 
             0x00001018: 63 61 6c 6c: 
             0x0000101c: 5f 65 78 69: 
             0x00001020: 74 70 72 6f: 
             0x00001024: 63 73 5f 69: 
             0x00001028: 6d 70 6c 2e: 
             0x0000102c: 6d 61 78 74: 
             0x00001030: 69 6d 65 72: 
             0x00001034: 73 00 5f 5f: 
             0x00001038: 63 61 6c 6c: 
             0x0000103c: 5f 65 78 69: 
             0x00001040: 74 70 72 6f: 
             0x00001044: 63 73 5f 69: 
             0x00001048: 6d 70 6c 2e: 
             0x0000104c: 6d 61 78 63: 
             0x00001050: 68 61 6e 65: 
             0x00001054: 6e 64 73 00: 
             0x00001058: 5f 5f 63 61: 
             0x0000105c: 6c 6c 5f 65: 
             0x00001060: 78 69 74 70: 
             0x00001064: 72 6f 63 73: 
             0x00001068: 5f 69 6d 70: 
             0x0000106c: 6c 2e 6c 6f: 
             0x00001070: 63 6e 6f 63: 
             0x00001074: 68 61 6e 64: 
             0x00001078: 65 63 00 5f: 
             0x0000107c: 5f 63 61 6c: 
             0x00001080: 6c 5f 65 78: 
             0x00001084: 69 74 70 72: 
             0x00001088: 6f 63 73 5f: 
             0x0000108c: 69 6d 70 6c: 
             0x00001090: 2e 6c 6f 63: 
             0x00001094: 6e 6f 73 69: 
             0x00001098: 64 65 00 5f: 
             0x0000109c: 5f 63 61 6c: 
             0x000010a0: 6c 5f 65 78: 
             0x000010a4: 69 74 70 72: 
             0x000010a8: 6f 63 73 2e: 
             0x000010ac: 6c 6f 63 6e: 
             0x000010b0: 6f 63 68 61: 
             0x000010b4: 6e 64 65 63: 
             0x000010b8: 00 5f 5f 63: 
             0x000010bc: 61 6c 6c 5f: 
             0x000010c0: 65 78 69 74: 
             0x000010c4: 70 72 6f 63: 
             0x000010c8: 73 2e 6c 6f: 
             0x000010cc: 63 6e 6f 73: 
             0x000010d0: 69 64 65 00: 
             0x000010d4: 2e 2e 2f 2e: 
             0x000010d8: 2e 2f 2e 2e: 
             0x000010dc: 2f 2e 2e 2f: 
             0x000010e0: 2e 2e 2f 2e: 
             0x000010e4: 2e 2f 73 72: 
             0x000010e8: 63 2f 6e 65: 
             0x000010ec: 77 6c 69 62: 
             0x000010f0: 2f 6c 69 62: 
             0x000010f4: 63 2f 73 79: 
             0x000010f8: 73 2f 78 63: 
             0x000010fc: 6f 72 65 2f: 
             0x00001100: 6c 6f 63 6b: 
             0x00001104: 2e 63 00 5f: 
             0x00001108: 5f 61 6c 6c: 
             0x0000110c: 6f 63 5f 6c: 
             0x00001110: 69 62 63 5f: 
             0x00001114: 68 77 6c 6f: 
             0x00001118: 63 6b 2e 6e: 
             0x0000111c: 73 74 61 63: 
             0x00001120: 6b 77 6f 72: 
             0x00001124: 64 73 00 5f: 
             0x00001128: 5f 61 6c 6c: 
             0x0000112c: 6f 63 5f 6c: 
             0x00001130: 69 62 63 5f: 
             0x00001134: 68 77 6c 6f: 
             0x00001138: 63 6b 2e 6d: 
             0x0000113c: 61 78 74 68: 
             0x00001140: 72 65 61 64: 
             0x00001144: 73 00 5f 5f: 
             0x00001148: 61 6c 6c 6f: 
             0x0000114c: 63 5f 6c 69: 
             0x00001150: 62 63 5f 68: 
             0x00001154: 77 6c 6f 63: 
             0x00001158: 6b 2e 6d 61: 
             0x0000115c: 78 74 69 6d: 
             0x00001160: 65 72 73 00: 
             0x00001164: 5f 5f 61 6c: 
             0x00001168: 6c 6f 63 5f: 
             0x0000116c: 6c 69 62 63: 
             0x00001170: 5f 68 77 6c: 
             0x00001174: 6f 63 6b 2e: 
             0x00001178: 6d 61 78 63: 
             0x0000117c: 68 61 6e 65: 
             0x00001180: 6e 64 73 00: 
             0x00001184: 5f 5f 61 6c: 
             0x00001188: 6c 6f 63 5f: 
             0x0000118c: 6c 69 62 63: 
             0x00001190: 5f 68 77 6c: 
             0x00001194: 6f 63 6b 2e: 
             0x00001198: 6c 6f 63 6e: 
             0x0000119c: 6f 63 68 61: 
             0x000011a0: 6e 64 65 63: 
             0x000011a4: 00 5f 5f 61: 
             0x000011a8: 6c 6c 6f 63: 
             0x000011ac: 5f 6c 69 62: 
             0x000011b0: 63 5f 68 77: 
             0x000011b4: 6c 6f 63 6b: 
             0x000011b8: 2e 6c 6f 63: 
             0x000011bc: 6e 6f 73 69: 
             0x000011c0: 64 65 00 5f: 
             0x000011c4: 5f 6c 69 62: 
             0x000011c8: 63 5f 68 77: 
             0x000011cc: 6c 6f 63 6b: 
             0x000011d0: 00 2e 2e 2f: 
             0x000011d4: 2e 2e 2f 2e: 
             0x000011d8: 2e 2f 2e 2e: 
             0x000011dc: 2f 2e 2e 2f: 
             0x000011e0: 2e 2e 2f 73: 
             0x000011e4: 72 63 2f 6e: 
             0x000011e8: 65 77 6c 69: 
             0x000011ec: 62 2f 6c 69: 
             0x000011f0: 62 63 2f 6d: 
             0x000011f4: 61 63 68 69: 
             0x000011f8: 6e 65 2f 78: 
             0x000011fc: 63 6f 72 65: 
             0x00001200: 2f 63 6c 65: 
             0x00001204: 61 6e 75 70: 
             0x00001208: 2e 63 00 5f: 
             0x0000120c: 63 6c 65 61: 
             0x00001210: 6e 75 70 5f: 
             0x00001214: 69 6d 70 6c: 
             0x00001218: 00 5f 63 6c: 
             0x0000121c: 65 61 6e 75: 
             0x00001220: 70 5f 69 6d: 
             0x00001224: 70 6c 2e 6e: 
             0x00001228: 73 74 61 63: 
             0x0000122c: 6b 77 6f 72: 
             0x00001230: 64 73 00 5f: 
             0x00001234: 63 6c 65 61: 
             0x00001238: 6e 75 70 5f: 
             0x0000123c: 69 6d 70 6c: 
             0x00001240: 2e 6d 61 78: 
             0x00001244: 74 68 72 65: 
             0x00001248: 61 64 73 00: 
             0x0000124c: 5f 63 6c 65: 
             0x00001250: 61 6e 75 70: 
             0x00001254: 5f 69 6d 70: 
             0x00001258: 6c 2e 6d 61: 
             0x0000125c: 78 74 69 6d: 
             0x00001260: 65 72 73 00: 
             0x00001264: 5f 63 6c 65: 
             0x00001268: 61 6e 75 70: 
             0x0000126c: 5f 69 6d 70: 
             0x00001270: 6c 2e 6d 61: 
             0x00001274: 78 63 68 61: 
             0x00001278: 6e 65 6e 64: 
             0x0000127c: 73 00 5f 63: 
             0x00001280: 6c 65 61 6e: 
             0x00001284: 75 70 5f 69: 
             0x00001288: 6d 70 6c 2e: 
             0x0000128c: 6c 6f 63 6e: 
             0x00001290: 6f 63 68 61: 
             0x00001294: 6e 64 65 63: 
             0x00001298: 00 5f 63 6c: 
             0x0000129c: 65 61 6e 75: 
             0x000012a0: 70 5f 69 6d: 
             0x000012a4: 70 6c 2e 6c: 
             0x000012a8: 6f 63 6e 6f: 
             0x000012ac: 73 69 64 65: 
             0x000012b0: 00 5f 63 6c: 
             0x000012b4: 65 61 6e 75: 
             0x000012b8: 70 2e 6c 6f: 
             0x000012bc: 63 6e 6f 63: 
             0x000012c0: 68 61 6e 64: 
             0x000012c4: 65 63 00 5f: 
             0x000012c8: 63 6c 65 61: 
             0x000012cc: 6e 75 70 2e: 
             0x000012d0: 6c 6f 63 6e: 
             0x000012d4: 6f 73 69 64: 
             0x000012d8: 65 00 64 6f: 
             0x000012dc: 6e 65 2e 53: 
             0x000012e0: 00 5f 64 6f: 
             0x000012e4: 6e 65 2e 6c: 
             0x000012e8: 6f 63 6e 6f: 
             0x000012ec: 63 68 61 6e: 
             0x000012f0: 64 65 63 00: 
             0x000012f4: 63 72 74 65: 
             0x000012f8: 6e 64 2e 73: 
             0x000012fc: 00 63 74 6f: 
             0x00001300: 72 5f 6c 69: 
             0x00001304: 73 74 5f 70: 
             0x00001308: 74 72 00 63: 
             0x0000130c: 74 6f 72 73: 
             0x00001310: 5f 73 69 7a: 
             0x00001314: 65 00 5f 43: 
             0x00001318: 54 4f 52 5f: 
             0x0000131c: 45 4e 44 5f: 
             0x00001320: 00 64 6f 5f: 
             0x00001324: 63 74 6f 72: 
             0x00001328: 73 5f 6c 6f: 
             0x0000132c: 6f 70 00 64: 
             0x00001330: 6f 5f 63 74: 
             0x00001334: 6f 72 73 5f: 
             0x00001338: 65 6e 64 00: 
             0x0000133c: 5f 5f 65 68: 
             0x00001340: 5f 6f 62 6a: 
             0x00001344: 65 63 74 00: 
             0x00001348: 5f 5f 45 48: 
             0x0000134c: 5f 46 52 41: 
             0x00001350: 4d 45 5f 45: 
             0x00001354: 4e 44 5f 5f: 
             0x00001358: 00 63 72 74: 
             0x0000135c: 6e 2e 73 00: 
             0x00001360: 2e 72 61 6d: 
             0x00001364: 5f 62 61 73: 
             0x00001368: 65 00 2e 43: 
             0x0000136c: 50 4d 30 00: 
             0x00001370: 2e 43 50 4d: 
             0x00001374: 31 00 2e 43: 
             0x00001378: 50 4d 32 00: 
             0x0000137c: 2e 43 50 4d: 
             0x00001380: 33 00 2e 43: 
             0x00001384: 50 4d 34 00: 
             0x00001388: 2e 43 50 4d: 
             0x0000138c: 35 00 2e 43: 
             0x00001390: 50 4d 36 00: 
             0x00001394: 2e 78 6d 6f: 
             0x00001398: 73 6e 6f 74: 
             0x0000139c: 65 00 66 7b: 
             0x000013a0: 30 7d 28 30: 
             0x000013a4: 29 00 66 7b: 
             0x000013a8: 73 69 7d 28: 
             0x000013ac: 30 29 00 66: 
             0x000013b0: 7b 30 7d 28: 
             0x000013b4: 73 69 29 00: 
             0x000013b8: 66 7b 70 28: 
             0x000013bc: 30 29 7d 28: 
             0x000013c0: 70 28 30 29: 
             0x000013c4: 2c 73 69 2c: 
             0x000013c8: 75 69 29 00: 
             0x000013cc: 66 7b 30 7d: 
             0x000013d0: 28 63 68 64: 
             0x000013d4: 29 00 61 28: 
             0x000013d8: 34 3a 63 72: 
             0x000013dc: 29 00 66 7b: 
             0x000013e0: 73 69 7d 28: 
             0x000013e4: 63 68 64 29: 
             0x000013e8: 00 66 7b 30: 
             0x000013ec: 7d 28 73 69: 
             0x000013f0: 2c 70 28 30: 
             0x000013f4: 29 29 00 75: 
             0x000013f8: 69 00 2e 65: 
             0x000013fc: 78 70 72 00: 
             0x00001400: 2e 73 79 6d: 
             0x00001404: 74 61 62 00: 
             0x00001408: 2e 73 74 72: 
             0x0000140c: 74 61 62 00: 

Loadable 1 for stdcore[1] (node "0", core 1):

Disassembly of section section .text (size: 894)

<_start>:
             0x00010000: 4b 68:       ldc (ru6)       r1, 0xb
             0x00010002: d1 fe ec 17: get (l2r)       r0, ps[r1]
             0x00010006: 04 f0 8b 68: ldc (lru6)      r2, 0x10b
             0x0001000a: c2 fe ec 1f: set (lr2r)      ps[r2], r0
             0x0001000e: 4a d0:       bl (u10)        0x4a <_SetupTraps>
             0x00010010: 0f d0:       bl (u10)        0xf <_GetRamEnd>
             0x00010012: f0 2f:       set (1r)        sp, r0
             0x00010014: 01 f0 80 77: extsp (lu6)     0x40
             0x00010018: 00 f0 00 da: ldap (lu10)     r11, 0x200 <.label0>
             0x0001001c: fb 37:       set (1r)        cp, r11
             0x0001001e: 00 f0 07 da: ldap (lu10)     r11, 0x207 <.label1>
             0x00010022: eb 37:       set (1r)        dp, r11
             0x00010024: c3 86:       getr (rus)      r0, 0x3

<_InitThreadLoop>:
             0x00010026: d4 06:       getst (2r)      r1, res[r0]
             0x00010028: b4 b0:       eq (2rus)       r11, r1, 0x0
             0x0001002a: cc 72:       bt (ru6)        r11, 0xc <_Join>
             0x0001002c: 1f d0:       bl (u10)        0x1f <_InitThread>
             0x0001002e: 05 77:       bu (u6)         -0x5 <_InitThreadLoop>

<_GetRamEnd>:
             0x00010030: cb 6a:       ldc (ru6)       r11, 0xb
             0x00010032: bb ff ec 17: get (l2r)       r10, ps[r11]
             0x00010036: 00 f0 ef d9: ldap (lu10)     r11, 0x1ef <.label2>
             0x0001003a: 3c 0a:       ldw (2rus)      r11, r11[0x0]
             0x0001003c: 0b 16:       add (3r)        r0, r10, r11
             0x0001003e: c0 77:       retsp (u6)      0x0

<_ExitWithError>:
             0x00010040: 04 f0 02 73: bu (lu6)        0x102 <_exit>

<_Join>:
             0x00010044: f0 1f:       msync (1r)      res[r0]
             0x00010046: f0 17:       mjoin (1r)      res[r0]
             0x00010048: e0 17:       freer (1r)      res[r0]
             0x0001004a: 1f d0:       bl (u10)        0x1f <_TouchRegisters>
             0x0001004c: 00 f0 97 d1: bl (lu10)       0x197 <.label3>
             0x00010050: 00 f0 c6 6a: ldc (lru6)      r11, 0x6
             0x00010054: c8 ea:       setc (ru6)      res[r11], 0x8
             0x00010056: cf ea:       setc (ru6)      res[r11], 0xf
             0x00010058: 00 68:       ldc (ru6)       r0, 0x0
             0x0001005a: 00 f0 40 60: ldaw (lru6)     r1, dp[0x0]
             0x0001005e: 00 f0 6b d0: bl (lu10)       0x6b <main>
             0x00010062: 02 70:       bt (ru6)        r0, 0x2 <_NonZeroReturn>
             0x00010064: 03 f0 25 73: bu (lu6)        0xe5 <__libc_done>

<_NonZeroReturn>:
             0x00010068: 03 f0 34 73: bu (lu6)        0xf4 <_exit_unlocked>

<_InitThread>:
             0x0001006c: 00 f0 d6 d9: ldap (lu10)     r11, 0x1d6 <.label0>
             0x00010070: 4d 1f:       init (2r)       t[r1]:cp, r11
             0x00010072: 00 f0 dd d9: ldap (lu10)     r11, 0x1dd <.label1>
             0x00010076: 4d 0f:       init (2r)       t[r1]:dp, r11
             0x00010078: 05 d8:       ldap (u10)      r11, 0x5 <_InitThreadRoutine>
             0x0001007a: 4d 07:       init (2r)       t[r1]:pc, r11
             0x0001007c: c0 77:       retsp (u6)      0x0
             0x0001007e: 00 90:       add (2rus)      r0, r0, 0x0

<_TrapHandler>:
             0x00010080: 03 f0 15 73: bu (lu6)        0xd5 <_DoException> <endOfStartup>

<_InitThreadRoutine>:
             0x00010084: 02 d0:       bl (u10)        0x2 <_TouchRegisters>
             0x00010086: 0e d0:       bl (u10)        0xe <_SetupTraps>
             0x00010088: ee 07:       ssync (0r)      

<_TouchRegisters>:
             0x0001008a: 00 68:       ldc (ru6)       r0, 0x0
             0x0001008c: 40 68:       ldc (ru6)       r1, 0x0
             0x0001008e: 80 68:       ldc (ru6)       r2, 0x0
             0x00010090: c0 68:       ldc (ru6)       r3, 0x0
             0x00010092: 00 69:       ldc (ru6)       r4, 0x0
             0x00010094: 40 69:       ldc (ru6)       r5, 0x0
             0x00010096: 80 69:       ldc (ru6)       r6, 0x0
             0x00010098: c0 69:       ldc (ru6)       r7, 0x0
             0x0001009a: 00 6a:       ldc (ru6)       r8, 0x0
             0x0001009c: 40 6a:       ldc (ru6)       r9, 0x0
             0x0001009e: 80 6a:       ldc (ru6)       r10, 0x0
             0x000100a0: c0 6a:       ldc (ru6)       r11, 0x0
             0x000100a2: c0 77:       retsp (u6)      0x0

<_SetupTraps>:
             0x000100a4: 13 dc:       ldap (u10)      r11, -0x13 <_TrapHandler>
             0x000100a6: ff 07:       set (0r)        kep, r11
             0x000100a8: c0 77:       retsp (u6)      0x0

<__register_frame_info_bases>:
<__free_libc_hwlock>:
.label24     0x000100aa: c0 77:       retsp (u6)      0x0

<sleep>:
             0x000100ac: 43 77:       entsp (u6)      0x3
             0x000100ae: 00 54:       stw (ru6)       r0, sp[0x0]
             0x000100b0: c1 86:       getr (rus)      r0, 0x1
             0x000100b2: 02 54:       stw (ru6)       r0, sp[0x2]
             0x000100b4: 02 5c:       ldw (ru6)       r0, sp[0x2]
             0x000100b6: 01 e8:       setc (ru6)      res[r0], 0x1
             0x000100b8: 02 5c:       ldw (ru6)       r0, sp[0x2]
             0x000100ba: c0 b6:       in (2r)         r0, res[r0]
             0x000100bc: 01 54:       stw (ru6)       r0, sp[0x1]
             0x000100be: 01 5c:       ldw (ru6)       r0, sp[0x1]
             0x000100c0: 01 54:       stw (ru6)       r0, sp[0x1]
             0x000100c2: 40 5c:       ldw (ru6)       r1, sp[0x0]
             0x000100c4: 01 f0 24 68: ldc (lru6)      r0, 0x64
             0x000100c8: 14 f8 ec 3f: mul (l3r)       r1, r1, r0
             0x000100cc: 01 5c:       ldw (ru6)       r0, sp[0x1]
             0x000100ce: 01 10:       add (3r)        r0, r0, r1
             0x000100d0: 01 54:       stw (ru6)       r0, sp[0x1]
             0x000100d2: 01 5c:       ldw (ru6)       r0, sp[0x1]
             0x000100d4: 42 5c:       ldw (ru6)       r1, sp[0x2]
             0x000100d6: d1 16:       setd (r2r)      res[r1], r0
             0x000100d8: 02 5c:       ldw (ru6)       r0, sp[0x2]
             0x000100da: 09 e8:       setc (ru6)      res[r0], 0x9
             0x000100dc: 02 5c:       ldw (ru6)       r0, sp[0x2]
             0x000100de: c0 b6:       in (2r)         r0, res[r0]
             0x000100e0: 02 5c:       ldw (ru6)       r0, sp[0x2]
             0x000100e2: e0 17:       freer (1r)      res[r0]
             0x000100e4: c3 77:       retsp (u6)      0x3
             0x000100e6: 00 90:       add (2rus)      r0, r0, 0x0

<__main_xm_1>:
             0x000100e8: 43 77:       entsp (u6)      0x3
             0x000100ea: 01 54:       stw (ru6)       r0, sp[0x1]
             0x000100ec: d1 a6:       mkmsk (rus)     r0, 0x1
             0x000100ee: 00 f0 0c d1: bl (lu10)       0x10c <srand>

<starttrace1>:
             0x000100f2: 00 68:       ldc (ru6)       r0, 0x0
             0x000100f4: 02 54:       stw (ru6)       r0, sp[0x2]
.label5      0x000100f6: 42 5c:       ldw (ru6)       r1, sp[0x2]
             0x000100f8: 05 68:       ldc (ru6)       r0, 0x5
             0x000100fa: 04 c0:       lss (3r)        r0, r1, r0
             0x000100fc: 01 70:       bt (ru6)        r0, 0x1 <.label4>
             0x000100fe: 15 73:       bu (u6)         0x15 <endtrace1>
.label4      0x00010100: 00 f0 0c d1: bl (lu10)       0x10c <rand>
             0x00010104: 54 68:       ldc (ru6)       r1, 0x14
             0x00010106: 01 f8 ec c7: rems (l3r)      r0, r0, r1
             0x0001010a: 30 d4:       bl (u10)        -0x30 <sleep>
             0x0001010c: 01 5c:       ldw (ru6)       r0, sp[0x1]
             0x0001010e: d1 4e:       outct (rus)     res[r0], 0x1
             0x00010110: 01 5c:       ldw (ru6)       r0, sp[0x1]
             0x00010112: d1 ce:       chkct (rus)     res[r0], 0x1
             0x00010114: 41 5c:       ldw (ru6)       r1, sp[0x1]
             0x00010116: 02 5c:       ldw (ru6)       r0, sp[0x2]
             0x00010118: c1 ae:       out (r2r)       res[r1], r0
             0x0001011a: 01 5c:       ldw (ru6)       r0, sp[0x1]
             0x0001011c: d1 4e:       outct (rus)     res[r0], 0x1
             0x0001011e: 01 5c:       ldw (ru6)       r0, sp[0x1]
             0x00010120: d1 ce:       chkct (rus)     res[r0], 0x1
             0x00010122: 02 5c:       ldw (ru6)       r0, sp[0x2]
             0x00010124: 01 90:       add (2rus)      r0, r0, 0x1
             0x00010126: 02 54:       stw (ru6)       r0, sp[0x2]
             0x00010128: 1a 77:       bu (u6)         -0x1a <.label5>

<endtrace1>:
             0x0001012a: c3 77:       retsp (u6)      0x3

<__mcmain000001>:
             0x0001012c: 42 77:       entsp (u6)      0x2
             0x0001012e: 01 54:       stw (ru6)       r0, sp[0x1]
             0x00010130: 01 5c:       ldw (ru6)       r0, sp[0x1]
             0x00010132: 00 f0 27 d4: bl (lu10)       -0x27 <__main_xm_1>
             0x00010136: c2 77:       retsp (u6)      0x2

<main>:
             0x00010138: 42 77:       entsp (u6)      0x2

<getAllChannels>:
             0x0001013a: c2 86:       getr (rus)      r0, 0x2
             0x0001013c: 02 74:       bt (ru6)        r0, -0x2 <getAllChannels>
             0x0001013e: 9f 68:       ldc (ru6)       r2, 0x1f
             0x00010140: c1 68:       ldc (ru6)       r3, 0x1
             0x00010142: 04 f0 40 68: ldc (lru6)      r1, 0x100
             0x00010146: 00 f0 00 6c: ldw (lru6)      r0, cp[0x0]
             0x0001014a: 01 10:       add (3r)        r0, r0, r1

<freeAllChannels>:
             0x0001014c: e0 17:       freer (1r)      res[r0]

<skipFree>:
             0x0001014e: 01 10:       add (3r)        r0, r0, r1
             0x00010150: 4e 30:       eq (3r)         r4, r3, r2
             0x00010152: 3d 90:       add (2rus)      r3, r3, 0x1
             0x00010154: 05 7d:       bf (ru6)        r4, -0x5 <freeAllChannels>
             0x00010156: 81 68:       ldc (ru6)       r2, 0x1
             0x00010158: c6 86:       getr (rus)      r1, 0x2
             0x0001015a: 3f d0:       bl (u10)        0x3f <waitForScratch>
             0x0001015c: 00 f0 00 6c: ldw (lru6)      r0, cp[0x0]

<receiveEnd>:
             0x00010160: c4 b6:       in (2r)         r1, res[r0]
             0x00010162: d1 ce:       chkct (rus)     res[r0], 0x1
             0x00010164: d4 16:       setd (r2r)      res[r0], r1
             0x00010166: c0 ae:       out (r2r)       res[r0], r0
             0x00010168: d1 4e:       outct (rus)     res[r0], 0x1

<waitForZero>:
             0x0001016a: c4 b6:       in (2r)         r1, res[r0]
             0x0001016c: d1 ce:       chkct (rus)     res[r0], 0x1
             0x0001016e: 43 74:       bt (ru6)        r1, -0x3 <waitForZero>
             0x00010170: 00 f0 d6 62: ldaw (lru6)     r11, dp[0x16]
             0x00010174: c0 68:       ldc (ru6)       r3, 0x0
             0x00010176: 81 68:       ldc (ru6)       r2, 0x1
             0x00010178: fc f3 c0 69: ldc (lru6)      r7, 0xff00

<getLocalEndsTop>:
             0x0001017c: 1e 30:       eq (3r)         r1, r3, r2
             0x0001017e: 48 70:       bt (ru6)        r1, 0x8 <gotLocalEnds>
             0x00010180: 06 87:       getr (rus)      r5, 0x2
             0x00010182: df f9 ec 07: stw (l3r)       r5, r11[r3]
             0x00010186: 1d 43:       or (3r)         r1, r7, r5
             0x00010188: 95 17:       setd (r2r)      res[r5], r1
             0x0001018a: 04 af:       out (r2r)       res[r0], r5
             0x0001018c: 3d 90:       add (2rus)      r3, r3, 0x1
             0x0001018e: 0a 77:       bu (u6)         -0xa <getLocalEndsTop>

<gotLocalEnds>:
             0x00010190: d1 4e:       outct (rus)     res[r0], 0x1
             0x00010192: c0 68:       ldc (ru6)       r3, 0x0

<getRemoteEndsTop>:
             0x00010194: 4e 30:       eq (3r)         r4, r3, r2
             0x00010196: 0c 71:       bt (ru6)        r4, 0xc <gotRemoteEnds>
             0x00010198: 00 b7:       in (2r)         r4, res[r0]
             0x0001019a: 10 17:       setd (r2r)      res[r0], r4
             0x0001019c: 08 b7:       in (2r)         r6, res[r0]
             0x0001019e: 0e 4c:       ldw (3r)        r4, r11[r6]
             0x000101a0: 04 b7:       in (2r)         r5, res[r0]
             0x000101a2: d1 ce:       chkct (rus)     res[r0], 0x1
             0x000101a4: d3 4e:       outct (rus)     res[r0], 0x3
             0x000101a6: d1 4e:       outct (rus)     res[r0], 0x1
             0x000101a8: 41 79:       bf (ru6)        r5, 0x1 <loopForNextRemoteEnd>
             0x000101aa: d4 17:       setd (r2r)      res[r4], r5

<loopForNextRemoteEnd>:
             0x000101ac: 3d 90:       add (2rus)      r3, r3, 0x1
             0x000101ae: 0e 77:       bu (u6)         -0xe <getRemoteEndsTop>

<gotRemoteEnds>:
             0x000101b0: e0 17:       freer (1r)      res[r0]
             0x000101b2: 00 f0 d6 62: ldaw (lru6)     r11, dp[0x16]
             0x000101b6: c1 69:       ldc (ru6)       r7, 0x1
             0x000101b8: fc f3 00 6a: ldc (lru6)      r8, 0xff00
             0x000101bc: 05 d0:       bl (u10)        0x5 <buildRegArg>
             0x000101be: 0c 90:       add (2rus)      r0, r3, 0x0
             0x000101c0: 00 f0 4c d4: bl (lu10)       -0x4c <__mcmain000001>

<returnToCRT>:
             0x000101c4: 00 68:       ldc (ru6)       r0, 0x0
             0x000101c6: c2 77:       retsp (u6)      0x2

<buildRegArg>:
             0x000101c8: bc 09:       ldw (2rus)      r3, r11[0x0]
             0x000101ca: 3d fa ec 9f: ldaw (l2rus)    r11, r11[0x1]
             0x000101ce: df 3a:       and (3r)        r9, r3, r7
             0x000101d0: 43 7a:       bf (ru6)        r9, 0x3 <hasEndReg>
             0x000101d2: 8f 2f:       andnot (2r)     r3, r7
             0x000101d4: 2c 45:       or (3r)         r10, r3, r8
             0x000101d6: 5b 17:       setd (r2r)      res[r3], r10

<hasEndReg>:
             0x000101d8: c0 77:       retsp (u6)      0x0

<waitForScratch>:
             0x000101da: 83 69:       ldc (ru6)       r6, 0x3
             0x000101dc: 0c f3 cc 69: ldc (lru6)      r7, 0xc30c
             0x000101e0: 36 ad:       shr (2rus)      r11, r1, 0x18
             0x000101e2: be a6:       shl (2rus)      r11, r11, 0x18
             0x000101e4: bf 45:       or (3r)         r7, r7, r11
             0x000101e6: 1d 17:       setd (r2r)      res[r1], r7
             0x000101e8: b4 ac:       shr (2rus)      r3, r1, 0x8
             0x000101ea: 03 f0 c1 6a: ldc (lru6)      r11, 0xc1

<waitForScratchTop>:
             0x000101ee: 27 4f:       outct (2r)      res[r1], r11
             0x000101f0: fd ac:       shr (2rus)      r7, r3, 0x10
             0x000101f2: 1d 0f:       outt (r2r)      res[r1], r7
             0x000101f4: fc ac:       shr (2rus)      r7, r3, 0x8
             0x000101f6: 1d 0f:       outt (r2r)      res[r1], r7
             0x000101f8: dd 0e:       outt (r2r)      res[r1], r3
             0x000101fa: b8 ad:       shr (2rus)      r7, r6, 0x8
             0x000101fc: 1d 0f:       outt (r2r)      res[r1], r7
             0x000101fe: 19 0f:       outt (r2r)      res[r1], r6
             0x00010200: d5 4e:       outct (rus)     res[r1], 0x1
             0x00010202: d7 ce:       chkct (rus)     res[r1], 0x3
             0x00010204: 45 b7:       in (2r)         r9, res[r1]
             0x00010206: d5 ce:       chkct (rus)     res[r1], 0x1
             0x00010208: 26 32:       eq (3r)         r10, r9, r2
             0x0001020a: 8f 7e:       bf (ru6)        r10, -0xf <waitForScratchTop>

<writeToScratch>:
             0x0001020c: 03 f0 c0 6a: ldc (lru6)      r11, 0xc0
             0x00010210: 27 4f:       outct (2r)      res[r1], r11
             0x00010212: cd ac:       shr (2rus)      r4, r3, 0x10
             0x00010214: 11 0f:       outt (r2r)      res[r1], r4
             0x00010216: cc ac:       shr (2rus)      r4, r3, 0x8
             0x00010218: 11 0f:       outt (r2r)      res[r1], r4
             0x0001021a: dd 0e:       outt (r2r)      res[r1], r3
             0x0001021c: 1d 0f:       outt (r2r)      res[r1], r7
             0x0001021e: 19 0f:       outt (r2r)      res[r1], r6
             0x00010220: 29 90:       add (2rus)      r2, r2, 0x1
             0x00010222: c9 ae:       out (r2r)       res[r1], r2
             0x00010224: d5 4e:       outct (rus)     res[r1], 0x1
             0x00010226: d7 ce:       chkct (rus)     res[r1], 0x3
             0x00010228: d5 ce:       chkct (rus)     res[r1], 0x1
             0x0001022a: e1 17:       freer (1r)      res[r1]
             0x0001022c: c0 77:       retsp (u6)      0x0

<_DoException>:
<endOfStartup>:
             0x0001022e: ed 07:       clre (0r)       
             0x00010230: ec 07:       waiteu (0r)     

<__libc_done>:
             0x00010232: 41 77:       entsp (u6)      0x1
             0x00010234: 00 68:       ldc (ru6)       r0, 0x0
             0x00010236: 10 90:       add (2rus)      r1, r0, 0x0
             0x00010238: 00 f0 90 d0: bl (lu10)       0x90 <__call_exitprocs>
             0x0001023c: 00 f0 96 d0: bl (lu10)       0x96 <_cleanup>
             0x00010240: 00 f0 cb d0: bl (lu10)       0xcb <.label6>
             0x00010244: 00 f0 96 d0: bl (lu10)       0x96 <_done>

<_exit>:
             0x00010248: 10 90:       add (2rus)      r1, r0, 0x0
             0x0001024a: 00 68:       ldc (ru6)       r0, 0x0
             0x0001024c: 00 f0 84 d0: bl (lu10)       0x84 <_DoSyscall>
             0x00010250: ed 07:       clre (0r)       
             0x00010252: ec 07:       waiteu (0r)     

<_exit_unlocked>:
             0x00010254: 42 77:       entsp (u6)      0x2
             0x00010256: 01 55:       stw (ru6)       r4, sp[0x1]
             0x00010258: 40 90:       add (2rus)      r4, r0, 0x0
             0x0001025a: 40 68:       ldc (ru6)       r1, 0x0
             0x0001025c: 00 f0 7e d0: bl (lu10)       0x7e <__call_exitprocs>
             0x00010260: 00 f0 84 d0: bl (lu10)       0x84 <_cleanup>
             0x00010264: 00 f0 b9 d0: bl (lu10)       0xb9 <.label6>
             0x00010268: c0 90:       add (2rus)      r0, r4, 0x0
             0x0001026a: 00 f0 13 d4: bl (lu10)       -0x13 <_exit>

<memset>:
.label19     0x0001026e: 45 77:       entsp (u6)      0x5
             0x00010270: 04 55:       stw (ru6)       r4, sp[0x4]
             0x00010272: 43 55:       stw (ru6)       r5, sp[0x3]
             0x00010274: 82 55:       stw (ru6)       r6, sp[0x2]
             0x00010276: c1 55:       stw (ru6)       r7, sp[0x1]
             0x00010278: 00 56:       stw (ru6)       r8, sp[0x0]
             0x0001027a: 34 90:       add (2rus)      r3, r1, 0x0
             0x0001027c: 3c 47:       zext (rus)      r3, 0x8
             0x0001027e: c0 6a:       ldc (ru6)       r11, 0x0
             0x00010280: 00 69:       ldc (ru6)       r4, 0x0
             0x00010282: dc 91:       add (2rus)      r5, r11, 0x0
             0x00010284: 06 73:       bu (u6)         0x6 <.label7>
.label9      0x00010286: 36 31:       eq (3r)         r7, r5, r2
             0x00010288: fa 71:       bt (ru6)        r7, 0x3a <.label8>
             0x0001028a: 18 fb ec 8f: st8 (l3r)       r1, r6[r4]
             0x0001028e: 3d 9a:       sub (2rus)      r11, r11, 0x1
             0x00010290: 15 91:       add (2rus)      r5, r5, 0x1
.label7      0x00010292: a1 12:       add (3r)        r6, r0, r5
             0x00010294: 38 91:       add (2rus)      r7, r6, 0x0
             0x00010296: 1e 47:       zext (rus)      r7, 0x2
             0x00010298: ca 75:       bt (ru6)        r7, -0xa <.label9>
             0x0001029a: cb 14:       add (3r)        r4, r2, r11
             0x0001029c: 1a a7:       mkmsk (rus)     r6, 0x2
             0x0001029e: 48 cb:       lsu (3r)        r4, r6, r4
             0x000102a0: 25 79:       bf (ru6)        r4, 0x25 <.label10>
             0x000102a2: cc a4:       shl (2rus)      r4, r3, 0x8
             0x000102a4: f3 40:       or (3r)         r3, r4, r3
             0x000102a6: cd a4:       shl (2rus)      r4, r3, 0x10
             0x000102a8: 03 41:       or (3r)         r4, r4, r3
             0x000102aa: bb 14:       add (3r)        r3, r2, r11
             0x000102ac: 90 69:       ldc (ru6)       r6, 0x10
             0x000102ae: 7e ca:       lsu (3r)        r3, r3, r6
             0x000102b0: 91 12:       add (3r)        r5, r0, r5
             0x000102b2: d1 70:       bt (ru6)        r3, 0x11 <.label11>
             0x000102b4: 80 69:       ldc (ru6)       r6, 0x0
             0x000102b6: dc a7:       mkmsk (rus)     r7, 0x4
.label12     0x000102b8: 04 01:       stw (2rus)      r4, r5[0x0]
             0x000102ba: 05 01:       stw (2rus)      r4, r5[0x1]
             0x000102bc: 06 01:       stw (2rus)      r4, r5[0x2]
             0x000102be: 07 01:       stw (2rus)      r4, r5[0x3]
             0x000102c0: bb 14:       add (3r)        r3, r2, r11
             0x000102c2: fb 10:       add (3r)        r3, r6, r3
             0x000102c4: 7c fa ec a7: ldaw (l2rus)    r3, r3[-0x4]
             0x000102c8: 4f c9:       lsu (3r)        r8, r7, r3
             0x000102ca: 68 fb ec a7: ldaw (l2rus)    r6, r6[-0x4]
             0x000102ce: 54 fb ec 9f: ldaw (l2rus)    r5, r5[0x4]
             0x000102d2: 0e 76:       bt (ru6)        r8, -0xe <.label12>
             0x000102d4: 01 73:       bu (u6)         0x1 <.label13>
.label11     0x000102d6: bb 14:       add (3r)        r3, r2, r11
.label13     0x000102d8: da a6:       mkmsk (rus)     r2, 0x2
             0x000102da: 2b c8:       lsu (3r)        r2, r2, r3
             0x000102dc: 89 78:       bf (ru6)        r2, 0x9 <.label14>
             0x000102de: da a6:       mkmsk (rus)     r2, 0x2
.label15     0x000102e0: 04 01:       stw (2rus)      r4, r5[0x0]
             0x000102e2: 7c 9a:       sub (2rus)      r3, r3, 0x4
             0x000102e4: bb c8:       lsu (3r)        r11, r2, r3
             0x000102e6: 54 93:       add (2rus)      r5, r5, 0x4
             0x000102e8: c5 76:       bt (ru6)        r11, -0x5 <.label15>
             0x000102ea: 02 73:       bu (u6)         0x2 <.label14>
.label10     0x000102ec: bb 14:       add (3r)        r3, r2, r11
             0x000102ee: 91 12:       add (3r)        r5, r0, r5
.label14     0x000102f0: c6 78:       bf (ru6)        r3, 0x6 <.label8>
             0x000102f2: 80 68:       ldc (ru6)       r2, 0x0
.label16     0x000102f4: d6 f8 ec 8f: st8 (l3r)       r1, r5[r2]
             0x000102f8: 29 90:       add (2rus)      r2, r2, 0x1
             0x000102fa: bb 30:       eq (3r)         r11, r2, r3
             0x000102fc: c5 7e:       bf (ru6)        r11, -0x5 <.label16>
.label8      0x000102fe: 00 5e:       ldw (ru6)       r8, sp[0x0]
             0x00010300: c1 5d:       ldw (ru6)       r7, sp[0x1]
             0x00010302: 82 5d:       ldw (ru6)       r6, sp[0x2]
             0x00010304: 43 5d:       ldw (ru6)       r5, sp[0x3]
             0x00010306: 04 5d:       ldw (ru6)       r4, sp[0x4]
             0x00010308: c5 77:       retsp (u6)      0x5

<srand>:
             0x0001030a: ee 17:       get (0r)        r11, id
             0x0001030c: 9f a1:       shl (2rus)      r1, r11, 0x3
             0x0001030e: 00 f0 83 60: ldaw (lru6)     r2, dp[0x3]
             0x00010312: 19 10:       add (3r)        r1, r2, r1
             0x00010314: 80 68:       ldc (ru6)       r2, 0x0
             0x00010316: 25 00:       stw (2rus)      r2, r1[0x1]
             0x00010318: 04 00:       stw (2rus)      r0, r1[0x0]
             0x0001031a: c0 77:       retsp (u6)      0x0

<rand>:
             0x0001031c: 41 77:       entsp (u6)      0x1
             0x0001031e: 00 55:       stw (ru6)       r4, sp[0x0]
             0x00010320: ee 17:       get (0r)        r11, id
             0x00010322: 8f a1:       shl (2rus)      r0, r11, 0x3
             0x00010324: 00 f0 43 60: ldaw (lru6)     r1, dp[0x3]
             0x00010328: 04 10:       add (3r)        r0, r1, r0
             0x0001032a: 11 08:       ldw (2rus)      r1, r0[0x1]
             0x0001032c: 20 08:       ldw (2rus)      r2, r0[0x0]
             0x0001032e: 00 f0 c2 6c: ldw (lru6)      r3, cp[0x2]
             0x00010332: 5d a7:       mkmsk (rus)     r11, 0x1
             0x00010334: 00 69:       ldc (ru6)       r4, 0x0
             0x00010336: 4b f8 fb 07: maccu (l4r)     r4, r11, r2, r3
             0x0001033a: b0 00:       stw (2rus)      r11, r0[0x0]
             0x0001033c: 00 f0 c3 6e: ldw (lru6)      r11, cp[0x3]
             0x00010340: ab fc ec 3f: mul (l3r)       r2, r2, r11
             0x00010344: e2 10:       add (3r)        r2, r4, r2
             0x00010346: 17 f8 ec 3f: mul (l3r)       r1, r1, r3
             0x0001034a: 19 10:       add (3r)        r1, r2, r1
             0x0001034c: 11 00:       stw (2rus)      r1, r0[0x1]
             0x0001034e: 00 f0 04 6c: ldw (lru6)      r0, cp[0x4]
             0x00010352: 04 38:       and (3r)        r0, r1, r0
             0x00010354: 00 5d:       ldw (ru6)       r4, sp[0x0]
             0x00010356: c1 77:       retsp (u6)      0x1

<_DoSyscall>:
             0x00010358: d0 a6:       mkmsk (rus)     r0, 0x20
             0x0001035a: c0 77:       retsp (u6)      0x0

<__call_exitprocs>:
             0x0001035c: 41 77:       entsp (u6)      0x1
             0x0001035e: 00 f0 59 d0: bl (lu10)       0x59 <.label17>
             0x00010362: c1 77:       retsp (u6)      0x1

<__alloc_libc_hwlock>:
.label22     0x00010364: 81 87:       getr (rus)      r0, 0x5
             0x00010366: 00 f0 17 50: stw (lru6)      r0, dp[0x17]
             0x0001036a: c0 77:       retsp (u6)      0x0

<_cleanup>:
             0x0001036c: 41 77:       entsp (u6)      0x1
             0x0001036e: 00 f0 52 d0: bl (lu10)       0x52 <.label18>
             0x00010372: c1 77:       retsp (u6)      0x1

<_done>:
             0x00010374: 07 68:       ldc (ru6)       r0, 0x7
             0x00010376: 00 f0 11 d4: bl (lu10)       -0x11 <_DoSyscall>
             0x0001037a: ed 07:       clre (0r)       
             0x0001037c: ec 07:       waiteu (0r)     

Disassembly of section section .init (size: 92)

<_init>:
.label3      0x0001037e: 41 77:       entsp (u6)      0x1
             0x00010380: 00 f0 56 d8: ldap (lu10)     r11, 0x56 <.label1>
             0x00010384: 8c 91:       add (2rus)      r0, r11, 0x0
             0x00010386: 40 68:       ldc (ru6)       r1, 0x0
             0x00010388: 00 f0 52 d8: ldap (lu10)     r11, 0x52 <.label1>
             0x0001038c: ac 19:       sub (3r)        r2, r11, r0
             0x0001038e: 00 f0 92 d4: bl (lu10)       -0x92 <.label19>
             0x00010392: 00 f0 79 d8: ldap (lu10)     r11, 0x79 <.label20>
             0x00010396: 8c 91:       add (2rus)      r0, r11, 0x0
             0x00010398: 40 68:       ldc (ru6)       r1, 0x0
             0x0001039a: 00 f0 87 d8: ldap (lu10)     r11, 0x87 <.label21>
             0x0001039e: ac 19:       sub (3r)        r2, r11, r0
             0x000103a0: 00 f0 9b d4: bl (lu10)       -0x9b <.label19>
             0x000103a4: 00 f0 22 d4: bl (lu10)       -0x22 <.label22>
             0x000103a8: 00 f0 6c d8: ldap (lu10)     r11, 0x6c <.label23>
             0x000103ac: 8c 91:       add (2rus)      r0, r11, 0x0
             0x000103ae: 00 f0 58 60: ldaw (lru6)     r1, dp[0x18]
             0x000103b2: 80 68:       ldc (ru6)       r2, 0x0
             0x000103b4: c0 68:       ldc (ru6)       r3, 0x0
             0x000103b6: 00 f0 88 d5: bl (lu10)       -0x188 <.label24>
             0x000103ba: 00 f0 14 59: ldw (lru6)      r4, dp[0x14]
             0x000103be: 02 a9:       shr (2rus)      r4, r4, 0x2
             0x000103c0: 0b 79:       bf (ru6)        r4, 0xb <do_ctors_end>
             0x000103c2: 00 f0 35 d8: ldap (lu10)     r11, 0x35 <.label1>
             0x000103c6: dc 91:       add (2rus)      r5, r11, 0x0
             0x000103c8: 00 f0 93 59: ldw (lru6)      r6, dp[0x13]
             0x000103cc: 66 1b:       sub (3r)        r6, r5, r6

<do_ctors_loop>:
             0x000103ce: 01 99:       sub (2rus)      r4, r4, 0x1
             0x000103d0: 04 4b:       ldw (3r)        r0, r5[r4]
             0x000103d2: 42 12:       add (3r)        r0, r0, r6
             0x000103d4: e0 27:       bla (1r)        r0
             0x000103d6: 05 75:       bt (ru6)        r4, -0x5 <do_ctors_loop>

<do_ctors_end>:
             0x000103d8: c1 77:       retsp (u6)      0x1

Disassembly of section section .fini (size: 58)

<_fini>:
.label6      0x000103da: 41 77:       entsp (u6)      0x1
             0x000103dc: 85 77:       extsp (u6)      0x5
             0x000103de: 01 55:       stw (ru6)       r4, sp[0x1]
             0x000103e0: 42 55:       stw (ru6)       r5, sp[0x2]
             0x000103e2: 83 55:       stw (ru6)       r6, sp[0x3]
             0x000103e4: c4 55:       stw (ru6)       r7, sp[0x4]
             0x000103e6: 00 f0 c2 59: ldw (lru6)      r7, dp[0x2]
             0x000103ea: 3e a9:       shr (2rus)      r7, r7, 0x2
             0x000103ec: cd 79:       bf (ru6)        r7, 0xd <do_dtors_end>
             0x000103ee: 00 69:       ldc (ru6)       r4, 0x0
             0x000103f0: 00 f0 1e d8: ldap (lu10)     r11, 0x1e <.label1>
             0x000103f4: dc 91:       add (2rus)      r5, r11, 0x0
             0x000103f6: 00 f0 81 59: ldw (lru6)      r6, dp[0x1]
             0x000103fa: 66 1b:       sub (3r)        r6, r5, r6

<do_dtors_loop>:
             0x000103fc: 04 4b:       ldw (3r)        r0, r5[r4]
             0x000103fe: 42 12:       add (3r)        r0, r0, r6
             0x00010400: e0 27:       bla (1r)        r0
             0x00010402: 01 91:       add (2rus)      r4, r4, 0x1
             0x00010404: b3 cb:       lsu (3r)        r11, r4, r7
             0x00010406: c6 76:       bt (ru6)        r11, -0x6 <do_dtors_loop>

<do_dtors_end>:
             0x00010408: 01 5d:       ldw (ru6)       r4, sp[0x1]
             0x0001040a: 42 5d:       ldw (ru6)       r5, sp[0x2]
             0x0001040c: 83 5d:       ldw (ru6)       r6, sp[0x3]
             0x0001040e: c4 5d:       ldw (ru6)       r7, sp[0x4]
             0x00010410: 85 67:       ldaw (ru6)      sp, sp[0x5]
             0x00010412: c1 77:       retsp (u6)      0x1

Disassembly of section section .gnu.linkonce.t.__call_exitprocs_impl (size: 2)

<__call_exitprocs_impl>:
.label17     0x00010414: c0 77:       retsp (u6)      0x0

Disassembly of section section .gnu.linkonce.t._cleanup_impl (size: 2)

<_cleanup_impl>:
.label18     0x00010416: c0 77:       retsp (u6)      0x0

Disassembly of section section .rodata (size: 4)

<_RamSize>:
.label2      0x00010418: 00 00 01 00: 

Disassembly of section section .cp.const4 (size: 20)

<thisChanendZero>:
<.CPM0>:
.label0      0x0001041c: 02 00 01 00: 

<nextChanendZero>:
<.CPM1>:
             0x00010420: 02 00 02 00: 

<.CPM2>:
             0x00010424: 2d 7f 95 4c: 

<.CPM3>:
             0x00010428: 2d f4 51 58: 

<.CPM4>:
             0x0001042c: ff ff ff 7f: 

Disassembly of section section .dp.data (size: 84)

<_dp>:
<_NullPtr>:
.label1      0x00010430: 00 00 00 00: 

<dtor_list_ptr>:
             0x00010434: 30 04 01 00: 

<dtors_size>:
             0x00010438: 00 00 00 00: 

<_rand_next>:
             0x0001043c: 01 00 00 00: 
             0x00010440: 00 00 00 00: 
             0x00010444: 01 00 00 00: 
             0x00010448: 00 00 00 00: 
             0x0001044c: 01 00 00 00: 
             0x00010450: 00 00 00 00: 
             0x00010454: 01 00 00 00: 
             0x00010458: 00 00 00 00: 
             0x0001045c: 01 00 00 00: 
             0x00010460: 00 00 00 00: 
             0x00010464: 01 00 00 00: 
             0x00010468: 00 00 00 00: 
             0x0001046c: 01 00 00 00: 
             0x00010470: 00 00 00 00: 
             0x00010474: 01 00 00 00: 
             0x00010478: 00 00 00 00: 

<ctor_list_ptr>:
             0x0001047c: 30 04 01 00: 

<ctors_size>:
             0x00010480: 00 00 00 00: 

Disassembly of section section .eh_frame (size: 4)

<__EH_FRAME_BEGIN__>:
<__EH_FRAME_END__>:
.label23     0x00010484: 00 00 00 00: 

Disassembly of section section .netinfo (size: 56)

             0x00000000: 5c a1 ab 1e: 
<main.parinfo.debugstring0>:
             0x00000004: 23 20 32 38: 
             0x00000008: 20 22 73 65: 
             0x0000000c: 6c 65 63 74: 
             0x00000010: 2e 78 63 22: 
             0x00000014: 00 23 20 32: 
             0x00000018: 36 20 22 73: 
             0x0000001c: 65 6c 65 63: 
             0x00000020: 74 2e 78 63: 
             0x00000024: 22 00 00 00: 
             0x00000028: 00 00 00 00: 
             0x0000002c: 00 00 00 00: 
             0x00000030: 00 00 00 00: 
             0x00000034: 00 00 00 00: 

Disassembly of section section .xtaendpointtable (size: 114)

             0x00000000: 72 00 00 00: 
             0x00000004: 00 00 00 00: 
             0x00000008: 2f 55 73 65: 
             0x0000000c: 72 73 2f 76: 
             0x00000010: 6c 69 6f 6e: 
             0x00000014: 2f 44 6f 63: 
             0x00000018: 75 6d 65 6e: 
             0x0000001c: 74 73 2f 6d: 
             0x00000020: 61 73 74 65: 
             0x00000024: 72 73 2f 70: 
             0x00000028: 72 6f 67 72: 
             0x0000002c: 61 6d 73 5f: 
             0x00000030: 6f 66 5f 69: 
             0x00000034: 6e 74 65 72: 
             0x00000038: 65 73 74 00: 
             0x0000003c: 73 65 6c 65: 
             0x00000040: 63 74 2e 78: 
             0x00000044: 63 00 40 00: 
             0x00000048: 00 00 18 01: 
             0x0000004c: 01 00 73 65: 
             0x00000050: 6c 65 63 74: 
             0x00000054: 2e 78 63 00: 
             0x00000058: 17 00 00 00: 
             0x0000005c: de 00 01 00: 
             0x00000060: 73 65 6c 65: 
             0x00000064: 63 74 2e 78: 
             0x00000068: 63 00 15 00: 
             0x0000006c: 00 00 ba 00: 
             0x00000070: 01 00 00 00: 

Disassembly of section section .xtalabeltable (size: 406)

             0x00000000: 2e 01 00 00: 
             0x00000004: 00 00 00 00: 
             0x00000008: 2f 55 73 65: 
             0x0000000c: 72 73 2f 76: 
             0x00000010: 6c 69 6f 6e: 
             0x00000014: 2f 44 6f 63: 
             0x00000018: 75 6d 65 6e: 
             0x0000001c: 74 73 2f 6d: 
             0x00000020: 61 73 74 65: 
             0x00000024: 72 73 2f 70: 
             0x00000028: 72 6f 67 72: 
             0x0000002c: 61 6d 73 5f: 
             0x00000030: 6f 66 5f 69: 
             0x00000034: 6e 74 65 72: 
             0x00000038: 65 73 74 00: 
             0x0000003c: 73 65 6c 65: 
             0x00000040: 63 74 2e 78: 
             0x00000044: 63 00 54 00: 
             0x00000048: 00 00 54 00: 
             0x0000004c: 00 00 2a 01: 
             0x00000050: 01 00 73 65: 
             0x00000054: 6c 65 63 74: 
             0x00000058: 2e 78 63 00: 
             0x0000005c: 3d 00 00 00: 
             0x00000060: 3d 00 00 00: 
             0x00000064: 22 01 01 00: 
             0x00000068: 73 65 6c 65: 
             0x0000006c: 63 74 2e 78: 
             0x00000070: 63 00 40 00: 
             0x00000074: 00 00 40 00: 
             0x00000078: 00 00 0c 01: 
             0x0000007c: 01 00 73 65: 
             0x00000080: 6c 65 63 74: 
             0x00000084: 2e 78 63 00: 
             0x00000088: 3f 00 00 00: 
             0x0000008c: 3f 00 00 00: 
             0x00000090: 00 01 01 00: 
             0x00000094: 73 65 6c 65: 
             0x00000098: 63 74 2e 78: 
             0x0000009c: 63 00 3d 00: 
             0x000000a0: 00 00 3d 00: 
             0x000000a4: 00 00 f6 00: 
             0x000000a8: 01 00 73 65: 
             0x000000ac: 6c 65 63 74: 
             0x000000b0: 2e 78 63 00: 
             0x000000b4: 3d 00 00 00: 
             0x000000b8: 3d 00 00 00: 
             0x000000bc: f2 00 01 00: 
             0x000000c0: 73 65 6c 65: 
             0x000000c4: 63 74 2e 78: 
             0x000000c8: 63 00 3a 00: 
             0x000000cc: 00 00 3a 00: 
             0x000000d0: 00 00 ec 00: 
             0x000000d4: 01 00 73 65: 
             0x000000d8: 6c 65 63 74: 
             0x000000dc: 2e 78 63 00: 
             0x000000e0: 18 00 00 00: 
             0x000000e4: 18 00 00 00: 
             0x000000e8: e4 00 01 00: 
             0x000000ec: 73 65 6c 65: 
             0x000000f0: 63 74 2e 78: 
             0x000000f4: 63 00 17 00: 
             0x000000f8: 00 00 17 00: 
             0x000000fc: 00 00 d2 00: 
             0x00000100: 01 00 73 65: 
             0x00000104: 6c 65 63 74: 
             0x00000108: 2e 78 63 00: 
             0x0000010c: 16 00 00 00: 
             0x00000110: 16 00 00 00: 
             0x00000114: c2 00 01 00: 
             0x00000118: 73 65 6c 65: 
             0x0000011c: 63 74 2e 78: 
             0x00000120: 63 00 15 00: 
             0x00000124: 00 00 15 00: 
             0x00000128: 00 00 b4 00: 
             0x0000012c: 01 00 68 00: 
             0x00000130: 00 00 00 00: 
             0x00000134: 00 00 2f 55: 
             0x00000138: 73 65 72 73: 
             0x0000013c: 2f 76 6c 69: 
             0x00000140: 6f 6e 2f 44: 
             0x00000144: 6f 63 75 6d: 
             0x00000148: 65 6e 74 73: 
             0x0000014c: 2f 6d 61 73: 
             0x00000150: 74 65 72 73: 
             0x00000154: 2f 70 72 6f: 
             0x00000158: 67 72 61 6d: 
             0x0000015c: 73 5f 6f 66: 
             0x00000160: 5f 69 6e 74: 
             0x00000164: 65 72 65 73: 
             0x00000168: 74 00 73 65: 
             0x0000016c: 6c 65 63 74: 
             0x00000170: 2e 78 63 00: 
             0x00000174: 1d 00 00 00: 
             0x00000178: 1d 00 00 00: 
             0x0000017c: 36 01 01 00: 
             0x00000180: 73 65 6c 65: 
             0x00000184: 63 74 2e 78: 
             0x00000188: 63 00 1c 00: 
             0x0000018c: 00 00 1c 00: 
             0x00000190: 00 00 30 01: 
             0x00000194: 01 00 00 00: 

Disassembly of section section .xtasystem (size: 46)

             0x00000000: 2e 00 00 00: 
             0x00000004: 00 00 00 00: 
             0x00000008: 64 69 72 00: 
             0x0000000c: 66 63 6c 6f: 
             0x00000010: 73 65 00 63: 
             0x00000014: 72 74 31 2e: 
             0x00000018: 73 00 00 00: 
             0x0000001c: 00 00 65 78: 
             0x00000020: 69 74 00 63: 
             0x00000024: 72 74 31 2e: 
             0x00000028: 73 00 00 00: 
             0x0000002c: 00 00 00 00: 

Disassembly of section section .xtathreadstart (size: 8)

             0x00000000: 00 00 01 00: 
             0x00000004: 84 00 01 00: 

Disassembly of section section .xtathreadstop (size: 16)

             0x00000000: 88 00 01 00: 
             0x00000004: 30 02 01 00: 
             0x00000008: 52 02 01 00: 
             0x0000000c: 7c 03 01 00: 

Disassembly of section section .xmosnote (size: 20)

             0x00000000: 04 00 00 00: 
             0x00000004: 03 00 00 00: 
             0x00000008: 02 00 00 00: 
             0x0000000c: 58 4d 4f 53: 
             0x00000010: 58 53 31 00: 

Disassembly of section section .xmosnote (size: 20)

             0x00000000: 04 00 00 00: 
             0x00000004: 04 00 00 00: 
             0x00000008: 03 00 00 00: 
             0x0000000c: 58 4d 4f 53: 
             0x00000010: 52 45 56 42: 

Disassembly of section section .xmosnote (size: 36)

             0x00000000: 04 00 00 00: 
             0x00000004: 14 00 00 00: 
             0x00000008: 01 00 00 00: 
             0x0000000c: 58 4d 4f 53: 
             0x00000010: 31 31 2e 32: 
             0x00000014: 2e 32 20 28: 
             0x00000018: 62 75 69 6c: 
             0x0000001c: 64 20 31 39: 
             0x00000020: 38 31 29 00: 

Disassembly of section section .expr (size: 4100)

             0x00000000: 41 00 00 00: 
             0x00000004: 0c 00 00 00: 
             0x00000008: 11 00 00 00: 
             0x0000000c: 00 00 00 00: 
             0x00000010: 00 00 00 00: 
             0x00000014: 01 07 00 00: 
             0x00000018: 0e 00 00 00: 
             0x0000001c: 0d 00 00 00: 
             0x00000020: 00 00 00 00: 
             0x00000024: 00 00 00 00: 
             0x00000028: 01 03 00 00: 
             0x0000002c: 0f 00 00 00: 
             0x00000030: 12 00 00 00: 
             0x00000034: 00 00 00 00: 
             0x00000038: 00 00 00 00: 
             0x0000003c: 01 03 00 00: 
             0x00000040: 0f 00 00 00: 
             0x00000044: 13 00 00 00: 
             0x00000048: 00 00 00 00: 
             0x0000004c: 00 00 00 00: 
             0x00000050: 01 03 00 00: 
             0x00000054: 0f 00 00 00: 
             0x00000058: 14 00 00 00: 
             0x0000005c: 00 00 00 00: 
             0x00000060: 00 00 00 00: 
             0x00000064: 01 03 00 00: 
             0x00000068: 0f 00 00 00: 
             0x0000006c: 15 00 00 00: 
             0x00000070: 00 00 00 00: 
             0x00000074: 00 00 00 00: 
             0x00000078: 01 03 00 00: 
             0x0000007c: 0f 00 00 00: 
             0x00000080: 16 00 00 00: 
             0x00000084: 00 00 00 00: 
             0x00000088: 00 00 00 00: 
             0x0000008c: 01 03 00 00: 
             0x00000090: 0f 00 00 00: 
             0x00000094: 17 00 00 00: 
             0x00000098: 00 00 00 00: 
             0x0000009c: 00 00 00 00: 
             0x000000a0: 01 03 00 00: 
             0x000000a4: 0f 00 00 00: 
             0x000000a8: 18 00 00 00: 
             0x000000ac: 00 00 00 00: 
             0x000000b0: 00 00 00 00: 
             0x000000b4: 01 03 00 00: 
             0x000000b8: 0f 00 00 00: 
             0x000000bc: 19 00 00 00: 
             0x000000c0: 00 00 00 00: 
             0x000000c4: 00 00 00 00: 
             0x000000c8: 41 04 00 00: 
             0x000000cc: 0f 00 00 00: 
             0x000000d0: 1a 00 00 00: 
             0x000000d4: 00 00 00 00: 
             0x000000d8: 00 00 00 00: 
             0x000000dc: c1 04 00 00: 
             0x000000e0: 0f 00 00 00: 
             0x000000e4: 1b 00 00 00: 
             0x000000e8: 00 00 00 00: 
             0x000000ec: 00 00 00 00: 
             0x000000f0: 01 05 00 00: 
             0x000000f4: 0f 00 00 00: 
             0x000000f8: 1c 00 00 00: 
             0x000000fc: 00 00 00 00: 
             0x00000100: 00 00 00 00: 
             0x00000104: 41 05 00 00: 
             0x00000108: 0f 00 00 00: 
             0x0000010c: 1d 00 00 00: 
             0x00000110: 00 00 00 00: 
             0x00000114: 00 00 00 00: 
             0x00000118: 42 09 00 00: 
             0x0000011c: 0f 00 00 00: 
             0x00000120: 78 13 00 00: 
             0x00000124: 00 00 00 00: 
             0x00000128: 00 00 00 00: 
             0x0000012c: 42 09 00 00: 
             0x00000130: 0f 00 00 00: 
             0x00000134: 78 13 00 00: 
             0x00000138: 00 00 00 00: 
             0x0000013c: 00 00 00 00: 
             0x00000140: 41 04 00 00: 
             0x00000144: 12 00 00 00: 
             0x00000148: 1e 00 00 00: 
             0x0000014c: 00 00 00 00: 
             0x00000150: 00 00 00 00: 
             0x00000154: c1 04 00 00: 
             0x00000158: 12 00 00 00: 
             0x0000015c: 25 00 00 00: 
             0x00000160: 00 00 00 00: 
             0x00000164: 00 00 00 00: 
             0x00000168: 01 05 00 00: 
             0x0000016c: 12 00 00 00: 
             0x00000170: 2d 00 00 00: 
             0x00000174: 00 00 00 00: 
             0x00000178: 00 00 00 00: 
             0x0000017c: 41 05 00 00: 
             0x00000180: 12 00 00 00: 
             0x00000184: 35 00 00 00: 
             0x00000188: 00 00 00 00: 
             0x0000018c: 00 00 00 00: 
             0x00000190: 41 04 00 00: 
             0x00000194: 13 00 00 00: 
             0x00000198: 1f 00 00 00: 
             0x0000019c: 00 00 00 00: 
             0x000001a0: 00 00 00 00: 
             0x000001a4: c1 04 00 00: 
             0x000001a8: 13 00 00 00: 
             0x000001ac: 26 00 00 00: 
             0x000001b0: 00 00 00 00: 
             0x000001b4: 00 00 00 00: 
             0x000001b8: 01 05 00 00: 
             0x000001bc: 13 00 00 00: 
             0x000001c0: 2e 00 00 00: 
             0x000001c4: 00 00 00 00: 
             0x000001c8: 00 00 00 00: 
             0x000001cc: 41 05 00 00: 
             0x000001d0: 13 00 00 00: 
             0x000001d4: 36 00 00 00: 
             0x000001d8: 00 00 00 00: 
             0x000001dc: 00 00 00 00: 
             0x000001e0: 41 04 00 00: 
             0x000001e4: 14 00 00 00: 
             0x000001e8: 20 00 00 00: 
             0x000001ec: 00 00 00 00: 
             0x000001f0: 00 00 00 00: 
             0x000001f4: c1 04 00 00: 
             0x000001f8: 14 00 00 00: 
             0x000001fc: 27 00 00 00: 
             0x00000200: 00 00 00 00: 
             0x00000204: 00 00 00 00: 
             0x00000208: 01 05 00 00: 
             0x0000020c: 14 00 00 00: 
             0x00000210: 2f 00 00 00: 
             0x00000214: 00 00 00 00: 
             0x00000218: 00 00 00 00: 
             0x0000021c: 41 05 00 00: 
             0x00000220: 14 00 00 00: 
             0x00000224: 37 00 00 00: 
             0x00000228: 00 00 00 00: 
             0x0000022c: 00 00 00 00: 
             0x00000230: 41 04 00 00: 
             0x00000234: 15 00 00 00: 
             0x00000238: 21 00 00 00: 
             0x0000023c: 00 00 00 00: 
             0x00000240: 00 00 00 00: 
             0x00000244: c1 04 00 00: 
             0x00000248: 15 00 00 00: 
             0x0000024c: 28 00 00 00: 
             0x00000250: 00 00 00 00: 
             0x00000254: 00 00 00 00: 
             0x00000258: 01 05 00 00: 
             0x0000025c: 15 00 00 00: 
             0x00000260: 30 00 00 00: 
             0x00000264: 00 00 00 00: 
             0x00000268: 00 00 00 00: 
             0x0000026c: 41 05 00 00: 
             0x00000270: 15 00 00 00: 
             0x00000274: 38 00 00 00: 
             0x00000278: 00 00 00 00: 
             0x0000027c: 00 00 00 00: 
             0x00000280: 41 04 00 00: 
             0x00000284: 16 00 00 00: 
             0x00000288: 22 00 00 00: 
             0x0000028c: 00 00 00 00: 
             0x00000290: 00 00 00 00: 
             0x00000294: c1 04 00 00: 
             0x00000298: 16 00 00 00: 
             0x0000029c: 29 00 00 00: 
             0x000002a0: 00 00 00 00: 
             0x000002a4: 00 00 00 00: 
             0x000002a8: 01 05 00 00: 
             0x000002ac: 16 00 00 00: 
             0x000002b0: 31 00 00 00: 
             0x000002b4: 00 00 00 00: 
             0x000002b8: 00 00 00 00: 
             0x000002bc: 41 05 00 00: 
             0x000002c0: 16 00 00 00: 
             0x000002c4: 39 00 00 00: 
             0x000002c8: 00 00 00 00: 
             0x000002cc: 00 00 00 00: 
             0x000002d0: 01 03 00 00: 
             0x000002d4: 17 00 00 00: 
             0x000002d8: 80 00 00 00: 
             0x000002dc: 00 00 00 00: 
             0x000002e0: 00 00 00 00: 
             0x000002e4: 41 04 00 00: 
             0x000002e8: 17 00 00 00: 
             0x000002ec: 0d 00 00 00: 
             0x000002f0: 00 00 00 00: 
             0x000002f4: 00 00 00 00: 
             0x000002f8: c1 04 00 00: 
             0x000002fc: 17 00 00 00: 
             0x00000300: 2a 00 00 00: 
             0x00000304: 00 00 00 00: 
             0x00000308: 00 00 00 00: 
             0x0000030c: 01 05 00 00: 
             0x00000310: 17 00 00 00: 
             0x00000314: 32 00 00 00: 
             0x00000318: 00 00 00 00: 
             0x0000031c: 00 00 00 00: 
             0x00000320: 41 05 00 00: 
             0x00000324: 17 00 00 00: 
             0x00000328: 3a 00 00 00: 
             0x0000032c: 00 00 00 00: 
             0x00000330: 00 00 00 00: 
             0x00000334: 42 09 00 00: 
             0x00000338: 17 00 00 00: 
             0x0000033c: 80 13 00 00: 
             0x00000340: 00 00 00 00: 
             0x00000344: 00 00 00 00: 
             0x00000348: 42 09 00 00: 
             0x0000034c: 17 00 00 00: 
             0x00000350: 80 13 00 00: 
             0x00000354: 00 00 00 00: 
             0x00000358: 00 00 00 00: 
             0x0000035c: 41 04 00 00: 
             0x00000360: 18 00 00 00: 
             0x00000364: 23 00 00 00: 
             0x00000368: 00 00 00 00: 
             0x0000036c: 00 00 00 00: 
             0x00000370: c1 04 00 00: 
             0x00000374: 18 00 00 00: 
             0x00000378: 2b 00 00 00: 
             0x0000037c: 00 00 00 00: 
             0x00000380: 00 00 00 00: 
             0x00000384: 01 05 00 00: 
             0x00000388: 18 00 00 00: 
             0x0000038c: 33 00 00 00: 
             0x00000390: 00 00 00 00: 
             0x00000394: 00 00 00 00: 
             0x00000398: 41 05 00 00: 
             0x0000039c: 18 00 00 00: 
             0x000003a0: 3b 00 00 00: 
             0x000003a4: 00 00 00 00: 
             0x000003a8: 00 00 00 00: 
             0x000003ac: c1 07 00 00: 
             0x000003b0: 18 00 00 00: 
             0x000003b4: b2 00 00 00: 
             0x000003b8: 00 00 00 00: 
             0x000003bc: 00 00 00 00: 
             0x000003c0: 01 06 00 00: 
             0x000003c4: 18 00 00 00: 
             0x000003c8: b3 00 00 00: 
             0x000003cc: 00 00 00 00: 
             0x000003d0: 00 00 00 00: 
             0x000003d4: 42 09 00 00: 
             0x000003d8: 18 00 00 00: 
             0x000003dc: 78 13 00 00: 
             0x000003e0: 00 00 00 00: 
             0x000003e4: 00 00 00 00: 
             0x000003e8: 42 09 00 00: 
             0x000003ec: 18 00 00 00: 
             0x000003f0: 78 13 00 00: 
             0x000003f4: 00 00 00 00: 
             0x000003f8: 00 00 00 00: 
             0x000003fc: 41 04 00 00: 
             0x00000400: 19 00 00 00: 
             0x00000404: 24 00 00 00: 
             0x00000408: 00 00 00 00: 
             0x0000040c: 00 00 00 00: 
             0x00000410: c1 04 00 00: 
             0x00000414: 19 00 00 00: 
             0x00000418: 2c 00 00 00: 
             0x0000041c: 00 00 00 00: 
             0x00000420: 00 00 00 00: 
             0x00000424: 01 05 00 00: 
             0x00000428: 19 00 00 00: 
             0x0000042c: 34 00 00 00: 
             0x00000430: 00 00 00 00: 
             0x00000434: 00 00 00 00: 
             0x00000438: 41 05 00 00: 
             0x0000043c: 19 00 00 00: 
             0x00000440: 3c 00 00 00: 
             0x00000444: 00 00 00 00: 
             0x00000448: 00 00 00 00: 
             0x0000044c: c1 07 00 00: 
             0x00000450: 19 00 00 00: 
             0x00000454: c0 00 00 00: 
             0x00000458: 00 00 00 00: 
             0x0000045c: 00 00 00 00: 
             0x00000460: 01 06 00 00: 
             0x00000464: 19 00 00 00: 
             0x00000468: c1 00 00 00: 
             0x0000046c: 00 00 00 00: 
             0x00000470: 00 00 00 00: 
             0x00000474: 42 09 00 00: 
             0x00000478: 19 00 00 00: 
             0x0000047c: 89 13 00 00: 
             0x00000480: 00 00 00 00: 
             0x00000484: 00 00 00 00: 
             0x00000488: 42 09 00 00: 
             0x0000048c: 19 00 00 00: 
             0x00000490: 89 13 00 00: 
             0x00000494: 00 00 00 00: 
             0x00000498: 00 00 00 00: 
             0x0000049c: 41 00 00 00: 
             0x000004a0: 2a 00 00 00: 
             0x000004a4: 82 00 00 00: 
             0x000004a8: 00 00 00 00: 
             0x000004ac: 00 00 00 00: 
             0x000004b0: 41 00 00 00: 
             0x000004b4: 32 00 00 00: 
             0x000004b8: 83 00 00 00: 
             0x000004bc: 00 00 00 00: 
             0x000004c0: 00 00 00 00: 
             0x000004c4: 41 04 00 00: 
             0x000004c8: 43 00 00 00: 
             0x000004cc: db 00 00 00: 
             0x000004d0: 00 00 00 00: 
             0x000004d4: 00 00 00 00: 
             0x000004d8: c1 04 00 00: 
             0x000004dc: 43 00 00 00: 
             0x000004e0: dc 00 00 00: 
             0x000004e4: 00 00 00 00: 
             0x000004e8: 00 00 00 00: 
             0x000004ec: 01 05 00 00: 
             0x000004f0: 43 00 00 00: 
             0x000004f4: dd 00 00 00: 
             0x000004f8: 00 00 00 00: 
             0x000004fc: 00 00 00 00: 
             0x00000500: 41 05 00 00: 
             0x00000504: 43 00 00 00: 
             0x00000508: de 00 00 00: 
             0x0000050c: 00 00 00 00: 
             0x00000510: 00 00 00 00: 
             0x00000514: c1 07 00 00: 
             0x00000518: 43 00 00 00: 
             0x0000051c: df 00 00 00: 
             0x00000520: 00 00 00 00: 
             0x00000524: 00 00 00 00: 
             0x00000528: 01 06 00 00: 
             0x0000052c: 43 00 00 00: 
             0x00000530: e0 00 00 00: 
             0x00000534: 00 00 00 00: 
             0x00000538: 00 00 00 00: 
             0x0000053c: 42 09 00 00: 
             0x00000540: 43 00 00 00: 
             0x00000544: 78 13 00 00: 
             0x00000548: 00 00 00 00: 
             0x0000054c: 00 00 00 00: 
             0x00000550: 42 09 00 00: 
             0x00000554: 43 00 00 00: 
             0x00000558: 78 13 00 00: 
             0x0000055c: 00 00 00 00: 
             0x00000560: 00 00 00 00: 
             0x00000564: 41 04 00 00: 
             0x00000568: 46 00 00 00: 
             0x0000056c: 47 00 00 00: 
             0x00000570: 00 00 00 00: 
             0x00000574: 00 00 00 00: 
             0x00000578: 41 05 00 00: 
             0x0000057c: 46 00 00 00: 
             0x00000580: 48 00 00 00: 
             0x00000584: 00 00 00 00: 
             0x00000588: 00 00 00 00: 
             0x0000058c: 01 05 00 00: 
             0x00000590: 46 00 00 00: 
             0x00000594: 49 00 00 00: 
             0x00000598: 00 00 00 00: 
             0x0000059c: 00 00 00 00: 
             0x000005a0: c1 04 00 00: 
             0x000005a4: 46 00 00 00: 
             0x000005a8: 4a 00 00 00: 
             0x000005ac: 00 00 00 00: 
             0x000005b0: 00 00 00 00: 
             0x000005b4: 42 09 00 00: 
             0x000005b8: 46 00 00 00: 
             0x000005bc: 78 13 00 00: 
             0x000005c0: 00 00 00 00: 
             0x000005c4: 00 00 00 00: 
             0x000005c8: 42 09 00 00: 
             0x000005cc: 46 00 00 00: 
             0x000005d0: 78 13 00 00: 
             0x000005d4: 00 00 00 00: 
             0x000005d8: 00 00 00 00: 
             0x000005dc: c1 07 00 00: 
             0x000005e0: 4d 00 00 00: 
             0x000005e4: b5 00 00 00: 
             0x000005e8: 00 00 00 00: 
             0x000005ec: 00 00 00 00: 
             0x000005f0: 41 04 00 00: 
             0x000005f4: 4d 00 00 00: 
             0x000005f8: b6 00 00 00: 
             0x000005fc: 00 00 00 00: 
             0x00000600: 00 00 00 00: 
             0x00000604: 41 05 00 00: 
             0x00000608: 4d 00 00 00: 
             0x0000060c: b7 00 00 00: 
             0x00000610: 00 00 00 00: 
             0x00000614: 00 00 00 00: 
             0x00000618: 01 05 00 00: 
             0x0000061c: 4d 00 00 00: 
             0x00000620: b8 00 00 00: 
             0x00000624: 00 00 00 00: 
             0x00000628: 00 00 00 00: 
             0x0000062c: c1 04 00 00: 
             0x00000630: 4d 00 00 00: 
             0x00000634: b9 00 00 00: 
             0x00000638: 00 00 00 00: 
             0x0000063c: 00 00 00 00: 
             0x00000640: 42 09 00 00: 
             0x00000644: 4d 00 00 00: 
             0x00000648: 89 13 00 00: 
             0x0000064c: 00 00 00 00: 
             0x00000650: 00 00 00 00: 
             0x00000654: 42 09 00 00: 
             0x00000658: 4d 00 00 00: 
             0x0000065c: 89 13 00 00: 
             0x00000660: 00 00 00 00: 
             0x00000664: 00 00 00 00: 
             0x00000668: 42 09 00 00: 
             0x0000066c: 4d 00 00 00: 
             0x00000670: 89 13 00 00: 
             0x00000674: 00 00 00 00: 
             0x00000678: 00 00 00 00: 
             0x0000067c: c1 07 00 00: 
             0x00000680: 4e 00 00 00: 
             0x00000684: 9d 00 00 00: 
             0x00000688: 00 00 00 00: 
             0x0000068c: 00 00 00 00: 
             0x00000690: 41 04 00 00: 
             0x00000694: 4e 00 00 00: 
             0x00000698: 9e 00 00 00: 
             0x0000069c: 00 00 00 00: 
             0x000006a0: 00 00 00 00: 
             0x000006a4: 41 05 00 00: 
             0x000006a8: 4e 00 00 00: 
             0x000006ac: 9f 00 00 00: 
             0x000006b0: 00 00 00 00: 
             0x000006b4: 00 00 00 00: 
             0x000006b8: 01 05 00 00: 
             0x000006bc: 4e 00 00 00: 
             0x000006c0: a0 00 00 00: 
             0x000006c4: 00 00 00 00: 
             0x000006c8: 00 00 00 00: 
             0x000006cc: c1 04 00 00: 
             0x000006d0: 4e 00 00 00: 
             0x000006d4: a1 00 00 00: 
             0x000006d8: 00 00 00 00: 
             0x000006dc: 00 00 00 00: 
             0x000006e0: 41 04 00 00: 
             0x000006e4: 50 00 00 00: 
             0x000006e8: c3 00 00 00: 
             0x000006ec: 00 00 00 00: 
             0x000006f0: 00 00 00 00: 
             0x000006f4: c1 04 00 00: 
             0x000006f8: 50 00 00 00: 
             0x000006fc: c4 00 00 00: 
             0x00000700: 00 00 00 00: 
             0x00000704: 00 00 00 00: 
             0x00000708: 01 05 00 00: 
             0x0000070c: 50 00 00 00: 
             0x00000710: c5 00 00 00: 
             0x00000714: 00 00 00 00: 
             0x00000718: 00 00 00 00: 
             0x0000071c: 41 05 00 00: 
             0x00000720: 50 00 00 00: 
             0x00000724: c6 00 00 00: 
             0x00000728: 00 00 00 00: 
             0x0000072c: 00 00 00 00: 
             0x00000730: c1 07 00 00: 
             0x00000734: 50 00 00 00: 
             0x00000738: c7 00 00 00: 
             0x0000073c: 00 00 00 00: 
             0x00000740: 00 00 00 00: 
             0x00000744: 01 06 00 00: 
             0x00000748: 50 00 00 00: 
             0x0000074c: c8 00 00 00: 
             0x00000750: 00 00 00 00: 
             0x00000754: 00 00 00 00: 
             0x00000758: 42 09 00 00: 
             0x0000075c: 50 00 00 00: 
             0x00000760: 92 13 00 00: 
             0x00000764: 00 00 00 00: 
             0x00000768: 00 00 00 00: 
             0x0000076c: 42 09 00 00: 
             0x00000770: 50 00 00 00: 
             0x00000774: 92 13 00 00: 
             0x00000778: 00 00 00 00: 
             0x0000077c: 00 00 00 00: 
             0x00000780: 41 04 00 00: 
             0x00000784: 59 00 00 00: 
             0x00000788: 71 00 00 00: 
             0x0000078c: 00 00 00 00: 
             0x00000790: 00 00 00 00: 
             0x00000794: c1 04 00 00: 
             0x00000798: 59 00 00 00: 
             0x0000079c: 79 00 00 00: 
             0x000007a0: 00 00 00 00: 
             0x000007a4: 00 00 00 00: 
             0x000007a8: 01 05 00 00: 
             0x000007ac: 59 00 00 00: 
             0x000007b0: 77 00 00 00: 
             0x000007b4: 00 00 00 00: 
             0x000007b8: 00 00 00 00: 
             0x000007bc: 41 05 00 00: 
             0x000007c0: 59 00 00 00: 
             0x000007c4: 75 00 00 00: 
             0x000007c8: 00 00 00 00: 
             0x000007cc: 00 00 00 00: 
             0x000007d0: c1 07 00 00: 
             0x000007d4: 59 00 00 00: 
             0x000007d8: cc 00 00 00: 
             0x000007dc: 00 00 00 00: 
             0x000007e0: 00 00 00 00: 
             0x000007e4: 01 06 00 00: 
             0x000007e8: 59 00 00 00: 
             0x000007ec: cd 00 00 00: 
             0x000007f0: 00 00 00 00: 
             0x000007f4: 00 00 00 00: 
             0x000007f8: 42 09 00 00: 
             0x000007fc: 59 00 00 00: 
             0x00000800: 80 13 00 00: 
             0x00000804: 00 00 00 00: 
             0x00000808: 00 00 00 00: 
             0x0000080c: 42 09 00 00: 
             0x00000810: 59 00 00 00: 
             0x00000814: 80 13 00 00: 
             0x00000818: 00 00 00 00: 
             0x0000081c: 00 00 00 00: 
             0x00000820: 42 09 00 00: 
             0x00000824: 59 00 00 00: 
             0x00000828: 80 13 00 00: 
             0x0000082c: 00 00 00 00: 
             0x00000830: 00 00 00 00: 
             0x00000834: 41 04 00 00: 
             0x00000838: 5a 00 00 00: 
             0x0000083c: 70 00 00 00: 
             0x00000840: 00 00 00 00: 
             0x00000844: 00 00 00 00: 
             0x00000848: c1 04 00 00: 
             0x0000084c: 5a 00 00 00: 
             0x00000850: 78 00 00 00: 
             0x00000854: 00 00 00 00: 
             0x00000858: 00 00 00 00: 
             0x0000085c: 01 05 00 00: 
             0x00000860: 5a 00 00 00: 
             0x00000864: 76 00 00 00: 
             0x00000868: 00 00 00 00: 
             0x0000086c: 00 00 00 00: 
             0x00000870: 41 05 00 00: 
             0x00000874: 5a 00 00 00: 
             0x00000878: 74 00 00 00: 
             0x0000087c: 00 00 00 00: 
             0x00000880: 00 00 00 00: 
             0x00000884: c1 07 00 00: 
             0x00000888: 5a 00 00 00: 
             0x0000088c: ca 00 00 00: 
             0x00000890: 00 00 00 00: 
             0x00000894: 00 00 00 00: 
             0x00000898: 01 06 00 00: 
             0x0000089c: 5a 00 00 00: 
             0x000008a0: cb 00 00 00: 
             0x000008a4: 00 00 00 00: 
             0x000008a8: 00 00 00 00: 
             0x000008ac: 42 09 00 00: 
             0x000008b0: 5a 00 00 00: 
             0x000008b4: a6 13 00 00: 
             0x000008b8: 00 00 00 00: 
             0x000008bc: 00 00 00 00: 
             0x000008c0: 42 09 00 00: 
             0x000008c4: 5a 00 00 00: 
             0x000008c8: a6 13 00 00: 
             0x000008cc: 00 00 00 00: 
             0x000008d0: 00 00 00 00: 
             0x000008d4: 42 09 00 00: 
             0x000008d8: 5a 00 00 00: 
             0x000008dc: a6 13 00 00: 
             0x000008e0: 00 00 00 00: 
             0x000008e4: 00 00 00 00: 
             0x000008e8: 01 06 00 00: 
             0x000008ec: 5b 00 00 00: 
             0x000008f0: 5d 00 00 00: 
             0x000008f4: 00 00 00 00: 
             0x000008f8: 00 00 00 00: 
             0x000008fc: c1 07 00 00: 
             0x00000900: 5b 00 00 00: 
             0x00000904: 5e 00 00 00: 
             0x00000908: 00 00 00 00: 
             0x0000090c: 00 00 00 00: 
             0x00000910: 01 03 00 00: 
             0x00000914: 5c 00 00 00: 
             0x00000918: 5b 00 00 00: 
             0x0000091c: 00 00 00 00: 
             0x00000920: 00 00 00 00: 
             0x00000924: 01 06 00 00: 
             0x00000928: 5c 00 00 00: 
             0x0000092c: 63 00 00 00: 
             0x00000930: 00 00 00 00: 
             0x00000934: 00 00 00 00: 
             0x00000938: c1 07 00 00: 
             0x0000093c: 5c 00 00 00: 
             0x00000940: 64 00 00 00: 
             0x00000944: 00 00 00 00: 
             0x00000948: 00 00 00 00: 
             0x0000094c: 41 04 00 00: 
             0x00000950: 5c 00 00 00: 
             0x00000954: 5f 00 00 00: 
             0x00000958: 00 00 00 00: 
             0x0000095c: 00 00 00 00: 
             0x00000960: 41 05 00 00: 
             0x00000964: 5c 00 00 00: 
             0x00000968: 62 00 00 00: 
             0x0000096c: 00 00 00 00: 
             0x00000970: 00 00 00 00: 
             0x00000974: 01 05 00 00: 
             0x00000978: 5c 00 00 00: 
             0x0000097c: 61 00 00 00: 
             0x00000980: 00 00 00 00: 
             0x00000984: 00 00 00 00: 
             0x00000988: c1 04 00 00: 
             0x0000098c: 5c 00 00 00: 
             0x00000990: 60 00 00 00: 
             0x00000994: 00 00 00 00: 
             0x00000998: 00 00 00 00: 
             0x0000099c: 42 09 00 00: 
             0x000009a0: 5c 00 00 00: 
             0x000009a4: 89 13 00 00: 
             0x000009a8: 00 00 00 00: 
             0x000009ac: 00 00 00 00: 
             0x000009b0: 42 09 00 00: 
             0x000009b4: 5c 00 00 00: 
             0x000009b8: 89 13 00 00: 
             0x000009bc: 00 00 00 00: 
             0x000009c0: 00 00 00 00: 
             0x000009c4: 42 09 00 00: 
             0x000009c8: 68 00 00 00: 
             0x000009cc: af 13 00 00: 
             0x000009d0: 00 00 00 00: 
             0x000009d4: 00 00 00 00: 
             0x000009d8: 42 09 00 00: 
             0x000009dc: 68 00 00 00: 
             0x000009e0: af 13 00 00: 
             0x000009e4: 00 00 00 00: 
             0x000009e8: 00 00 00 00: 
             0x000009ec: 42 09 00 00: 
             0x000009f0: 68 00 00 00: 
             0x000009f4: af 13 00 00: 
             0x000009f8: 00 00 00 00: 
             0x000009fc: 00 00 00 00: 
             0x00000a00: 01 03 00 00: 
             0x00000a04: 69 00 00 00: 
             0x00000a08: 5a 00 00 00: 
             0x00000a0c: 00 00 00 00: 
             0x00000a10: 00 00 00 00: 
             0x00000a14: 01 03 00 00: 
             0x00000a18: 69 00 00 00: 
             0x00000a1c: 5c 00 00 00: 
             0x00000a20: 00 00 00 00: 
             0x00000a24: 00 00 00 00: 
             0x00000a28: 01 03 00 00: 
             0x00000a2c: 69 00 00 00: 
             0x00000a30: 59 00 00 00: 
             0x00000a34: 00 00 00 00: 
             0x00000a38: 00 00 00 00: 
             0x00000a3c: 01 06 00 00: 
             0x00000a40: 69 00 00 00: 
             0x00000a44: 6e 00 00 00: 
             0x00000a48: 00 00 00 00: 
             0x00000a4c: 00 00 00 00: 
             0x00000a50: c1 07 00 00: 
             0x00000a54: 69 00 00 00: 
             0x00000a58: 6f 00 00 00: 
             0x00000a5c: 00 00 00 00: 
             0x00000a60: 00 00 00 00: 
             0x00000a64: 41 04 00 00: 
             0x00000a68: 69 00 00 00: 
             0x00000a6c: 6a 00 00 00: 
             0x00000a70: 00 00 00 00: 
             0x00000a74: 00 00 00 00: 
             0x00000a78: 41 05 00 00: 
             0x00000a7c: 69 00 00 00: 
             0x00000a80: 6d 00 00 00: 
             0x00000a84: 00 00 00 00: 
             0x00000a88: 00 00 00 00: 
             0x00000a8c: 01 05 00 00: 
             0x00000a90: 69 00 00 00: 
             0x00000a94: 6c 00 00 00: 
             0x00000a98: 00 00 00 00: 
             0x00000a9c: 00 00 00 00: 
             0x00000aa0: c1 04 00 00: 
             0x00000aa4: 69 00 00 00: 
             0x00000aa8: 6b 00 00 00: 
             0x00000aac: 00 00 00 00: 
             0x00000ab0: 00 00 00 00: 
             0x00000ab4: 42 09 00 00: 
             0x00000ab8: 69 00 00 00: 
             0x00000abc: b7 13 00 00: 
             0x00000ac0: 00 00 00 00: 
             0x00000ac4: 00 00 00 00: 
             0x00000ac8: 42 09 00 00: 
             0x00000acc: 69 00 00 00: 
             0x00000ad0: b7 13 00 00: 
             0x00000ad4: 00 00 00 00: 
             0x00000ad8: 00 00 00 00: 
             0x00000adc: 42 09 00 00: 
             0x00000ae0: 69 00 00 00: 
             0x00000ae4: b7 13 00 00: 
             0x00000ae8: 00 00 00 00: 
             0x00000aec: 00 00 00 00: 
             0x00000af0: 01 03 00 00: 
             0x00000af4: 80 00 00 00: 
             0x00000af8: 69 00 00 00: 
             0x00000afc: 00 00 00 00: 
             0x00000b00: 00 00 00 00: 
             0x00000b04: 01 06 00 00: 
             0x00000b08: 80 00 00 00: 
             0x00000b0c: 85 00 00 00: 
             0x00000b10: 00 00 00 00: 
             0x00000b14: 00 00 00 00: 
             0x00000b18: c1 07 00 00: 
             0x00000b1c: 80 00 00 00: 
             0x00000b20: 86 00 00 00: 
             0x00000b24: 00 00 00 00: 
             0x00000b28: 00 00 00 00: 
             0x00000b2c: 41 04 00 00: 
             0x00000b30: 80 00 00 00: 
             0x00000b34: 81 00 00 00: 
             0x00000b38: 00 00 00 00: 
             0x00000b3c: 00 00 00 00: 
             0x00000b40: 41 05 00 00: 
             0x00000b44: 80 00 00 00: 
             0x00000b48: 84 00 00 00: 
             0x00000b4c: 00 00 00 00: 
             0x00000b50: 00 00 00 00: 
             0x00000b54: 01 05 00 00: 
             0x00000b58: 80 00 00 00: 
             0x00000b5c: 83 00 00 00: 
             0x00000b60: 00 00 00 00: 
             0x00000b64: 00 00 00 00: 
             0x00000b68: c1 04 00 00: 
             0x00000b6c: 80 00 00 00: 
             0x00000b70: 82 00 00 00: 
             0x00000b74: 00 00 00 00: 
             0x00000b78: 00 00 00 00: 
             0x00000b7c: 42 09 00 00: 
             0x00000b80: 80 00 00 00: 
             0x00000b84: c1 13 00 00: 
             0x00000b88: 00 00 00 00: 
             0x00000b8c: 00 00 00 00: 
             0x00000b90: 42 09 00 00: 
             0x00000b94: 80 00 00 00: 
             0x00000b98: c1 13 00 00: 
             0x00000b9c: 00 00 00 00: 
             0x00000ba0: 00 00 00 00: 
             0x00000ba4: 41 00 00 00: 
             0x00000ba8: 83 00 00 00: 
             0x00000bac: 6c 00 00 00: 
             0x00000bb0: 00 00 00 00: 
             0x00000bb4: 00 00 00 00: 
             0x00000bb8: 41 00 00 00: 
             0x00000bbc: 84 00 00 00: 
             0x00000bc0: 6d 00 00 00: 
             0x00000bc4: 00 00 00 00: 
             0x00000bc8: 00 00 00 00: 
             0x00000bcc: 41 04 00 00: 
             0x00000bd0: a3 00 00 00: 
             0x00000bd4: a6 00 00 00: 
             0x00000bd8: 00 00 00 00: 
             0x00000bdc: 00 00 00 00: 
             0x00000be0: c1 04 00 00: 
             0x00000be4: a3 00 00 00: 
             0x00000be8: a9 00 00 00: 
             0x00000bec: 00 00 00 00: 
             0x00000bf0: 00 00 00 00: 
             0x00000bf4: 01 05 00 00: 
             0x00000bf8: a3 00 00 00: 
             0x00000bfc: ac 00 00 00: 
             0x00000c00: 00 00 00 00: 
             0x00000c04: 00 00 00 00: 
             0x00000c08: 41 05 00 00: 
             0x00000c0c: a3 00 00 00: 
             0x00000c10: af 00 00 00: 
             0x00000c14: 00 00 00 00: 
             0x00000c18: 00 00 00 00: 
             0x00000c1c: c1 07 00 00: 
             0x00000c20: a3 00 00 00: 
             0x00000c24: d8 00 00 00: 
             0x00000c28: 00 00 00 00: 
             0x00000c2c: 00 00 00 00: 
             0x00000c30: 01 06 00 00: 
             0x00000c34: a3 00 00 00: 
             0x00000c38: d9 00 00 00: 
             0x00000c3c: 00 00 00 00: 
             0x00000c40: 00 00 00 00: 
             0x00000c44: 42 09 00 00: 
             0x00000c48: a3 00 00 00: 
             0x00000c4c: cc 13 00 00: 
             0x00000c50: 00 00 00 00: 
             0x00000c54: 00 00 00 00: 
             0x00000c58: 42 09 00 00: 
             0x00000c5c: a3 00 00 00: 
             0x00000c60: cc 13 00 00: 
             0x00000c64: 00 00 00 00: 
             0x00000c68: 00 00 00 00: 
             0x00000c6c: 42 09 00 00: 
             0x00000c70: a3 00 00 00: 
             0x00000c74: cc 13 00 00: 
             0x00000c78: 00 00 00 00: 
             0x00000c7c: 00 00 00 00: 
             0x00000c80: 42 09 00 00: 
             0x00000c84: a3 00 00 00: 
             0x00000c88: cc 13 00 00: 
             0x00000c8c: 00 00 00 00: 
             0x00000c90: 00 00 00 00: 
             0x00000c94: 41 04 00 00: 
             0x00000c98: a4 00 00 00: 
             0x00000c9c: a7 00 00 00: 
             0x00000ca0: 00 00 00 00: 
             0x00000ca4: 00 00 00 00: 
             0x00000ca8: c1 04 00 00: 
             0x00000cac: a4 00 00 00: 
             0x00000cb0: aa 00 00 00: 
             0x00000cb4: 00 00 00 00: 
             0x00000cb8: 00 00 00 00: 
             0x00000cbc: 01 05 00 00: 
             0x00000cc0: a4 00 00 00: 
             0x00000cc4: ad 00 00 00: 
             0x00000cc8: 00 00 00 00: 
             0x00000ccc: 00 00 00 00: 
             0x00000cd0: 41 05 00 00: 
             0x00000cd4: a4 00 00 00: 
             0x00000cd8: b0 00 00 00: 
             0x00000cdc: 00 00 00 00: 
             0x00000ce0: 00 00 00 00: 
             0x00000ce4: c1 07 00 00: 
             0x00000ce8: a4 00 00 00: 
             0x00000cec: ea 00 00 00: 
             0x00000cf0: 00 00 00 00: 
             0x00000cf4: 00 00 00 00: 
             0x00000cf8: 01 06 00 00: 
             0x00000cfc: a4 00 00 00: 
             0x00000d00: eb 00 00 00: 
             0x00000d04: 00 00 00 00: 
             0x00000d08: 00 00 00 00: 
             0x00000d0c: 42 09 00 00: 
             0x00000d10: a4 00 00 00: 
             0x00000d14: 78 13 00 00: 
             0x00000d18: 00 00 00 00: 
             0x00000d1c: 00 00 00 00: 
             0x00000d20: 42 09 00 00: 
             0x00000d24: a4 00 00 00: 
             0x00000d28: 78 13 00 00: 
             0x00000d2c: 00 00 00 00: 
             0x00000d30: 00 00 00 00: 
             0x00000d34: 42 09 00 00: 
             0x00000d38: a4 00 00 00: 
             0x00000d3c: 78 13 00 00: 
             0x00000d40: 00 00 00 00: 
             0x00000d44: 00 00 00 00: 
             0x00000d48: 42 09 00 00: 
             0x00000d4c: a4 00 00 00: 
             0x00000d50: 78 13 00 00: 
             0x00000d54: 00 00 00 00: 
             0x00000d58: 00 00 00 00: 
             0x00000d5c: c1 07 00 00: 
             0x00000d60: a5 00 00 00: 
             0x00000d64: ed 00 00 00: 
             0x00000d68: 00 00 00 00: 
             0x00000d6c: 00 00 00 00: 
             0x00000d70: 41 04 00 00: 
             0x00000d74: a5 00 00 00: 
             0x00000d78: a8 00 00 00: 
             0x00000d7c: 00 00 00 00: 
             0x00000d80: 00 00 00 00: 
             0x00000d84: 41 05 00 00: 
             0x00000d88: a5 00 00 00: 
             0x00000d8c: b1 00 00 00: 
             0x00000d90: 00 00 00 00: 
             0x00000d94: 00 00 00 00: 
             0x00000d98: 01 05 00 00: 
             0x00000d9c: a5 00 00 00: 
             0x00000da0: ae 00 00 00: 
             0x00000da4: 00 00 00 00: 
             0x00000da8: 00 00 00 00: 
             0x00000dac: c1 04 00 00: 
             0x00000db0: a5 00 00 00: 
             0x00000db4: ab 00 00 00: 
             0x00000db8: 00 00 00 00: 
             0x00000dbc: 00 00 00 00: 
             0x00000dc0: 42 09 00 00: 
             0x00000dc4: a5 00 00 00: 
             0x00000dc8: 78 13 00 00: 
             0x00000dcc: 00 00 00 00: 
             0x00000dd0: 00 00 00 00: 
             0x00000dd4: 42 09 00 00: 
             0x00000dd8: a5 00 00 00: 
             0x00000ddc: 78 13 00 00: 
             0x00000de0: 00 00 00 00: 
             0x00000de4: 00 00 00 00: 
             0x00000de8: 42 09 00 00: 
             0x00000dec: a5 00 00 00: 
             0x00000df0: 78 13 00 00: 
             0x00000df4: 00 00 00 00: 
             0x00000df8: 00 00 00 00: 
             0x00000dfc: 41 00 00 00: 
             0x00000e00: a8 00 00 00: 
             0x00000e04: ba 00 00 00: 
             0x00000e08: 00 00 00 00: 
             0x00000e0c: 00 00 00 00: 
             0x00000e10: 41 00 00 00: 
             0x00000e14: ab 00 00 00: 
             0x00000e18: bd 00 00 00: 
             0x00000e1c: 00 00 00 00: 
             0x00000e20: 00 00 00 00: 
             0x00000e24: 41 00 00 00: 
             0x00000e28: ae 00 00 00: 
             0x00000e2c: bc 00 00 00: 
             0x00000e30: 00 00 00 00: 
             0x00000e34: 00 00 00 00: 
             0x00000e38: 41 00 00 00: 
             0x00000e3c: b1 00 00 00: 
             0x00000e40: bb 00 00 00: 
             0x00000e44: 00 00 00 00: 
             0x00000e48: 00 00 00 00: 
             0x00000e4c: 41 00 00 00: 
             0x00000e50: b6 00 00 00: 
             0x00000e54: ba 00 00 00: 
             0x00000e58: 00 00 00 00: 
             0x00000e5c: 00 00 00 00: 
             0x00000e60: 41 00 00 00: 
             0x00000e64: b7 00 00 00: 
             0x00000e68: bb 00 00 00: 
             0x00000e6c: 00 00 00 00: 
             0x00000e70: 00 00 00 00: 
             0x00000e74: 41 00 00 00: 
             0x00000e78: b8 00 00 00: 
             0x00000e7c: bc 00 00 00: 
             0x00000e80: 00 00 00 00: 
             0x00000e84: 00 00 00 00: 
             0x00000e88: 41 00 00 00: 
             0x00000e8c: b9 00 00 00: 
             0x00000e90: bd 00 00 00: 
             0x00000e94: 00 00 00 00: 
             0x00000e98: 00 00 00 00: 
             0x00000e9c: 41 04 00 00: 
             0x00000ea0: be 00 00 00: 
             0x00000ea4: ba 00 00 00: 
             0x00000ea8: 00 00 00 00: 
             0x00000eac: 00 00 00 00: 
             0x00000eb0: 41 05 00 00: 
             0x00000eb4: be 00 00 00: 
             0x00000eb8: bb 00 00 00: 
             0x00000ebc: 00 00 00 00: 
             0x00000ec0: 00 00 00 00: 
             0x00000ec4: 01 05 00 00: 
             0x00000ec8: be 00 00 00: 
             0x00000ecc: bc 00 00 00: 
             0x00000ed0: 00 00 00 00: 
             0x00000ed4: 00 00 00 00: 
             0x00000ed8: c1 04 00 00: 
             0x00000edc: be 00 00 00: 
             0x00000ee0: bd 00 00 00: 
             0x00000ee4: 00 00 00 00: 
             0x00000ee8: 00 00 00 00: 
             0x00000eec: 41 04 00 00: 
             0x00000ef0: d1 00 00 00: 
             0x00000ef4: d2 00 00 00: 
             0x00000ef8: 00 00 00 00: 
             0x00000efc: 00 00 00 00: 
             0x00000f00: c1 04 00 00: 
             0x00000f04: d1 00 00 00: 
             0x00000f08: d3 00 00 00: 
             0x00000f0c: 00 00 00 00: 
             0x00000f10: 00 00 00 00: 
             0x00000f14: 01 05 00 00: 
             0x00000f18: d1 00 00 00: 
             0x00000f1c: d4 00 00 00: 
             0x00000f20: 00 00 00 00: 
             0x00000f24: 00 00 00 00: 
             0x00000f28: 41 05 00 00: 
             0x00000f2c: d1 00 00 00: 
             0x00000f30: d5 00 00 00: 
             0x00000f34: 00 00 00 00: 
             0x00000f38: 00 00 00 00: 
             0x00000f3c: c1 07 00 00: 
             0x00000f40: d1 00 00 00: 
             0x00000f44: d6 00 00 00: 
             0x00000f48: 00 00 00 00: 
             0x00000f4c: 00 00 00 00: 
             0x00000f50: 01 06 00 00: 
             0x00000f54: d1 00 00 00: 
             0x00000f58: d7 00 00 00: 
             0x00000f5c: 00 00 00 00: 
             0x00000f60: 00 00 00 00: 
             0x00000f64: 42 09 00 00: 
             0x00000f68: e1 00 00 00: 
             0x00000f6c: da 13 00 00: 
             0x00000f70: 00 00 00 00: 
             0x00000f74: 00 00 00 00: 
             0x00000f78: 42 09 00 00: 
             0x00000f7c: e1 00 00 00: 
             0x00000f80: da 13 00 00: 
             0x00000f84: 00 00 00 00: 
             0x00000f88: 00 00 00 00: 
             0x00000f8c: 41 04 00 00: 
             0x00000f90: e3 00 00 00: 
             0x00000f94: e4 00 00 00: 
             0x00000f98: 00 00 00 00: 
             0x00000f9c: 00 00 00 00: 
             0x00000fa0: c1 04 00 00: 
             0x00000fa4: e3 00 00 00: 
             0x00000fa8: e5 00 00 00: 
             0x00000fac: 00 00 00 00: 
             0x00000fb0: 00 00 00 00: 
             0x00000fb4: 01 05 00 00: 
             0x00000fb8: e3 00 00 00: 
             0x00000fbc: e6 00 00 00: 
             0x00000fc0: 00 00 00 00: 
             0x00000fc4: 00 00 00 00: 
             0x00000fc8: 41 05 00 00: 
             0x00000fcc: e3 00 00 00: 
             0x00000fd0: e7 00 00 00: 
             0x00000fd4: 00 00 00 00: 
             0x00000fd8: 00 00 00 00: 
             0x00000fdc: c1 07 00 00: 
             0x00000fe0: e3 00 00 00: 
             0x00000fe4: e8 00 00 00: 
             0x00000fe8: 00 00 00 00: 
             0x00000fec: 00 00 00 00: 
             0x00000ff0: 01 06 00 00: 
             0x00000ff4: e3 00 00 00: 
             0x00000ff8: e9 00 00 00: 
             0x00000ffc: 00 00 00 00: 
             0x00001000: 00 00 00 00: 

Disassembly of section section .symtab (size: 4048)

             0x00000000: 00 00 00 00: 
             0x00000004: 00 00 00 00: 
             0x00000008: 00 00 00 00: 
             0x0000000c: 00 00 00 00: 
             0x00000010: 00 00 00 00: 
             0x00000014: 00 00 00 00: 
             0x00000018: 00 00 00 00: 
             0x0000001c: 04 00 f1 ff: 
             0x00000020: 02 01 00 00: 
             0x00000024: 1c 04 01 00: 
             0x00000028: 00 00 00 00: 
             0x0000002c: 10 00 03 00: 
             0x00000030: 06 01 00 00: 
             0x00000034: 30 04 01 00: 
             0x00000038: 00 00 00 00: 
             0x0000003c: 10 00 06 00: 
             0x00000040: 0a 01 00 00: 
             0x00000044: 30 04 01 00: 
             0x00000048: 00 00 00 00: 
             0x0000004c: 10 00 01 00: 
             0x00000050: 10 01 00 00: 
             0x00000054: 88 04 01 00: 
             0x00000058: 00 00 00 00: 
             0x0000005c: 10 00 05 00: 
             0x00000060: 19 01 00 00: 
             0x00000064: 30 04 01 00: 
             0x00000068: 00 00 00 00: 
             0x0000006c: 10 00 04 00: 
             0x00000070: 25 01 00 00: 
             0x00000074: 30 04 01 00: 
             0x00000078: 00 00 00 00: 
             0x0000007c: 10 00 07 00: 
             0x00000080: 31 01 00 00: 
             0x00000084: 00 e1 f5 05: 
             0x00000088: 00 00 00 00: 
             0x0000008c: 10 00 f1 ff: 
             0x00000090: 3f 01 00 00: 
             0x00000094: 06 00 00 00: 
             0x00000098: 00 00 00 00: 
             0x0000009c: 10 00 f1 ff: 
             0x000000a0: 4f 01 00 00: 
             0x000000a4: 00 00 00 00: 
             0x000000a8: 00 00 00 00: 
             0x000000ac: 04 00 f1 ff: 
             0x000000b0: 56 01 00 00: 
             0x000000b4: e0 fe 01 00: 
             0x000000b8: 00 00 00 00: 
             0x000000bc: 10 00 f1 ff: 
             0x000000c0: 5d 01 00 00: 
             0x000000c4: ac 04 01 00: 
             0x000000c8: 00 00 00 00: 
             0x000000cc: 10 00 f1 ff: 
             0x000000d0: 64 01 00 00: 
             0x000000d4: 08 00 00 00: 
             0x000000d8: 00 00 00 00: 
             0x000000dc: 10 00 f1 ff: 
             0x000000e0: 75 01 00 00: 
             0x000000e4: 01 00 00 00: 
             0x000000e8: 00 00 00 00: 
             0x000000ec: 00 00 f1 ff: 
             0x000000f0: 8e 01 00 00: 
             0x000000f4: 00 00 01 00: 
             0x000000f8: 00 00 00 00: 
             0x000000fc: 12 00 0f 00: 
             0x00000100: 95 01 00 00: 
             0x00000104: 00 00 01 00: 
             0x00000108: 00 00 00 00: 
             0x0000010c: 10 00 f1 ff: 
             0x00000110: 9f 01 00 00: 
             0x00000114: ac 04 01 00: 
             0x00000118: 00 00 00 00: 
             0x0000011c: 10 00 05 00: 
             0x00000120: a8 01 00 00: 
             0x00000124: a4 00 01 00: 
             0x00000128: 00 00 00 00: 
             0x0000012c: 02 00 0f 00: 
             0x00000130: b4 01 00 00: 
             0x00000134: 30 00 01 00: 
             0x00000138: 00 00 00 00: 
             0x0000013c: 02 00 0f 00: 
             0x00000140: bf 01 00 00: 
             0x00000144: 6c 00 01 00: 
             0x00000148: 00 00 00 00: 
             0x0000014c: 02 00 0f 00: 
             0x00000150: cb 01 00 00: 
             0x00000154: 8a 00 01 00: 
             0x00000158: 00 00 00 00: 
             0x0000015c: 02 00 0f 00: 
             0x00000160: db 01 00 00: 
             0x00000164: 7e 03 01 00: 
             0x00000168: 00 00 00 00: 
             0x0000016c: 12 00 0c 00: 
             0x00000170: e1 01 00 00: 
             0x00000174: 38 01 01 00: 
             0x00000178: 00 00 00 00: 
             0x0000017c: 12 00 0f 00: 
             0x00000180: e6 01 00 00: 
             0x00000184: 32 02 01 00: 
             0x00000188: 16 00 00 00: 
             0x0000018c: 12 00 0f 00: 
             0x00000190: f2 01 00 00: 
             0x00000194: 54 02 01 00: 
             0x00000198: 1a 00 00 00: 
             0x0000019c: 12 00 0f 00: 
             0x000001a0: 01 02 00 00: 
             0x000001a4: 34 00 00 00: 
             0x000001a8: 00 00 00 00: 
             0x000001ac: 10 00 f1 ff: 
             0x000001b0: 14 02 00 00: 
             0x000001b4: 01 00 00 00: 
             0x000001b8: 00 00 00 00: 
             0x000001bc: 10 00 f1 ff: 
             0x000001c0: 26 02 00 00: 
             0x000001c4: 01 00 00 00: 
             0x000001c8: 00 00 00 00: 
             0x000001cc: 10 00 f1 ff: 
             0x000001d0: 37 02 00 00: 
             0x000001d4: 02 00 00 00: 
             0x000001d8: 00 00 00 00: 
             0x000001dc: 10 00 f1 ff: 
             0x000001e0: 4a 02 00 00: 
             0x000001e4: 00 00 00 00: 
             0x000001e8: 00 00 00 00: 
             0x000001ec: 00 00 f1 ff: 
             0x000001f0: 62 02 00 00: 
             0x000001f4: 00 00 00 00: 
             0x000001f8: 00 00 00 00: 
             0x000001fc: 00 00 f1 ff: 
             0x00000200: 79 02 00 00: 
             0x00000204: 00 00 00 00: 
             0x00000208: 00 00 00 00: 
             0x0000020c: 00 00 f1 ff: 
             0x00000210: 91 02 00 00: 
             0x00000214: 00 00 00 00: 
             0x00000218: 00 00 00 00: 
             0x0000021c: 00 00 f1 ff: 
             0x00000220: ad 02 00 00: 
             0x00000224: 32 00 00 00: 
             0x00000228: 00 00 00 00: 
             0x0000022c: 00 00 f1 ff: 
             0x00000230: bf 02 00 00: 
             0x00000234: 33 00 00 00: 
             0x00000238: 00 00 00 00: 
             0x0000023c: 10 00 f1 ff: 
             0x00000240: d7 02 00 00: 
             0x00000244: 34 00 00 00: 
             0x00000248: 00 00 00 00: 
             0x0000024c: 10 00 f1 ff: 
             0x00000250: f2 02 00 00: 
             0x00000254: 01 00 00 00: 
             0x00000258: 00 00 00 00: 
             0x0000025c: 00 00 f1 ff: 
             0x00000260: 09 03 00 00: 
             0x00000264: 01 00 00 00: 
             0x00000268: 00 00 00 00: 
             0x0000026c: 00 00 f1 ff: 
             0x00000270: 1f 03 00 00: 
             0x00000274: 01 00 00 00: 
             0x00000278: 00 00 00 00: 
             0x0000027c: 00 00 f1 ff: 
             0x00000280: 36 03 00 00: 
             0x00000284: 01 00 00 00: 
             0x00000288: 00 00 00 00: 
             0x0000028c: 00 00 f1 ff: 
             0x00000290: 51 03 00 00: 
             0x00000294: 01 00 00 00: 
             0x00000298: 00 00 00 00: 
             0x0000029c: 00 00 f1 ff: 
             0x000002a0: 62 03 00 00: 
             0x000002a4: 01 00 00 00: 
             0x000002a8: 00 00 00 00: 
             0x000002ac: 10 00 f1 ff: 
             0x000002b0: 72 03 00 00: 
             0x000002b4: 01 00 00 00: 
             0x000002b8: 00 00 00 00: 
             0x000002bc: 10 00 f1 ff: 
             0x000002c0: 89 03 00 00: 
             0x000002c4: 01 00 00 00: 
             0x000002c8: 00 00 00 00: 
             0x000002cc: 10 00 f1 ff: 
             0x000002d0: a3 03 00 00: 
             0x000002d4: 00 00 00 00: 
             0x000002d8: 00 00 00 00: 
             0x000002dc: 00 00 f1 ff: 
             0x000002e0: b9 03 00 00: 
             0x000002e4: 00 00 00 00: 
             0x000002e8: 00 00 00 00: 
             0x000002ec: 00 00 f1 ff: 
             0x000002f0: ce 03 00 00: 
             0x000002f4: 00 00 00 00: 
             0x000002f8: 00 00 00 00: 
             0x000002fc: 00 00 f1 ff: 
             0x00000300: e4 03 00 00: 
             0x00000304: 00 00 00 00: 
             0x00000308: 00 00 00 00: 
             0x0000030c: 00 00 f1 ff: 
             0x00000310: fe 03 00 00: 
             0x00000314: 00 00 00 00: 
             0x00000318: 00 00 00 00: 
             0x0000031c: 00 00 f1 ff: 
             0x00000320: 0e 04 00 00: 
             0x00000324: 01 00 00 00: 
             0x00000328: 00 00 00 00: 
             0x0000032c: 10 00 f1 ff: 
             0x00000330: 1d 04 00 00: 
             0x00000334: 00 00 00 00: 
             0x00000338: 00 00 00 00: 
             0x0000033c: 10 00 f1 ff: 
             0x00000340: 33 04 00 00: 
             0x00000344: 00 00 00 00: 
             0x00000348: 00 00 00 00: 
             0x0000034c: 10 00 f1 ff: 
             0x00000350: 4c 04 00 00: 
             0x00000354: 00 00 00 00: 
             0x00000358: 00 00 00 00: 
             0x0000035c: 00 00 f1 ff: 
             0x00000360: 64 04 00 00: 
             0x00000364: 00 00 00 00: 
             0x00000368: 00 00 00 00: 
             0x0000036c: 00 00 f1 ff: 
             0x00000370: 7b 04 00 00: 
             0x00000374: 00 00 00 00: 
             0x00000378: 00 00 00 00: 
             0x0000037c: 00 00 f1 ff: 
             0x00000380: 93 04 00 00: 
             0x00000384: 00 00 00 00: 
             0x00000388: 00 00 00 00: 
             0x0000038c: 00 00 f1 ff: 
             0x00000390: af 04 00 00: 
             0x00000394: 00 00 00 00: 
             0x00000398: 00 00 00 00: 
             0x0000039c: 00 00 f1 ff: 
             0x000003a0: c1 04 00 00: 
             0x000003a4: 02 00 00 00: 
             0x000003a8: 00 00 00 00: 
             0x000003ac: 10 00 f1 ff: 
             0x000003b0: d2 04 00 00: 
             0x000003b4: 00 00 00 00: 
             0x000003b8: 00 00 00 00: 
             0x000003bc: 10 00 f1 ff: 
             0x000003c0: ea 04 00 00: 
             0x000003c4: 00 00 00 00: 
             0x000003c8: 00 00 00 00: 
             0x000003cc: 10 00 f1 ff: 
             0x000003d0: 05 05 00 00: 
             0x000003d4: 26 00 01 00: 
             0x000003d8: 00 00 00 00: 
             0x000003dc: 00 00 0f 00: 
             0x000003e0: 15 05 00 00: 
             0x000003e4: 40 00 01 00: 
             0x000003e8: 00 00 00 00: 
             0x000003ec: 02 00 0f 00: 
             0x000003f0: 24 05 00 00: 
             0x000003f4: 44 00 01 00: 
             0x000003f8: 00 00 00 00: 
             0x000003fc: 00 00 0f 00: 
             0x00000400: 2a 05 00 00: 
             0x00000404: 68 00 01 00: 
             0x00000408: 00 00 00 00: 
             0x0000040c: 00 00 0f 00: 
             0x00000410: 39 05 00 00: 
             0x00000414: 80 00 01 00: 
             0x00000418: 00 00 00 00: 
             0x0000041c: 02 00 0f 00: 
             0x00000420: 46 05 00 00: 
             0x00000424: 84 00 01 00: 
             0x00000428: 00 00 00 00: 
             0x0000042c: 02 00 0f 00: 
             0x00000430: 59 05 00 00: 
             0x00000434: 64 03 01 00: 
             0x00000438: 08 00 00 00: 
             0x0000043c: 12 00 0f 00: 
             0x00000440: 6d 05 00 00: 
             0x00000444: aa 00 01 00: 
             0x00000448: 00 00 00 00: 
             0x0000044c: 12 00 0f 00: 
             0x00000450: 89 05 00 00: 
             0x00000454: aa 00 01 00: 
             0x00000458: 00 00 00 00: 
             0x0000045c: 02 00 0f 00: 
             0x00000460: 9c 05 00 00: 
             0x00000464: da 03 01 00: 
             0x00000468: 00 00 00 00: 
             0x0000046c: 12 00 09 00: 
             0x00000470: a2 05 00 00: 
             0x00000474: 32 00 00 00: 
             0x00000478: 00 00 00 00: 
             0x0000047c: 10 00 f1 ff: 
             0x00000480: b4 05 00 00: 
             0x00000484: 00 00 00 00: 
             0x00000488: 00 00 00 00: 
             0x0000048c: 10 00 f1 ff: 
             0x00000490: c6 05 00 00: 
             0x00000494: 00 00 00 00: 
             0x00000498: 00 00 00 00: 
             0x0000049c: 10 00 f1 ff: 
             0x000004a0: d6 05 00 00: 
             0x000004a4: 00 00 00 00: 
             0x000004a8: 00 00 00 00: 
             0x000004ac: 10 00 f1 ff: 
             0x000004b0: e7 05 00 00: 
             0x000004b4: 18 04 01 00: 
             0x000004b8: 00 00 00 00: 
             0x000004bc: 00 00 0e 00: 
             0x000004c0: f0 05 00 00: 
             0x000004c4: 30 04 01 00: 
             0x000004c8: 00 00 00 00: 
             0x000004cc: 00 00 06 00: 
             0x000004d0: f9 05 00 00: 
             0x000004d4: 48 02 01 00: 
             0x000004d8: 0c 00 00 00: 
             0x000004dc: 12 00 0f 00: 
             0x000004e0: ff 05 00 00: 
             0x000004e4: 2e 02 01 00: 
             0x000004e8: 04 00 00 00: 
             0x000004ec: 12 00 0f 00: 
             0x000004f0: 0c 06 00 00: 
             0x000004f4: 30 04 01 00: 
             0x000004f8: 00 00 00 00: 
             0x000004fc: 10 00 01 00: 
             0x00000500: 12 06 00 00: 
             0x00000504: 6e 02 01 00: 
             0x00000508: 9c 00 00 00: 
             0x0000050c: 12 00 0f 00: 
             0x00000510: 19 06 00 00: 
             0x00000514: 00 00 00 00: 
             0x00000518: 00 00 00 00: 
             0x0000051c: 04 00 f1 ff: 
             0x00000520: 24 06 00 00: 
             0x00000524: 34 04 01 00: 
             0x00000528: 00 00 00 00: 
             0x0000052c: 00 00 06 00: 
             0x00000530: 32 06 00 00: 
             0x00000534: 38 04 01 00: 
             0x00000538: 00 00 00 00: 
             0x0000053c: 00 00 06 00: 
             0x00000540: 3d 06 00 00: 
             0x00000544: 30 04 01 00: 
             0x00000548: 00 00 00 00: 
             0x0000054c: 10 00 07 00: 
             0x00000550: 48 06 00 00: 
             0x00000554: fc 03 01 00: 
             0x00000558: 00 00 00 00: 
             0x0000055c: 00 00 09 00: 
             0x00000560: 56 06 00 00: 
             0x00000564: 08 04 01 00: 
             0x00000568: 00 00 00 00: 
             0x0000056c: 00 00 09 00: 
             0x00000570: 63 06 00 00: 
             0x00000574: 84 04 01 00: 
             0x00000578: 00 00 00 00: 
             0x0000057c: 10 00 08 00: 
             0x00000580: 76 06 00 00: 
             0x00000584: 00 00 00 00: 
             0x00000588: 00 00 00 00: 
             0x0000058c: 04 00 f1 ff: 
             0x00000590: 80 06 00 00: 
             0x00000594: 1c 03 01 00: 
             0x00000598: 3c 00 00 00: 
             0x0000059c: 12 00 0f 00: 
             0x000005a0: 85 06 00 00: 
             0x000005a4: 0a 03 01 00: 
             0x000005a8: 12 00 00 00: 
             0x000005ac: 12 00 0f 00: 
             0x000005b0: 8b 06 00 00: 
             0x000005b4: 00 00 00 00: 
             0x000005b8: 00 00 00 00: 
             0x000005bc: 00 00 f1 ff: 
             0x000005c0: a1 06 00 00: 
             0x000005c4: ac 00 01 00: 
             0x000005c8: 3a 00 00 00: 
             0x000005cc: 12 00 0f 00: 
             0x000005d0: a7 06 00 00: 
             0x000005d4: 00 00 00 00: 
             0x000005d8: 00 00 00 00: 
             0x000005dc: 00 00 f1 ff: 
             0x000005e0: c7 06 00 00: 
             0x000005e4: 01 00 00 00: 
             0x000005e8: 00 00 00 00: 
             0x000005ec: 00 00 f1 ff: 
             0x000005f0: ea 06 00 00: 
             0x000005f4: 03 00 00 00: 
             0x000005f8: 00 00 00 00: 
             0x000005fc: 10 00 f1 ff: 
             0x00000600: fc 06 00 00: 
             0x00000604: 01 00 00 00: 
             0x00000608: 00 00 00 00: 
             0x0000060c: 10 00 f1 ff: 
             0x00000610: 0d 07 00 00: 
             0x00000614: 01 00 00 00: 
             0x00000618: 00 00 00 00: 
             0x0000061c: 10 00 f1 ff: 
             0x00000620: 1d 07 00 00: 
             0x00000624: 00 00 00 00: 
             0x00000628: 00 00 00 00: 
             0x0000062c: 10 00 f1 ff: 
             0x00000630: 2f 07 00 00: 
             0x00000634: 00 00 00 00: 
             0x00000638: 00 00 00 00: 
             0x0000063c: 00 00 f1 ff: 
             0x00000640: 3f 07 00 00: 
             0x00000644: 01 00 00 00: 
             0x00000648: 00 00 00 00: 
             0x0000064c: 00 00 f1 ff: 
             0x00000650: 52 07 00 00: 
             0x00000654: 04 00 00 00: 
             0x00000658: 00 00 00 00: 
             0x0000065c: 00 00 0d 00: 
             0x00000660: 6c 07 00 00: 
             0x00000664: 15 00 00 00: 
             0x00000668: 00 00 00 00: 
             0x0000066c: 00 00 0d 00: 
             0x00000670: 86 07 00 00: 
             0x00000674: 00 00 00 00: 
             0x00000678: 00 00 00 00: 
             0x0000067c: 10 00 f1 ff: 
             0x00000680: 9d 07 00 00: 
             0x00000684: 88 00 00 00: 
             0x00000688: 00 00 00 00: 
             0x0000068c: 11 00 0d 00: 
             0x00000690: a5 07 00 00: 
             0x00000694: e8 00 01 00: 
             0x00000698: 44 00 00 00: 
             0x0000069c: 12 00 0f 00: 
             0x000006a0: b1 07 00 00: 
             0x000006a4: 06 00 00 00: 
             0x000006a8: 00 00 00 00: 
             0x000006ac: 10 00 f1 ff: 
             0x000006b0: c9 07 00 00: 
             0x000006b4: 01 00 00 00: 
             0x000006b8: 00 00 00 00: 
             0x000006bc: 10 00 f1 ff: 
             0x000006c0: e0 07 00 00: 
             0x000006c4: 01 00 00 00: 
             0x000006c8: 00 00 00 00: 
             0x000006cc: 10 00 f1 ff: 
             0x000006d0: f6 07 00 00: 
             0x000006d4: 00 00 00 00: 
             0x000006d8: 00 00 00 00: 
             0x000006dc: 10 00 f1 ff: 
             0x000006e0: 0e 08 00 00: 
             0x000006e4: 00 00 00 00: 
             0x000006e8: 00 00 00 00: 
             0x000006ec: 00 00 f1 ff: 
             0x000006f0: 24 08 00 00: 
             0x000006f4: 01 00 00 00: 
             0x000006f8: 00 00 00 00: 
             0x000006fc: 00 00 f1 ff: 
             0x00000700: 3d 08 00 00: 
             0x00000704: 00 00 00 00: 
             0x00000708: 00 00 00 00: 
             0x0000070c: 10 00 f1 ff: 
             0x00000710: 4f 08 00 00: 
             0x00000714: 01 00 00 00: 
             0x00000718: 00 00 00 00: 
             0x0000071c: 10 00 f1 ff: 
             0x00000720: 60 08 00 00: 
             0x00000724: f2 00 01 00: 
             0x00000728: 00 00 00 00: 
             0x0000072c: 00 00 0f 00: 
             0x00000730: 6c 08 00 00: 
             0x00000734: 2a 01 01 00: 
             0x00000738: 00 00 00 00: 
             0x0000073c: 00 00 0f 00: 
             0x00000740: 76 08 00 00: 
             0x00000744: 00 00 00 00: 
             0x00000748: 00 00 00 00: 
             0x0000074c: 10 00 f1 ff: 
             0x00000750: 88 08 00 00: 
             0x00000754: 00 00 00 00: 
             0x00000758: 00 00 00 00: 
             0x0000075c: 10 00 f1 ff: 
             0x00000760: 99 08 00 00: 
             0x00000764: 00 00 00 00: 
             0x00000768: 00 00 00 00: 
             0x0000076c: 10 00 f1 ff: 
             0x00000770: a9 08 00 00: 
             0x00000774: 00 00 00 00: 
             0x00000778: 00 00 00 00: 
             0x0000077c: 10 00 f1 ff: 
             0x00000780: b8 08 00 00: 
             0x00000784: 01 00 00 00: 
             0x00000788: 00 00 00 00: 
             0x0000078c: 10 00 f1 ff: 
             0x00000790: c9 08 00 00: 
             0x00000794: 01 00 00 00: 
             0x00000798: 00 00 00 00: 
             0x0000079c: 10 00 f1 ff: 
             0x000007a0: d9 08 00 00: 
             0x000007a4: 00 00 00 00: 
             0x000007a8: 00 00 00 00: 
             0x000007ac: 00 00 f1 ff: 
             0x000007b0: e7 08 00 00: 
             0x000007b4: 00 00 00 00: 
             0x000007b8: 00 00 00 00: 
             0x000007bc: 00 00 f1 ff: 
             0x000007c0: f5 08 00 00: 
             0x000007c4: 00 00 00 00: 
             0x000007c8: 00 00 00 00: 
             0x000007cc: 00 00 f1 ff: 
             0x000007d0: 03 09 00 00: 
             0x000007d4: 00 00 00 00: 
             0x000007d8: 00 00 00 00: 
             0x000007dc: 00 00 f1 ff: 
             0x000007e0: 11 09 00 00: 
             0x000007e4: 00 00 00 00: 
             0x000007e8: 00 00 00 00: 
             0x000007ec: 00 00 f1 ff: 
             0x000007f0: 76 06 00 00: 
             0x000007f4: 00 00 00 00: 
             0x000007f8: 00 00 00 00: 
             0x000007fc: 04 00 f1 ff: 
             0x00000800: 1f 09 00 00: 
             0x00000804: 2c 01 01 00: 
             0x00000808: 0c 00 00 00: 
             0x0000080c: 12 00 0f 00: 
             0x00000810: 2e 09 00 00: 
             0x00000814: 08 00 00 00: 
             0x00000818: 00 00 00 00: 
             0x0000081c: 10 00 f1 ff: 
             0x00000820: 49 09 00 00: 
             0x00000824: 01 00 00 00: 
             0x00000828: 00 00 00 00: 
             0x0000082c: 10 00 f1 ff: 
             0x00000830: 63 09 00 00: 
             0x00000834: 01 00 00 00: 
             0x00000838: 00 00 00 00: 
             0x0000083c: 10 00 f1 ff: 
             0x00000840: 7c 09 00 00: 
             0x00000844: 00 00 00 00: 
             0x00000848: 00 00 00 00: 
             0x0000084c: 10 00 f1 ff: 
             0x00000850: 97 09 00 00: 
             0x00000854: 01 00 00 00: 
             0x00000858: 00 00 00 00: 
             0x0000085c: 00 00 f1 ff: 
             0x00000860: b0 09 00 00: 
             0x00000864: 01 00 00 00: 
             0x00000868: 00 00 00 00: 
             0x0000086c: 00 00 f1 ff: 
             0x00000870: cc 09 00 00: 
             0x00000874: 00 00 00 00: 
             0x00000878: 00 00 00 00: 
             0x0000087c: 04 00 f1 ff: 
             0x00000880: d7 09 00 00: 
             0x00000884: 3a 01 01 00: 
             0x00000888: 00 00 00 00: 
             0x0000088c: 00 00 0f 00: 
             0x00000890: e6 09 00 00: 
             0x00000894: 4c 01 01 00: 
             0x00000898: 00 00 00 00: 
             0x0000089c: 00 00 0f 00: 
             0x000008a0: f6 09 00 00: 
             0x000008a4: 4e 01 01 00: 
             0x000008a8: 00 00 00 00: 
             0x000008ac: 00 00 0f 00: 
             0x000008b0: ff 09 00 00: 
             0x000008b4: 60 01 01 00: 
             0x000008b8: 00 00 00 00: 
             0x000008bc: 00 00 0f 00: 
             0x000008c0: 0a 0a 00 00: 
             0x000008c4: 6a 01 01 00: 
             0x000008c8: 00 00 00 00: 
             0x000008cc: 00 00 0f 00: 
             0x000008d0: 16 0a 00 00: 
             0x000008d4: 7c 01 01 00: 
             0x000008d8: 00 00 00 00: 
             0x000008dc: 00 00 0f 00: 
             0x000008e0: 26 0a 00 00: 
             0x000008e4: 90 01 01 00: 
             0x000008e8: 00 00 00 00: 
             0x000008ec: 00 00 0f 00: 
             0x000008f0: 33 0a 00 00: 
             0x000008f4: 94 01 01 00: 
             0x000008f8: 00 00 00 00: 
             0x000008fc: 00 00 0f 00: 
             0x00000900: 44 0a 00 00: 
             0x00000904: ac 01 01 00: 
             0x00000908: 00 00 00 00: 
             0x0000090c: 00 00 0f 00: 
             0x00000910: 59 0a 00 00: 
             0x00000914: b0 01 01 00: 
             0x00000918: 00 00 00 00: 
             0x0000091c: 00 00 0f 00: 
             0x00000920: 67 0a 00 00: 
             0x00000924: c4 01 01 00: 
             0x00000928: 00 00 00 00: 
             0x0000092c: 00 00 0f 00: 
             0x00000930: 73 0a 00 00: 
             0x00000934: c8 01 01 00: 
             0x00000938: 00 00 00 00: 
             0x0000093c: 00 00 0f 00: 
             0x00000940: 7f 0a 00 00: 
             0x00000944: d8 01 01 00: 
             0x00000948: 00 00 00 00: 
             0x0000094c: 00 00 0f 00: 
             0x00000950: 89 0a 00 00: 
             0x00000954: da 01 01 00: 
             0x00000958: 00 00 00 00: 
             0x0000095c: 00 00 0f 00: 
             0x00000960: 98 0a 00 00: 
             0x00000964: ee 01 01 00: 
             0x00000968: 00 00 00 00: 
             0x0000096c: 00 00 0f 00: 
             0x00000970: aa 0a 00 00: 
             0x00000974: 0c 02 01 00: 
             0x00000978: 00 00 00 00: 
             0x0000097c: 00 00 0f 00: 
             0x00000980: b9 0a 00 00: 
             0x00000984: 2e 02 01 00: 
             0x00000988: 00 00 00 00: 
             0x0000098c: 00 00 0f 00: 
             0x00000990: c6 0a 00 00: 
             0x00000994: 88 04 01 00: 
             0x00000998: 00 00 00 00: 
             0x0000099c: 00 00 05 00: 
             0x000009a0: d3 0a 00 00: 
             0x000009a4: 1c 04 01 00: 
             0x000009a8: 00 00 00 00: 
             0x000009ac: 00 00 02 00: 
             0x000009b0: e3 0a 00 00: 
             0x000009b4: 20 04 01 00: 
             0x000009b8: 00 00 00 00: 
             0x000009bc: 00 00 02 00: 
             0x000009c0: f3 0a 00 00: 
             0x000009c4: 00 00 00 00: 
             0x000009c8: 00 00 00 00: 
             0x000009cc: 04 00 f1 ff: 
             0x000009d0: ff 0a 00 00: 
             0x000009d4: 01 00 00 00: 
             0x000009d8: 00 00 00 00: 
             0x000009dc: 00 00 f1 ff: 
             0x000009e0: 19 0b 00 00: 
             0x000009e4: 00 00 00 00: 
             0x000009e8: 00 00 00 00: 
             0x000009ec: 10 00 f1 ff: 
             0x000009f0: 32 0b 00 00: 
             0x000009f4: 00 00 00 00: 
             0x000009f8: 00 00 00 00: 
             0x000009fc: 10 00 f1 ff: 
             0x00000a00: 4b 0b 00 00: 
             0x00000a04: 00 00 00 00: 
             0x00000a08: 00 00 00 00: 
             0x00000a0c: 10 00 f1 ff: 
             0x00000a10: 62 0b 00 00: 
             0x00000a14: 00 00 00 00: 
             0x00000a18: 00 00 00 00: 
             0x00000a1c: 10 00 f1 ff: 
             0x00000a20: 7a 0b 00 00: 
             0x00000a24: 00 00 00 00: 
             0x00000a28: 00 00 00 00: 
             0x00000a2c: 04 00 f1 ff: 
             0x00000a30: b1 0b 00 00: 
             0x00000a34: 5c 03 01 00: 
             0x00000a38: 08 00 00 00: 
             0x00000a3c: 12 00 0f 00: 
             0x00000a40: c2 0b 00 00: 
             0x00000a44: 6c 03 01 00: 
             0x00000a48: 08 00 00 00: 
             0x00000a4c: 12 00 0f 00: 
             0x00000a50: cb 0b 00 00: 
             0x00000a54: 74 03 01 00: 
             0x00000a58: 0a 00 00 00: 
             0x00000a5c: 12 00 0f 00: 
             0x00000a60: d1 0b 00 00: 
             0x00000a64: 01 00 00 00: 
             0x00000a68: 00 00 00 00: 
             0x00000a6c: 10 00 f1 ff: 
             0x00000a70: ee 0b 00 00: 
             0x00000a74: 01 00 00 00: 
             0x00000a78: 00 00 00 00: 
             0x00000a7c: 10 00 f1 ff: 
             0x00000a80: 03 0c 00 00: 
             0x00000a84: 00 00 00 00: 
             0x00000a88: 00 00 00 00: 
             0x00000a8c: 10 00 f1 ff: 
             0x00000a90: 15 0c 00 00: 
             0x00000a94: 01 00 00 00: 
             0x00000a98: 00 00 00 00: 
             0x00000a9c: 10 00 f1 ff: 
             0x00000aa0: 31 0c 00 00: 
             0x00000aa4: 01 00 00 00: 
             0x00000aa8: 00 00 00 00: 
             0x00000aac: 10 00 f1 ff: 
             0x00000ab0: 45 0c 00 00: 
             0x00000ab4: 00 00 00 00: 
             0x00000ab8: 00 00 00 00: 
             0x00000abc: 10 00 f1 ff: 
             0x00000ac0: 56 0c 00 00: 
             0x00000ac4: 00 00 00 00: 
             0x00000ac8: 00 00 00 00: 
             0x00000acc: 10 00 f1 ff: 
             0x00000ad0: 71 0c 00 00: 
             0x00000ad4: 00 00 00 00: 
             0x00000ad8: 00 00 00 00: 
             0x00000adc: 10 00 f1 ff: 
             0x00000ae0: 84 0c 00 00: 
             0x00000ae4: 00 00 00 00: 
             0x00000ae8: 00 00 00 00: 
             0x00000aec: 10 00 f1 ff: 
             0x00000af0: 94 0c 00 00: 
             0x00000af4: 00 00 00 00: 
             0x00000af8: 00 00 00 00: 
             0x00000afc: 10 00 f1 ff: 
             0x00000b00: b1 0c 00 00: 
             0x00000b04: 00 00 00 00: 
             0x00000b08: 00 00 00 00: 
             0x00000b0c: 10 00 f1 ff: 
             0x00000b10: c6 0c 00 00: 
             0x00000b14: 00 00 00 00: 
             0x00000b18: 00 00 00 00: 
             0x00000b1c: 10 00 f1 ff: 
             0x00000b20: d8 0c 00 00: 
             0x00000b24: 01 00 00 00: 
             0x00000b28: 00 00 00 00: 
             0x00000b2c: 00 00 f1 ff: 
             0x00000b30: f1 0c 00 00: 
             0x00000b34: 01 00 00 00: 
             0x00000b38: 00 00 00 00: 
             0x00000b3c: 00 00 f1 ff: 
             0x00000b40: 07 0d 00 00: 
             0x00000b44: 00 00 00 00: 
             0x00000b48: 00 00 00 00: 
             0x00000b4c: 04 00 f1 ff: 
             0x00000b50: 0e 0d 00 00: 
             0x00000b54: 01 00 00 00: 
             0x00000b58: 00 00 00 00: 
             0x00000b5c: 00 00 f1 ff: 
             0x00000b60: 21 0d 00 00: 
             0x00000b64: 00 00 00 00: 
             0x00000b68: 00 00 00 00: 
             0x00000b6c: 10 00 f1 ff: 
             0x00000b70: 33 0d 00 00: 
             0x00000b74: 00 00 00 00: 
             0x00000b78: 00 00 00 00: 
             0x00000b7c: 10 00 f1 ff: 
             0x00000b80: 45 0d 00 00: 
             0x00000b84: 00 00 00 00: 
             0x00000b88: 00 00 00 00: 
             0x00000b8c: 10 00 f1 ff: 
             0x00000b90: 55 0d 00 00: 
             0x00000b94: 00 00 00 00: 
             0x00000b98: 00 00 00 00: 
             0x00000b9c: 10 00 f1 ff: 
             0x00000ba0: 66 0d 00 00: 
             0x00000ba4: 00 00 00 00: 
             0x00000ba8: 00 00 00 00: 
             0x00000bac: 10 00 f1 ff: 
             0x00000bb0: 7d 0d 00 00: 
             0x00000bb4: 00 00 00 00: 
             0x00000bb8: 00 00 00 00: 
             0x00000bbc: 10 00 f1 ff: 
             0x00000bc0: 94 0d 00 00: 
             0x00000bc4: 00 00 00 00: 
             0x00000bc8: 00 00 00 00: 
             0x00000bcc: 10 00 f1 ff: 
             0x00000bd0: a9 0d 00 00: 
             0x00000bd4: 00 00 00 00: 
             0x00000bd8: 00 00 00 00: 
             0x00000bdc: 10 00 f1 ff: 
             0x00000be0: bf 0d 00 00: 
             0x00000be4: 58 03 01 00: 
             0x00000be8: 04 00 00 00: 
             0x00000bec: 12 00 0f 00: 
             0x00000bf0: ca 0d 00 00: 
             0x00000bf4: 00 00 00 00: 
             0x00000bf8: 00 00 00 00: 
             0x00000bfc: 04 00 f1 ff: 
             0x00000c00: 01 0e 00 00: 
             0x00000c04: 01 00 00 00: 
             0x00000c08: 00 00 00 00: 
             0x00000c0c: 00 00 f1 ff: 
             0x00000c10: 1d 0e 00 00: 
             0x00000c14: 01 00 00 00: 
             0x00000c18: 00 00 00 00: 
             0x00000c1c: 00 00 f1 ff: 
             0x00000c20: 36 0e 00 00: 
             0x00000c24: 00 00 00 00: 
             0x00000c28: 00 00 00 00: 
             0x00000c2c: 04 00 f1 ff: 
             0x00000c30: 6f 0e 00 00: 
             0x00000c34: 05 00 00 00: 
             0x00000c38: 00 00 00 00: 
             0x00000c3c: 10 00 f1 ff: 
             0x00000c40: 82 0e 00 00: 
             0x00000c44: 01 00 00 00: 
             0x00000c48: 00 00 00 00: 
             0x00000c4c: 10 00 f1 ff: 
             0x00000c50: 94 0e 00 00: 
             0x00000c54: 00 00 00 00: 
             0x00000c58: 00 00 00 00: 
             0x00000c5c: 10 00 f1 ff: 
             0x00000c60: a5 0e 00 00: 
             0x00000c64: 00 00 00 00: 
             0x00000c68: 00 00 00 00: 
             0x00000c6c: 10 00 f1 ff: 
             0x00000c70: b8 0e 00 00: 
             0x00000c74: 01 00 00 00: 
             0x00000c78: 00 00 00 00: 
             0x00000c7c: 00 00 f1 ff: 
             0x00000c80: cc 0e 00 00: 
             0x00000c84: 01 00 00 00: 
             0x00000c88: 00 00 00 00: 
             0x00000c8c: 00 00 f1 ff: 
             0x00000c90: dd 0e 00 00: 
             0x00000c94: 00 00 00 00: 
             0x00000c98: 00 00 00 00: 
             0x00000c9c: 04 00 f1 ff: 
             0x00000ca0: 0a 0f 00 00: 
             0x00000ca4: 01 00 00 00: 
             0x00000ca8: 00 00 00 00: 
             0x00000cac: 00 00 f1 ff: 
             0x00000cb0: 1d 0f 00 00: 
             0x00000cb4: 01 00 00 00: 
             0x00000cb8: 00 00 00 00: 
             0x00000cbc: 00 00 f1 ff: 
             0x00000cc0: 2d 0f 00 00: 
             0x00000cc4: 01 00 00 00: 
             0x00000cc8: 00 00 00 00: 
             0x00000ccc: 00 00 f1 ff: 
             0x00000cd0: 3f 0f 00 00: 
             0x00000cd4: 01 00 00 00: 
             0x00000cd8: 00 00 00 00: 
             0x00000cdc: 00 00 f1 ff: 
             0x00000ce0: 4e 0f 00 00: 
             0x00000ce4: 3c 04 01 00: 
             0x00000ce8: 40 00 00 00: 
             0x00000cec: 01 00 06 00: 
             0x00000cf0: 59 0f 00 00: 
             0x00000cf4: 00 00 00 00: 
             0x00000cf8: 00 00 00 00: 
             0x00000cfc: 04 00 f1 ff: 
             0x00000d00: 63 0f 00 00: 
             0x00000d04: 00 00 00 00: 
             0x00000d08: 00 00 00 00: 
             0x00000d0c: 04 00 f1 ff: 
             0x00000d10: a3 0f 00 00: 
             0x00000d14: 14 04 01 00: 
             0x00000d18: 02 00 00 00: 
             0x00000d1c: 22 00 0a 00: 
             0x00000d20: b9 0f 00 00: 
             0x00000d24: 00 00 00 00: 
             0x00000d28: 00 00 00 00: 
             0x00000d2c: 20 00 f1 ff: 
             0x00000d30: db 0f 00 00: 
             0x00000d34: 01 00 00 00: 
             0x00000d38: 00 00 00 00: 
             0x00000d3c: 20 00 f1 ff: 
             0x00000d40: fc 0f 00 00: 
             0x00000d44: 00 00 00 00: 
             0x00000d48: 00 00 00 00: 
             0x00000d4c: 20 00 f1 ff: 
             0x00000d50: 1c 10 00 00: 
             0x00000d54: 00 00 00 00: 
             0x00000d58: 00 00 00 00: 
             0x00000d5c: 20 00 f1 ff: 
             0x00000d60: 3e 10 00 00: 
             0x00000d64: 01 00 00 00: 
             0x00000d68: 00 00 00 00: 
             0x00000d6c: 00 00 f1 ff: 
             0x00000d70: 61 10 00 00: 
             0x00000d74: 01 00 00 00: 
             0x00000d78: 00 00 00 00: 
             0x00000d7c: 00 00 f1 ff: 
             0x00000d80: 81 10 00 00: 
             0x00000d84: 01 00 00 00: 
             0x00000d88: 00 00 00 00: 
             0x00000d8c: 00 00 f1 ff: 
             0x00000d90: 9f 10 00 00: 
             0x00000d94: 01 00 00 00: 
             0x00000d98: 00 00 00 00: 
             0x00000d9c: 00 00 f1 ff: 
             0x00000da0: ba 10 00 00: 
             0x00000da4: 00 00 00 00: 
             0x00000da8: 00 00 00 00: 
             0x00000dac: 04 00 f1 ff: 
             0x00000db0: ed 10 00 00: 
             0x00000db4: 00 00 00 00: 
             0x00000db8: 00 00 00 00: 
             0x00000dbc: 10 00 f1 ff: 
             0x00000dc0: 0d 11 00 00: 
             0x00000dc4: 01 00 00 00: 
             0x00000dc8: 00 00 00 00: 
             0x00000dcc: 10 00 f1 ff: 
             0x00000dd0: 2c 11 00 00: 
             0x00000dd4: 00 00 00 00: 
             0x00000dd8: 00 00 00 00: 
             0x00000ddc: 10 00 f1 ff: 
             0x00000de0: 4a 11 00 00: 
             0x00000de4: 00 00 00 00: 
             0x00000de8: 00 00 00 00: 
             0x00000dec: 10 00 f1 ff: 
             0x00000df0: 6a 11 00 00: 
             0x00000df4: 01 00 00 00: 
             0x00000df8: 00 00 00 00: 
             0x00000dfc: 00 00 f1 ff: 
             0x00000e00: 8b 11 00 00: 
             0x00000e04: 01 00 00 00: 
             0x00000e08: 00 00 00 00: 
             0x00000e0c: 00 00 f1 ff: 
             0x00000e10: a9 11 00 00: 
             0x00000e14: 8c 04 01 00: 
             0x00000e18: 04 00 00 00: 
             0x00000e1c: 11 00 05 00: 
             0x00000e20: b7 11 00 00: 
             0x00000e24: 00 00 00 00: 
             0x00000e28: 00 00 00 00: 
             0x00000e2c: 04 00 f1 ff: 
             0x00000e30: f1 11 00 00: 
             0x00000e34: 16 04 01 00: 
             0x00000e38: 02 00 00 00: 
             0x00000e3c: 22 00 0b 00: 
             0x00000e40: ff 11 00 00: 
             0x00000e44: 00 00 00 00: 
             0x00000e48: 00 00 00 00: 
             0x00000e4c: 20 00 f1 ff: 
             0x00000e50: 19 12 00 00: 
             0x00000e54: 01 00 00 00: 
             0x00000e58: 00 00 00 00: 
             0x00000e5c: 20 00 f1 ff: 
             0x00000e60: 32 12 00 00: 
             0x00000e64: 00 00 00 00: 
             0x00000e68: 00 00 00 00: 
             0x00000e6c: 20 00 f1 ff: 
             0x00000e70: 4a 12 00 00: 
             0x00000e74: 00 00 00 00: 
             0x00000e78: 00 00 00 00: 
             0x00000e7c: 20 00 f1 ff: 
             0x00000e80: 64 12 00 00: 
             0x00000e84: 01 00 00 00: 
             0x00000e88: 00 00 00 00: 
             0x00000e8c: 00 00 f1 ff: 
             0x00000e90: 7f 12 00 00: 
             0x00000e94: 01 00 00 00: 
             0x00000e98: 00 00 00 00: 
             0x00000e9c: 00 00 f1 ff: 
             0x00000ea0: 97 12 00 00: 
             0x00000ea4: 01 00 00 00: 
             0x00000ea8: 00 00 00 00: 
             0x00000eac: 00 00 f1 ff: 
             0x00000eb0: ad 12 00 00: 
             0x00000eb4: 01 00 00 00: 
             0x00000eb8: 00 00 00 00: 
             0x00000ebc: 00 00 f1 ff: 
             0x00000ec0: c0 12 00 00: 
             0x00000ec4: 00 00 00 00: 
             0x00000ec8: 00 00 00 00: 
             0x00000ecc: 04 00 f1 ff: 
             0x00000ed0: c7 12 00 00: 
             0x00000ed4: 01 00 00 00: 
             0x00000ed8: 00 00 00 00: 
             0x00000edc: 00 00 f1 ff: 
             0x00000ee0: da 12 00 00: 
             0x00000ee4: 00 00 00 00: 
             0x00000ee8: 00 00 00 00: 
             0x00000eec: 04 00 f1 ff: 
             0x00000ef0: e3 12 00 00: 
             0x00000ef4: 7c 04 01 00: 
             0x00000ef8: 00 00 00 00: 
             0x00000efc: 00 00 06 00: 
             0x00000f00: f1 12 00 00: 
             0x00000f04: 80 04 01 00: 
             0x00000f08: 00 00 00 00: 
             0x00000f0c: 00 00 06 00: 
             0x00000f10: fc 12 00 00: 
             0x00000f14: 30 04 01 00: 
             0x00000f18: 00 00 00 00: 
             0x00000f1c: 10 00 04 00: 
             0x00000f20: 07 13 00 00: 
             0x00000f24: ce 03 01 00: 
             0x00000f28: 00 00 00 00: 
             0x00000f2c: 00 00 0c 00: 
             0x00000f30: 15 13 00 00: 
             0x00000f34: d8 03 01 00: 
             0x00000f38: 00 00 00 00: 
             0x00000f3c: 00 00 0c 00: 
             0x00000f40: 22 13 00 00: 
             0x00000f44: 90 04 01 00: 
             0x00000f48: 00 00 00 00: 
             0x00000f4c: 00 00 05 00: 
             0x00000f50: 2e 13 00 00: 
             0x00000f54: 84 04 01 00: 
             0x00000f58: 00 00 00 00: 
             0x00000f5c: 10 00 08 00: 
             0x00000f60: 3f 13 00 00: 
             0x00000f64: 00 00 00 00: 
             0x00000f68: 00 00 00 00: 
             0x00000f6c: 04 00 f1 ff: 
             0x00000f70: 46 13 00 00: 
             0x00000f74: 00 00 01 00: 
             0x00000f78: 00 00 00 00: 
             0x00000f7c: 10 00 f1 ff: 
             0x00000f80: 50 13 00 00: 
             0x00000f84: 1c 04 01 00: 
             0x00000f88: 00 00 00 00: 
             0x00000f8c: 00 00 02 00: 
             0x00000f90: 56 13 00 00: 
             0x00000f94: 20 04 01 00: 
             0x00000f98: 00 00 00 00: 
             0x00000f9c: 00 00 02 00: 
             0x00000fa0: 5c 13 00 00: 
             0x00000fa4: 24 04 01 00: 
             0x00000fa8: 00 00 00 00: 
             0x00000fac: 00 00 02 00: 
             0x00000fb0: 62 13 00 00: 
             0x00000fb4: 28 04 01 00: 
             0x00000fb8: 00 00 00 00: 
             0x00000fbc: 00 00 02 00: 
             0x00000fc0: 68 13 00 00: 
             0x00000fc4: 2c 04 01 00: 
             0x00000fc8: 00 00 00 00: 
             0x00000fcc: 00 00 02 00: 

Disassembly of section section .strtab (size: 5107)

             0x00000000: 00 2e 62 73: 
             0x00000004: 73 00 2e 63: 
             0x00000008: 70 2e 63 6f: 
             0x0000000c: 6e 73 74 34: 
             0x00000010: 00 2e 63 70: 
             0x00000014: 2e 72 6f 64: 
             0x00000018: 61 74 61 00: 
             0x0000001c: 2e 63 74 6f: 
             0x00000020: 72 73 00 2e: 
             0x00000024: 64 70 2e 62: 
             0x00000028: 73 73 00 2e: 
             0x0000002c: 64 70 2e 64: 
             0x00000030: 61 74 61 00: 
             0x00000034: 2e 64 74 6f: 
             0x00000038: 72 73 00 2e: 
             0x0000003c: 65 68 5f 66: 
             0x00000040: 72 61 6d 65: 
             0x00000044: 00 2e 66 69: 
             0x00000048: 6e 69 00 2e: 
             0x0000004c: 67 6e 75 2e: 
             0x00000050: 6c 69 6e 6b: 
             0x00000054: 6f 6e 63 65: 
             0x00000058: 2e 74 2e 5f: 
             0x0000005c: 5f 63 61 6c: 
             0x00000060: 6c 5f 65 78: 
             0x00000064: 69 74 70 72: 
             0x00000068: 6f 63 73 5f: 
             0x0000006c: 69 6d 70 6c: 
             0x00000070: 00 2e 67 6e: 
             0x00000074: 75 2e 6c 69: 
             0x00000078: 6e 6b 6f 6e: 
             0x0000007c: 63 65 2e 74: 
             0x00000080: 2e 5f 63 6c: 
             0x00000084: 65 61 6e 75: 
             0x00000088: 70 5f 69 6d: 
             0x0000008c: 70 6c 00 2e: 
             0x00000090: 69 6e 69 74: 
             0x00000094: 00 2e 6e 65: 
             0x00000098: 74 69 6e 66: 
             0x0000009c: 6f 00 2e 72: 
             0x000000a0: 6f 64 61 74: 
             0x000000a4: 61 00 2e 74: 
             0x000000a8: 65 78 74 00: 
             0x000000ac: 2e 78 74 61: 
             0x000000b0: 62 72 61 6e: 
             0x000000b4: 63 68 00 2e: 
             0x000000b8: 78 74 61 65: 
             0x000000bc: 6e 64 70 6f: 
             0x000000c0: 69 6e 74 74: 
             0x000000c4: 61 62 6c 65: 
             0x000000c8: 00 2e 78 74: 
             0x000000cc: 61 6c 61 62: 
             0x000000d0: 65 6c 74 61: 
             0x000000d4: 62 6c 65 00: 
             0x000000d8: 2e 78 74 61: 
             0x000000dc: 73 79 73 74: 
             0x000000e0: 65 6d 00 2e: 
             0x000000e4: 78 74 61 74: 
             0x000000e8: 68 72 65 61: 
             0x000000ec: 64 73 74 61: 
             0x000000f0: 72 74 00 2e: 
             0x000000f4: 78 74 61 74: 
             0x000000f8: 68 72 65 61: 
             0x000000fc: 64 73 74 6f: 
             0x00000100: 70 00 5f 63: 
             0x00000104: 70 00 5f 64: 
             0x00000108: 70 00 5f 66: 
             0x0000010c: 62 73 73 00: 
             0x00000110: 5f 66 64 70: 
             0x00000114: 2e 62 73 73: 
             0x00000118: 00 5f 43 54: 
             0x0000011c: 4f 52 5f 4c: 
             0x00000120: 49 53 54 5f: 
             0x00000124: 00 5f 44 54: 
             0x00000128: 4f 52 5f 4c: 
             0x0000012c: 49 53 54 5f: 
             0x00000130: 00 5f 78 73: 
             0x00000134: 31 5f 74 69: 
             0x00000138: 6d 65 72 5f: 
             0x0000013c: 68 7a 00 5f: 
             0x00000140: 64 65 66 61: 
             0x00000144: 75 6c 74 5f: 
             0x00000148: 63 6c 6b 62: 
             0x0000014c: 6c 6b 00 63: 
             0x00000150: 72 74 31 2e: 
             0x00000154: 53 00 5f 65: 
             0x00000158: 68 65 61 70: 
             0x0000015c: 00 5f 62 68: 
             0x00000160: 65 61 70 00: 
             0x00000164: 6d 61 69 6e: 
             0x00000168: 2e 6e 73 74: 
             0x0000016c: 61 63 6b 77: 
             0x00000170: 6f 72 64 73: 
             0x00000174: 00 6d 61 69: 
             0x00000178: 6e 2e 6e 73: 
             0x0000017c: 74 61 63 6b: 
             0x00000180: 77 6f 72 64: 
             0x00000184: 73 2e 64 65: 
             0x00000188: 66 69 6e 65: 
             0x0000018c: 64 00 5f 73: 
             0x00000190: 74 61 72 74: 
             0x00000194: 00 2e 72 61: 
             0x00000198: 6d 5f 73 69: 
             0x0000019c: 7a 65 00 5f: 
             0x000001a0: 65 64 70 2e: 
             0x000001a4: 62 73 73 00: 
             0x000001a8: 5f 53 65 74: 
             0x000001ac: 75 70 54 72: 
             0x000001b0: 61 70 73 00: 
             0x000001b4: 5f 47 65 74: 
             0x000001b8: 52 61 6d 45: 
             0x000001bc: 6e 64 00 5f: 
             0x000001c0: 49 6e 69 74: 
             0x000001c4: 54 68 72 65: 
             0x000001c8: 61 64 00 5f: 
             0x000001cc: 54 6f 75 63: 
             0x000001d0: 68 52 65 67: 
             0x000001d4: 69 73 74 65: 
             0x000001d8: 72 73 00 5f: 
             0x000001dc: 69 6e 69 74: 
             0x000001e0: 00 6d 61 69: 
             0x000001e4: 6e 00 5f 5f: 
             0x000001e8: 6c 69 62 63: 
             0x000001ec: 5f 64 6f 6e: 
             0x000001f0: 65 00 5f 65: 
             0x000001f4: 78 69 74 5f: 
             0x000001f8: 75 6e 6c 6f: 
             0x000001fc: 63 6b 65 64: 
             0x00000200: 00 5f 73 74: 
             0x00000204: 61 72 74 2e: 
             0x00000208: 6e 73 74 61: 
             0x0000020c: 63 6b 77 6f: 
             0x00000210: 72 64 73 00: 
             0x00000214: 5f 73 74 61: 
             0x00000218: 72 74 2e 6d: 
             0x0000021c: 61 78 74 68: 
             0x00000220: 72 65 61 64: 
             0x00000224: 73 00 5f 73: 
             0x00000228: 74 61 72 74: 
             0x0000022c: 2e 6d 61 78: 
             0x00000230: 74 69 6d 65: 
             0x00000234: 72 73 00 5f: 
             0x00000238: 73 74 61 72: 
             0x0000023c: 74 2e 6d 61: 
             0x00000240: 78 63 68 61: 
             0x00000244: 6e 65 6e 64: 
             0x00000248: 73 00 5f 53: 
             0x0000024c: 65 74 75 70: 
             0x00000250: 54 72 61 70: 
             0x00000254: 73 2e 6e 73: 
             0x00000258: 74 61 63 6b: 
             0x0000025c: 77 6f 72 64: 
             0x00000260: 73 00 5f 47: 
             0x00000264: 65 74 52 61: 
             0x00000268: 6d 45 6e 64: 
             0x0000026c: 2e 6e 73 74: 
             0x00000270: 61 63 6b 77: 
             0x00000274: 6f 72 64 73: 
             0x00000278: 00 5f 49 6e: 
             0x0000027c: 69 74 54 68: 
             0x00000280: 72 65 61 64: 
             0x00000284: 2e 6e 73 74: 
             0x00000288: 61 63 6b 77: 
             0x0000028c: 6f 72 64 73: 
             0x00000290: 00 5f 54 6f: 
             0x00000294: 75 63 68 52: 
             0x00000298: 65 67 69 73: 
             0x0000029c: 74 65 72 73: 
             0x000002a0: 2e 6e 73 74: 
             0x000002a4: 61 63 6b 77: 
             0x000002a8: 6f 72 64 73: 
             0x000002ac: 00 5f 69 6e: 
             0x000002b0: 69 74 2e 6e: 
             0x000002b4: 73 74 61 63: 
             0x000002b8: 6b 77 6f 72: 
             0x000002bc: 64 73 00 5f: 
             0x000002c0: 5f 6c 69 62: 
             0x000002c4: 63 5f 64 6f: 
             0x000002c8: 6e 65 2e 6e: 
             0x000002cc: 73 74 61 63: 
             0x000002d0: 6b 77 6f 72: 
             0x000002d4: 64 73 00 5f: 
             0x000002d8: 65 78 69 74: 
             0x000002dc: 5f 75 6e 6c: 
             0x000002e0: 6f 63 6b 65: 
             0x000002e4: 64 2e 6e 73: 
             0x000002e8: 74 61 63 6b: 
             0x000002ec: 77 6f 72 64: 
             0x000002f0: 73 00 5f 53: 
             0x000002f4: 65 74 75 70: 
             0x000002f8: 54 72 61 70: 
             0x000002fc: 73 2e 6d 61: 
             0x00000300: 78 74 68 72: 
             0x00000304: 65 61 64 73: 
             0x00000308: 00 5f 47 65: 
             0x0000030c: 74 52 61 6d: 
             0x00000310: 45 6e 64 2e: 
             0x00000314: 6d 61 78 74: 
             0x00000318: 68 72 65 61: 
             0x0000031c: 64 73 00 5f: 
             0x00000320: 49 6e 69 74: 
             0x00000324: 54 68 72 65: 
             0x00000328: 61 64 2e 6d: 
             0x0000032c: 61 78 74 68: 
             0x00000330: 72 65 61 64: 
             0x00000334: 73 00 5f 54: 
             0x00000338: 6f 75 63 68: 
             0x0000033c: 52 65 67 69: 
             0x00000340: 73 74 65 72: 
             0x00000344: 73 2e 6d 61: 
             0x00000348: 78 74 68 72: 
             0x0000034c: 65 61 64 73: 
             0x00000350: 00 5f 69 6e: 
             0x00000354: 69 74 2e 6d: 
             0x00000358: 61 78 74 68: 
             0x0000035c: 72 65 61 64: 
             0x00000360: 73 00 6d 61: 
             0x00000364: 69 6e 2e 6d: 
             0x00000368: 61 78 74 68: 
             0x0000036c: 72 65 61 64: 
             0x00000370: 73 00 5f 5f: 
             0x00000374: 6c 69 62 63: 
             0x00000378: 5f 64 6f 6e: 
             0x0000037c: 65 2e 6d 61: 
             0x00000380: 78 74 68 72: 
             0x00000384: 65 61 64 73: 
             0x00000388: 00 5f 65 78: 
             0x0000038c: 69 74 5f 75: 
             0x00000390: 6e 6c 6f 63: 
             0x00000394: 6b 65 64 2e: 
             0x00000398: 6d 61 78 74: 
             0x0000039c: 68 72 65 61: 
             0x000003a0: 64 73 00 5f: 
             0x000003a4: 53 65 74 75: 
             0x000003a8: 70 54 72 61: 
             0x000003ac: 70 73 2e 6d: 
             0x000003b0: 61 78 74 69: 
             0x000003b4: 6d 65 72 73: 
             0x000003b8: 00 5f 47 65: 
             0x000003bc: 74 52 61 6d: 
             0x000003c0: 45 6e 64 2e: 
             0x000003c4: 6d 61 78 74: 
             0x000003c8: 69 6d 65 72: 
             0x000003cc: 73 00 5f 49: 
             0x000003d0: 6e 69 74 54: 
             0x000003d4: 68 72 65 61: 
             0x000003d8: 64 2e 6d 61: 
             0x000003dc: 78 74 69 6d: 
             0x000003e0: 65 72 73 00: 
             0x000003e4: 5f 54 6f 75: 
             0x000003e8: 63 68 52 65: 
             0x000003ec: 67 69 73 74: 
             0x000003f0: 65 72 73 2e: 
             0x000003f4: 6d 61 78 74: 
             0x000003f8: 69 6d 65 72: 
             0x000003fc: 73 00 5f 69: 
             0x00000400: 6e 69 74 2e: 
             0x00000404: 6d 61 78 74: 
             0x00000408: 69 6d 65 72: 
             0x0000040c: 73 00 6d 61: 
             0x00000410: 69 6e 2e 6d: 
             0x00000414: 61 78 74 69: 
             0x00000418: 6d 65 72 73: 
             0x0000041c: 00 5f 5f 6c: 
             0x00000420: 69 62 63 5f: 
             0x00000424: 64 6f 6e 65: 
             0x00000428: 2e 6d 61 78: 
             0x0000042c: 74 69 6d 65: 
             0x00000430: 72 73 00 5f: 
             0x00000434: 65 78 69 74: 
             0x00000438: 5f 75 6e 6c: 
             0x0000043c: 6f 63 6b 65: 
             0x00000440: 64 2e 6d 61: 
             0x00000444: 78 74 69 6d: 
             0x00000448: 65 72 73 00: 
             0x0000044c: 5f 53 65 74: 
             0x00000450: 75 70 54 72: 
             0x00000454: 61 70 73 2e: 
             0x00000458: 6d 61 78 63: 
             0x0000045c: 68 61 6e 65: 
             0x00000460: 6e 64 73 00: 
             0x00000464: 5f 47 65 74: 
             0x00000468: 52 61 6d 45: 
             0x0000046c: 6e 64 2e 6d: 
             0x00000470: 61 78 63 68: 
             0x00000474: 61 6e 65 6e: 
             0x00000478: 64 73 00 5f: 
             0x0000047c: 49 6e 69 74: 
             0x00000480: 54 68 72 65: 
             0x00000484: 61 64 2e 6d: 
             0x00000488: 61 78 63 68: 
             0x0000048c: 61 6e 65 6e: 
             0x00000490: 64 73 00 5f: 
             0x00000494: 54 6f 75 63: 
             0x00000498: 68 52 65 67: 
             0x0000049c: 69 73 74 65: 
             0x000004a0: 72 73 2e 6d: 
             0x000004a4: 61 78 63 68: 
             0x000004a8: 61 6e 65 6e: 
             0x000004ac: 64 73 00 5f: 
             0x000004b0: 69 6e 69 74: 
             0x000004b4: 2e 6d 61 78: 
             0x000004b8: 63 68 61 6e: 
             0x000004bc: 65 6e 64 73: 
             0x000004c0: 00 6d 61 69: 
             0x000004c4: 6e 2e 6d 61: 
             0x000004c8: 78 63 68 61: 
             0x000004cc: 6e 65 6e 64: 
             0x000004d0: 73 00 5f 5f: 
             0x000004d4: 6c 69 62 63: 
             0x000004d8: 5f 64 6f 6e: 
             0x000004dc: 65 2e 6d 61: 
             0x000004e0: 78 63 68 61: 
             0x000004e4: 6e 65 6e 64: 
             0x000004e8: 73 00 5f 65: 
             0x000004ec: 78 69 74 5f: 
             0x000004f0: 75 6e 6c 6f: 
             0x000004f4: 63 6b 65 64: 
             0x000004f8: 2e 6d 61 78: 
             0x000004fc: 63 68 61 6e: 
             0x00000500: 65 6e 64 73: 
             0x00000504: 00 5f 49 6e: 
             0x00000508: 69 74 54 68: 
             0x0000050c: 72 65 61 64: 
             0x00000510: 4c 6f 6f 70: 
             0x00000514: 00 5f 45 78: 
             0x00000518: 69 74 57 69: 
             0x0000051c: 74 68 45 72: 
             0x00000520: 72 6f 72 00: 
             0x00000524: 5f 4a 6f 69: 
             0x00000528: 6e 00 5f 4e: 
             0x0000052c: 6f 6e 5a 65: 
             0x00000530: 72 6f 52 65: 
             0x00000534: 74 75 72 6e: 
             0x00000538: 00 5f 54 72: 
             0x0000053c: 61 70 48 61: 
             0x00000540: 6e 64 6c 65: 
             0x00000544: 72 00 5f 49: 
             0x00000548: 6e 69 74 54: 
             0x0000054c: 68 72 65 61: 
             0x00000550: 64 52 6f 75: 
             0x00000554: 74 69 6e 65: 
             0x00000558: 00 5f 5f 61: 
             0x0000055c: 6c 6c 6f 63: 
             0x00000560: 5f 6c 69 62: 
             0x00000564: 63 5f 68 77: 
             0x00000568: 6c 6f 63 6b: 
             0x0000056c: 00 5f 5f 72: 
             0x00000570: 65 67 69 73: 
             0x00000574: 74 65 72 5f: 
             0x00000578: 66 72 61 6d: 
             0x0000057c: 65 5f 69 6e: 
             0x00000580: 66 6f 5f 62: 
             0x00000584: 61 73 65 73: 
             0x00000588: 00 5f 5f 66: 
             0x0000058c: 72 65 65 5f: 
             0x00000590: 6c 69 62 63: 
             0x00000594: 5f 68 77 6c: 
             0x00000598: 6f 63 6b 00: 
             0x0000059c: 5f 66 69 6e: 
             0x000005a0: 69 00 5f 66: 
             0x000005a4: 69 6e 69 2e: 
             0x000005a8: 6e 73 74 61: 
             0x000005ac: 63 6b 77 6f: 
             0x000005b0: 72 64 73 00: 
             0x000005b4: 5f 66 69 6e: 
             0x000005b8: 69 2e 6d 61: 
             0x000005bc: 78 63 68 61: 
             0x000005c0: 6e 65 6e 64: 
             0x000005c4: 73 00 5f 66: 
             0x000005c8: 69 6e 69 2e: 
             0x000005cc: 6d 61 78 74: 
             0x000005d0: 69 6d 65 72: 
             0x000005d4: 73 00 5f 66: 
             0x000005d8: 69 6e 69 2e: 
             0x000005dc: 6d 61 78 74: 
             0x000005e0: 68 72 65 61: 
             0x000005e4: 64 73 00 5f: 
             0x000005e8: 52 61 6d 53: 
             0x000005ec: 69 7a 65 00: 
             0x000005f0: 5f 4e 75 6c: 
             0x000005f4: 6c 50 74 72: 
             0x000005f8: 00 5f 65 78: 
             0x000005fc: 69 74 00 5f: 
             0x00000600: 44 6f 45 78: 
             0x00000604: 63 65 70 74: 
             0x00000608: 69 6f 6e 00: 
             0x0000060c: 5f 65 62 73: 
             0x00000610: 73 00 6d 65: 
             0x00000614: 6d 73 65 74: 
             0x00000618: 00 63 72 74: 
             0x0000061c: 62 65 67 69: 
             0x00000620: 6e 2e 73 00: 
             0x00000624: 64 74 6f 72: 
             0x00000628: 5f 6c 69 73: 
             0x0000062c: 74 5f 70 74: 
             0x00000630: 72 00 64 74: 
             0x00000634: 6f 72 73 5f: 
             0x00000638: 73 69 7a 65: 
             0x0000063c: 00 5f 44 54: 
             0x00000640: 4f 52 5f 45: 
             0x00000644: 4e 44 5f 00: 
             0x00000648: 64 6f 5f 64: 
             0x0000064c: 74 6f 72 73: 
             0x00000650: 5f 6c 6f 6f: 
             0x00000654: 70 00 64 6f: 
             0x00000658: 5f 64 74 6f: 
             0x0000065c: 72 73 5f 65: 
             0x00000660: 6e 64 00 5f: 
             0x00000664: 5f 45 48 5f: 
             0x00000668: 46 52 41 4d: 
             0x0000066c: 45 5f 42 45: 
             0x00000670: 47 49 4e 5f: 
             0x00000674: 5f 00 73 65: 
             0x00000678: 6c 65 63 74: 
             0x0000067c: 2e 78 63 00: 
             0x00000680: 72 61 6e 64: 
             0x00000684: 00 73 72 61: 
             0x00000688: 6e 64 00 5f: 
             0x0000068c: 5f 62 75 69: 
             0x00000690: 6c 74 69 6e: 
             0x00000694: 5f 74 69 6d: 
             0x00000698: 65 72 5f 61: 
             0x0000069c: 66 74 65 72: 
             0x000006a0: 00 73 6c 65: 
             0x000006a4: 65 70 00 5f: 
             0x000006a8: 5f 62 75 69: 
             0x000006ac: 6c 74 69 6e: 
             0x000006b0: 5f 74 69 6d: 
             0x000006b4: 65 72 5f 61: 
             0x000006b8: 66 74 65 72: 
             0x000006bc: 2e 6c 6f 63: 
             0x000006c0: 6e 6f 73 69: 
             0x000006c4: 64 65 00 5f: 
             0x000006c8: 5f 62 75 69: 
             0x000006cc: 6c 74 69 6e: 
             0x000006d0: 5f 74 69 6d: 
             0x000006d4: 65 72 5f 61: 
             0x000006d8: 66 74 65 72: 
             0x000006dc: 2e 6c 6f 63: 
             0x000006e0: 6e 6f 63 68: 
             0x000006e4: 61 6e 64 65: 
             0x000006e8: 63 00 73 6c: 
             0x000006ec: 65 65 70 2e: 
             0x000006f0: 6e 73 74 61: 
             0x000006f4: 63 6b 77 6f: 
             0x000006f8: 72 64 73 00: 
             0x000006fc: 73 6c 65 65: 
             0x00000700: 70 2e 6d 61: 
             0x00000704: 78 74 68 72: 
             0x00000708: 65 61 64 73: 
             0x0000070c: 00 73 6c 65: 
             0x00000710: 65 70 2e 6d: 
             0x00000714: 61 78 74 69: 
             0x00000718: 6d 65 72 73: 
             0x0000071c: 00 73 6c 65: 
             0x00000720: 65 70 2e 6d: 
             0x00000724: 61 78 63 68: 
             0x00000728: 61 6e 65 6e: 
             0x0000072c: 64 73 00 73: 
             0x00000730: 6c 65 65 70: 
             0x00000734: 2e 6c 6f 63: 
             0x00000738: 6e 6f 73 69: 
             0x0000073c: 64 65 00 73: 
             0x00000740: 6c 65 65 70: 
             0x00000744: 2e 6c 6f 63: 
             0x00000748: 6e 6f 63 68: 
             0x0000074c: 61 6e 64 65: 
             0x00000750: 63 00 6d 61: 
             0x00000754: 69 6e 2e 70: 
             0x00000758: 61 72 69 6e: 
             0x0000075c: 66 6f 2e 64: 
             0x00000760: 65 62 75 67: 
             0x00000764: 73 74 72 69: 
             0x00000768: 6e 67 30 00: 
             0x0000076c: 6d 61 69 6e: 
             0x00000770: 2e 70 61 72: 
             0x00000774: 69 6e 66 6f: 
             0x00000778: 2e 64 65 62: 
             0x0000077c: 75 67 73 74: 
             0x00000780: 72 69 6e 67: 
             0x00000784: 31 00 5f 5f: 
             0x00000788: 6d 61 69 6e: 
             0x0000078c: 5f 64 65 66: 
             0x00000790: 61 75 6c 74: 
             0x00000794: 5f 6e 65 74: 
             0x00000798: 77 6f 72 6b: 
             0x0000079c: 00 73 74 64: 
             0x000007a0: 63 6f 72 65: 
             0x000007a4: 00 5f 5f 6d: 
             0x000007a8: 61 69 6e 5f: 
             0x000007ac: 78 6d 5f 31: 
             0x000007b0: 00 5f 5f 6d: 
             0x000007b4: 61 69 6e 5f: 
             0x000007b8: 78 6d 5f 31: 
             0x000007bc: 2e 6e 73 74: 
             0x000007c0: 61 63 6b 77: 
             0x000007c4: 6f 72 64 73: 
             0x000007c8: 00 5f 5f 6d: 
             0x000007cc: 61 69 6e 5f: 
             0x000007d0: 78 6d 5f 31: 
             0x000007d4: 2e 6d 61 78: 
             0x000007d8: 74 68 72 65: 
             0x000007dc: 61 64 73 00: 
             0x000007e0: 5f 5f 6d 61: 
             0x000007e4: 69 6e 5f 78: 
             0x000007e8: 6d 5f 31 2e: 
             0x000007ec: 6d 61 78 74: 
             0x000007f0: 69 6d 65 72: 
             0x000007f4: 73 00 5f 5f: 
             0x000007f8: 6d 61 69 6e: 
             0x000007fc: 5f 78 6d 5f: 
             0x00000800: 31 2e 6d 61: 
             0x00000804: 78 63 68 61: 
             0x00000808: 6e 65 6e 64: 
             0x0000080c: 73 00 5f 5f: 
             0x00000810: 6d 61 69 6e: 
             0x00000814: 5f 78 6d 5f: 
             0x00000818: 31 2e 6c 6f: 
             0x0000081c: 63 6e 6f 73: 
             0x00000820: 69 64 65 00: 
             0x00000824: 5f 5f 6d 61: 
             0x00000828: 69 6e 5f 78: 
             0x0000082c: 6d 5f 31 2e: 
             0x00000830: 6c 6f 63 6e: 
             0x00000834: 6f 63 68 61: 
             0x00000838: 6e 64 65 63: 
             0x0000083c: 00 73 72 61: 
             0x00000840: 6e 64 2e 6e: 
             0x00000844: 73 74 61 63: 
             0x00000848: 6b 77 6f 72: 
             0x0000084c: 64 73 00 72: 
             0x00000850: 61 6e 64 2e: 
             0x00000854: 6e 73 74 61: 
             0x00000858: 63 6b 77 6f: 
             0x0000085c: 72 64 73 00: 
             0x00000860: 73 74 61 72: 
             0x00000864: 74 74 72 61: 
             0x00000868: 63 65 31 00: 
             0x0000086c: 65 6e 64 74: 
             0x00000870: 72 61 63 65: 
             0x00000874: 31 00 73 72: 
             0x00000878: 61 6e 64 2e: 
             0x0000087c: 6d 61 78 63: 
             0x00000880: 68 61 6e 65: 
             0x00000884: 6e 64 73 00: 
             0x00000888: 72 61 6e 64: 
             0x0000088c: 2e 6d 61 78: 
             0x00000890: 63 68 61 6e: 
             0x00000894: 65 6e 64 73: 
             0x00000898: 00 73 72 61: 
             0x0000089c: 6e 64 2e 6d: 
             0x000008a0: 61 78 74 69: 
             0x000008a4: 6d 65 72 73: 
             0x000008a8: 00 72 61 6e: 
             0x000008ac: 64 2e 6d 61: 
             0x000008b0: 78 74 69 6d: 
             0x000008b4: 65 72 73 00: 
             0x000008b8: 73 72 61 6e: 
             0x000008bc: 64 2e 6d 61: 
             0x000008c0: 78 74 68 72: 
             0x000008c4: 65 61 64 73: 
             0x000008c8: 00 72 61 6e: 
             0x000008cc: 64 2e 6d 61: 
             0x000008d0: 78 74 68 72: 
             0x000008d4: 65 61 64 73: 
             0x000008d8: 00 74 68 72: 
             0x000008dc: 65 61 64 2e: 
             0x000008e0: 61 6e 6f 6e: 
             0x000008e4: 2e 30 00 74: 
             0x000008e8: 68 72 65 61: 
             0x000008ec: 64 2e 61 6e: 
             0x000008f0: 6f 6e 2e 31: 
             0x000008f4: 00 74 68 72: 
             0x000008f8: 65 61 64 2e: 
             0x000008fc: 61 6e 6f 6e: 
             0x00000900: 2e 32 00 74: 
             0x00000904: 68 72 65 61: 
             0x00000908: 64 2e 61 6e: 
             0x0000090c: 6f 6e 2e 33: 
             0x00000910: 00 74 68 72: 
             0x00000914: 65 61 64 2e: 
             0x00000918: 61 6e 6f 6e: 
             0x0000091c: 2e 34 00 5f: 
             0x00000920: 5f 6d 63 6d: 
             0x00000924: 61 69 6e 30: 
             0x00000928: 30 30 30 30: 
             0x0000092c: 31 00 5f 5f: 
             0x00000930: 6d 63 6d 61: 
             0x00000934: 69 6e 30 30: 
             0x00000938: 30 30 30 31: 
             0x0000093c: 2e 6e 73 74: 
             0x00000940: 61 63 6b 77: 
             0x00000944: 6f 72 64 73: 
             0x00000948: 00 5f 5f 6d: 
             0x0000094c: 63 6d 61 69: 
             0x00000950: 6e 30 30 30: 
             0x00000954: 30 30 31 2e: 
             0x00000958: 6d 61 78 74: 
             0x0000095c: 68 72 65 61: 
             0x00000960: 64 73 00 5f: 
             0x00000964: 5f 6d 63 6d: 
             0x00000968: 61 69 6e 30: 
             0x0000096c: 30 30 30 30: 
             0x00000970: 31 2e 6d 61: 
             0x00000974: 78 74 69 6d: 
             0x00000978: 65 72 73 00: 
             0x0000097c: 5f 5f 6d 63: 
             0x00000980: 6d 61 69 6e: 
             0x00000984: 30 30 30 30: 
             0x00000988: 30 31 2e 6d: 
             0x0000098c: 61 78 63 68: 
             0x00000990: 61 6e 65 6e: 
             0x00000994: 64 73 00 5f: 
             0x00000998: 5f 6d 63 6d: 
             0x0000099c: 61 69 6e 30: 
             0x000009a0: 30 30 30 30: 
             0x000009a4: 31 2e 6c 6f: 
             0x000009a8: 63 6e 6f 73: 
             0x000009ac: 69 64 65 00: 
             0x000009b0: 5f 5f 6d 63: 
             0x000009b4: 6d 61 69 6e: 
             0x000009b8: 30 30 30 30: 
             0x000009bc: 30 31 2e 6c: 
             0x000009c0: 6f 63 6e 6f: 
             0x000009c4: 63 68 61 6e: 
             0x000009c8: 64 65 63 00: 
             0x000009cc: 63 63 50 4c: 
             0x000009d0: 71 72 4d 79: 
             0x000009d4: 2e 73 00 67: 
             0x000009d8: 65 74 41 6c: 
             0x000009dc: 6c 43 68 61: 
             0x000009e0: 6e 6e 65 6c: 
             0x000009e4: 73 00 66 72: 
             0x000009e8: 65 65 41 6c: 
             0x000009ec: 6c 43 68 61: 
             0x000009f0: 6e 6e 65 6c: 
             0x000009f4: 73 00 73 6b: 
             0x000009f8: 69 70 46 72: 
             0x000009fc: 65 65 00 72: 
             0x00000a00: 65 63 65 69: 
             0x00000a04: 76 65 45 6e: 
             0x00000a08: 64 00 77 61: 
             0x00000a0c: 69 74 46 6f: 
             0x00000a10: 72 5a 65 72: 
             0x00000a14: 6f 00 67 65: 
             0x00000a18: 74 4c 6f 63: 
             0x00000a1c: 61 6c 45 6e: 
             0x00000a20: 64 73 54 6f: 
             0x00000a24: 70 00 67 6f: 
             0x00000a28: 74 4c 6f 63: 
             0x00000a2c: 61 6c 45 6e: 
             0x00000a30: 64 73 00 67: 
             0x00000a34: 65 74 52 65: 
             0x00000a38: 6d 6f 74 65: 
             0x00000a3c: 45 6e 64 73: 
             0x00000a40: 54 6f 70 00: 
             0x00000a44: 6c 6f 6f 70: 
             0x00000a48: 46 6f 72 4e: 
             0x00000a4c: 65 78 74 52: 
             0x00000a50: 65 6d 6f 74: 
             0x00000a54: 65 45 6e 64: 
             0x00000a58: 00 67 6f 74: 
             0x00000a5c: 52 65 6d 6f: 
             0x00000a60: 74 65 45 6e: 
             0x00000a64: 64 73 00 72: 
             0x00000a68: 65 74 75 72: 
             0x00000a6c: 6e 54 6f 43: 
             0x00000a70: 52 54 00 62: 
             0x00000a74: 75 69 6c 64: 
             0x00000a78: 52 65 67 41: 
             0x00000a7c: 72 67 00 68: 
             0x00000a80: 61 73 45 6e: 
             0x00000a84: 64 52 65 67: 
             0x00000a88: 00 77 61 69: 
             0x00000a8c: 74 46 6f 72: 
             0x00000a90: 53 63 72 61: 
             0x00000a94: 74 63 68 00: 
             0x00000a98: 77 61 69 74: 
             0x00000a9c: 46 6f 72 53: 
             0x00000aa0: 63 72 61 74: 
             0x00000aa4: 63 68 54 6f: 
             0x00000aa8: 70 00 77 72: 
             0x00000aac: 69 74 65 54: 
             0x00000ab0: 6f 53 63 72: 
             0x00000ab4: 61 74 63 68: 
             0x00000ab8: 00 65 6e 64: 
             0x00000abc: 4f 66 53 74: 
             0x00000ac0: 61 72 74 75: 
             0x00000ac4: 70 00 63 68: 
             0x00000ac8: 61 6e 45 6e: 
             0x00000acc: 64 53 74 6f: 
             0x00000ad0: 72 65 00 74: 
             0x00000ad4: 68 69 73 43: 
             0x00000ad8: 68 61 6e 65: 
             0x00000adc: 6e 64 5a 65: 
             0x00000ae0: 72 6f 00 6e: 
             0x00000ae4: 65 78 74 43: 
             0x00000ae8: 68 61 6e 65: 
             0x00000aec: 6e 64 5a 65: 
             0x00000af0: 72 6f 00 65: 
             0x00000af4: 78 63 65 70: 
             0x00000af8: 74 69 6f 6e: 
             0x00000afc: 2e 53 00 5f: 
             0x00000b00: 44 6f 45 78: 
             0x00000b04: 63 65 70 74: 
             0x00000b08: 69 6f 6e 2e: 
             0x00000b0c: 6c 6f 63 6e: 
             0x00000b10: 6f 63 68 61: 
             0x00000b14: 6e 64 65 63: 
             0x00000b18: 00 5f 44 6f: 
             0x00000b1c: 45 78 63 65: 
             0x00000b20: 70 74 69 6f: 
             0x00000b24: 6e 2e 6e 73: 
             0x00000b28: 74 61 63 6b: 
             0x00000b2c: 77 6f 72 64: 
             0x00000b30: 73 00 5f 44: 
             0x00000b34: 6f 45 78 63: 
             0x00000b38: 65 70 74 69: 
             0x00000b3c: 6f 6e 2e 6d: 
             0x00000b40: 61 78 63 68: 
             0x00000b44: 61 6e 65 6e: 
             0x00000b48: 64 73 00 5f: 
             0x00000b4c: 44 6f 45 78: 
             0x00000b50: 63 65 70 74: 
             0x00000b54: 69 6f 6e 2e: 
             0x00000b58: 6d 61 78 74: 
             0x00000b5c: 69 6d 65 72: 
             0x00000b60: 73 00 5f 44: 
             0x00000b64: 6f 45 78 63: 
             0x00000b68: 65 70 74 69: 
             0x00000b6c: 6f 6e 2e 6d: 
             0x00000b70: 61 78 74 68: 
             0x00000b74: 72 65 61 64: 
             0x00000b78: 73 00 2e 2e: 
             0x00000b7c: 2f 2e 2e 2f: 
             0x00000b80: 2e 2e 2f 2e: 
             0x00000b84: 2e 2f 2e 2e: 
             0x00000b88: 2f 2e 2e 2f: 
             0x00000b8c: 73 72 63 2f: 
             0x00000b90: 6e 65 77 6c: 
             0x00000b94: 69 62 2f 6c: 
             0x00000b98: 69 62 63 2f: 
             0x00000b9c: 6d 61 63 68: 
             0x00000ba0: 69 6e 65 2f: 
             0x00000ba4: 78 63 6f 72: 
             0x00000ba8: 65 2f 64 6f: 
             0x00000bac: 6e 65 2e 63: 
             0x00000bb0: 00 5f 5f 63: 
             0x00000bb4: 61 6c 6c 5f: 
             0x00000bb8: 65 78 69 74: 
             0x00000bbc: 70 72 6f 63: 
             0x00000bc0: 73 00 5f 63: 
             0x00000bc4: 6c 65 61 6e: 
             0x00000bc8: 75 70 00 5f: 
             0x00000bcc: 64 6f 6e 65: 
             0x00000bd0: 00 5f 5f 63: 
             0x00000bd4: 61 6c 6c 5f: 
             0x00000bd8: 65 78 69 74: 
             0x00000bdc: 70 72 6f 63: 
             0x00000be0: 73 2e 6e 73: 
             0x00000be4: 74 61 63 6b: 
             0x00000be8: 77 6f 72 64: 
             0x00000bec: 73 00 5f 63: 
             0x00000bf0: 6c 65 61 6e: 
             0x00000bf4: 75 70 2e 6e: 
             0x00000bf8: 73 74 61 63: 
             0x00000bfc: 6b 77 6f 72: 
             0x00000c00: 64 73 00 5f: 
             0x00000c04: 64 6f 6e 65: 
             0x00000c08: 2e 6e 73 74: 
             0x00000c0c: 61 63 6b 77: 
             0x00000c10: 6f 72 64 73: 
             0x00000c14: 00 5f 5f 63: 
             0x00000c18: 61 6c 6c 5f: 
             0x00000c1c: 65 78 69 74: 
             0x00000c20: 70 72 6f 63: 
             0x00000c24: 73 2e 6d 61: 
             0x00000c28: 78 74 68 72: 
             0x00000c2c: 65 61 64 73: 
             0x00000c30: 00 5f 63 6c: 
             0x00000c34: 65 61 6e 75: 
             0x00000c38: 70 2e 6d 61: 
             0x00000c3c: 78 74 68 72: 
             0x00000c40: 65 61 64 73: 
             0x00000c44: 00 5f 64 6f: 
             0x00000c48: 6e 65 2e 6d: 
             0x00000c4c: 61 78 74 68: 
             0x00000c50: 72 65 61 64: 
             0x00000c54: 73 00 5f 5f: 
             0x00000c58: 63 61 6c 6c: 
             0x00000c5c: 5f 65 78 69: 
             0x00000c60: 74 70 72 6f: 
             0x00000c64: 63 73 2e 6d: 
             0x00000c68: 61 78 74 69: 
             0x00000c6c: 6d 65 72 73: 
             0x00000c70: 00 5f 63 6c: 
             0x00000c74: 65 61 6e 75: 
             0x00000c78: 70 2e 6d 61: 
             0x00000c7c: 78 74 69 6d: 
             0x00000c80: 65 72 73 00: 
             0x00000c84: 5f 64 6f 6e: 
             0x00000c88: 65 2e 6d 61: 
             0x00000c8c: 78 74 69 6d: 
             0x00000c90: 65 72 73 00: 
             0x00000c94: 5f 5f 63 61: 
             0x00000c98: 6c 6c 5f 65: 
             0x00000c9c: 78 69 74 70: 
             0x00000ca0: 72 6f 63 73: 
             0x00000ca4: 2e 6d 61 78: 
             0x00000ca8: 63 68 61 6e: 
             0x00000cac: 65 6e 64 73: 
             0x00000cb0: 00 5f 63 6c: 
             0x00000cb4: 65 61 6e 75: 
             0x00000cb8: 70 2e 6d 61: 
             0x00000cbc: 78 63 68 61: 
             0x00000cc0: 6e 65 6e 64: 
             0x00000cc4: 73 00 5f 64: 
             0x00000cc8: 6f 6e 65 2e: 
             0x00000ccc: 6d 61 78 63: 
             0x00000cd0: 68 61 6e 65: 
             0x00000cd4: 6e 64 73 00: 
             0x00000cd8: 5f 5f 6c 69: 
             0x00000cdc: 62 63 5f 64: 
             0x00000ce0: 6f 6e 65 2e: 
             0x00000ce4: 6c 6f 63 6e: 
             0x00000ce8: 6f 63 68 61: 
             0x00000cec: 6e 64 65 63: 
             0x00000cf0: 00 5f 5f 6c: 
             0x00000cf4: 69 62 63 5f: 
             0x00000cf8: 64 6f 6e 65: 
             0x00000cfc: 2e 6c 6f 63: 
             0x00000d00: 6e 6f 73 69: 
             0x00000d04: 64 65 00 65: 
             0x00000d08: 78 69 74 2e: 
             0x00000d0c: 53 00 5f 65: 
             0x00000d10: 78 69 74 2e: 
             0x00000d14: 6c 6f 63 6e: 
             0x00000d18: 6f 63 68 61: 
             0x00000d1c: 6e 64 65 63: 
             0x00000d20: 00 5f 65 78: 
             0x00000d24: 69 74 2e 6e: 
             0x00000d28: 73 74 61 63: 
             0x00000d2c: 6b 77 6f 72: 
             0x00000d30: 64 73 00 5f: 
             0x00000d34: 65 78 69 74: 
             0x00000d38: 2e 6d 61 78: 
             0x00000d3c: 63 68 61 6e: 
             0x00000d40: 65 6e 64 73: 
             0x00000d44: 00 5f 65 78: 
             0x00000d48: 69 74 2e 6d: 
             0x00000d4c: 61 78 74 69: 
             0x00000d50: 6d 65 72 73: 
             0x00000d54: 00 5f 65 78: 
             0x00000d58: 69 74 2e 6d: 
             0x00000d5c: 61 78 74 68: 
             0x00000d60: 72 65 61 64: 
             0x00000d64: 73 00 5f 44: 
             0x00000d68: 6f 53 79 73: 
             0x00000d6c: 63 61 6c 6c: 
             0x00000d70: 2e 6e 73 74: 
             0x00000d74: 61 63 6b 77: 
             0x00000d78: 6f 72 64 73: 
             0x00000d7c: 00 5f 44 6f: 
             0x00000d80: 53 79 73 63: 
             0x00000d84: 61 6c 6c 2e: 
             0x00000d88: 6d 61 78 63: 
             0x00000d8c: 68 61 6e 65: 
             0x00000d90: 6e 64 73 00: 
             0x00000d94: 5f 44 6f 53: 
             0x00000d98: 79 73 63 61: 
             0x00000d9c: 6c 6c 2e 6d: 
             0x00000da0: 61 78 74 69: 
             0x00000da4: 6d 65 72 73: 
             0x00000da8: 00 5f 44 6f: 
             0x00000dac: 53 79 73 63: 
             0x00000db0: 61 6c 6c 2e: 
             0x00000db4: 6d 61 78 74: 
             0x00000db8: 68 72 65 61: 
             0x00000dbc: 64 73 00 5f: 
             0x00000dc0: 44 6f 53 79: 
             0x00000dc4: 73 63 61 6c: 
             0x00000dc8: 6c 00 2e 2e: 
             0x00000dcc: 2f 2e 2e 2f: 
             0x00000dd0: 2e 2e 2f 2e: 
             0x00000dd4: 2e 2f 2e 2e: 
             0x00000dd8: 2f 2e 2e 2f: 
             0x00000ddc: 73 72 63 2f: 
             0x00000de0: 6e 65 77 6c: 
             0x00000de4: 69 62 2f 6c: 
             0x00000de8: 69 62 63 2f: 
             0x00000dec: 6d 61 63 68: 
             0x00000df0: 69 6e 65 2f: 
             0x00000df4: 78 63 6f 72: 
             0x00000df8: 65 2f 65 78: 
             0x00000dfc: 69 74 2e 63: 
             0x00000e00: 00 5f 65 78: 
             0x00000e04: 69 74 5f 75: 
             0x00000e08: 6e 6c 6f 63: 
             0x00000e0c: 6b 65 64 2e: 
             0x00000e10: 6c 6f 63 6e: 
             0x00000e14: 6f 63 68 61: 
             0x00000e18: 6e 64 65 63: 
             0x00000e1c: 00 5f 65 78: 
             0x00000e20: 69 74 5f 75: 
             0x00000e24: 6e 6c 6f 63: 
             0x00000e28: 6b 65 64 2e: 
             0x00000e2c: 6c 6f 63 6e: 
             0x00000e30: 6f 73 69 64: 
             0x00000e34: 65 00 2e 2e: 
             0x00000e38: 2f 2e 2e 2f: 
             0x00000e3c: 2e 2e 2f 2e: 
             0x00000e40: 2e 2f 2e 2e: 
             0x00000e44: 2f 2e 2e 2f: 
             0x00000e48: 73 72 63 2f: 
             0x00000e4c: 6e 65 77 6c: 
             0x00000e50: 69 62 2f 6c: 
             0x00000e54: 69 62 63 2f: 
             0x00000e58: 6d 61 63 68: 
             0x00000e5c: 69 6e 65 2f: 
             0x00000e60: 78 63 6f 72: 
             0x00000e64: 65 2f 6d 65: 
             0x00000e68: 6d 73 65 74: 
             0x00000e6c: 2e 63 00 6d: 
             0x00000e70: 65 6d 73 65: 
             0x00000e74: 74 2e 6e 73: 
             0x00000e78: 74 61 63 6b: 
             0x00000e7c: 77 6f 72 64: 
             0x00000e80: 73 00 6d 65: 
             0x00000e84: 6d 73 65 74: 
             0x00000e88: 2e 6d 61 78: 
             0x00000e8c: 74 68 72 65: 
             0x00000e90: 61 64 73 00: 
             0x00000e94: 6d 65 6d 73: 
             0x00000e98: 65 74 2e 6d: 
             0x00000e9c: 61 78 74 69: 
             0x00000ea0: 6d 65 72 73: 
             0x00000ea4: 00 6d 65 6d: 
             0x00000ea8: 73 65 74 2e: 
             0x00000eac: 6d 61 78 63: 
             0x00000eb0: 68 61 6e 65: 
             0x00000eb4: 6e 64 73 00: 
             0x00000eb8: 6d 65 6d 73: 
             0x00000ebc: 65 74 2e 6c: 
             0x00000ec0: 6f 63 6e 6f: 
             0x00000ec4: 63 68 61 6e: 
             0x00000ec8: 64 65 63 00: 
             0x00000ecc: 6d 65 6d 73: 
             0x00000ed0: 65 74 2e 6c: 
             0x00000ed4: 6f 63 6e 6f: 
             0x00000ed8: 73 69 64 65: 
             0x00000edc: 00 2e 2e 2f: 
             0x00000ee0: 2e 2e 2f 2e: 
             0x00000ee4: 2e 2f 2e 2e: 
             0x00000ee8: 2f 2e 2e 2f: 
             0x00000eec: 73 72 63 2f: 
             0x00000ef0: 6e 65 77 6c: 
             0x00000ef4: 69 62 2f 6c: 
             0x00000ef8: 69 62 63 2f: 
             0x00000efc: 73 74 64 6c: 
             0x00000f00: 69 62 2f 72: 
             0x00000f04: 61 6e 64 2e: 
             0x00000f08: 63 00 73 72: 
             0x00000f0c: 61 6e 64 2e: 
             0x00000f10: 6c 6f 63 6e: 
             0x00000f14: 6f 63 68 61: 
             0x00000f18: 6e 64 65 63: 
             0x00000f1c: 00 73 72 61: 
             0x00000f20: 6e 64 2e 6c: 
             0x00000f24: 6f 63 6e 6f: 
             0x00000f28: 73 69 64 65: 
             0x00000f2c: 00 72 61 6e: 
             0x00000f30: 64 2e 6c 6f: 
             0x00000f34: 63 6e 6f 63: 
             0x00000f38: 68 61 6e 64: 
             0x00000f3c: 65 63 00 72: 
             0x00000f40: 61 6e 64 2e: 
             0x00000f44: 6c 6f 63 6e: 
             0x00000f48: 6f 73 69 64: 
             0x00000f4c: 65 00 5f 72: 
             0x00000f50: 61 6e 64 5f: 
             0x00000f54: 6e 65 78 74: 
             0x00000f58: 00 73 79 73: 
             0x00000f5c: 63 61 6c 6c: 
             0x00000f60: 2e 53 00 2e: 
             0x00000f64: 2e 2f 2e 2e: 
             0x00000f68: 2f 2e 2e 2f: 
             0x00000f6c: 2e 2e 2f 2e: 
             0x00000f70: 2e 2f 2e 2e: 
             0x00000f74: 2f 73 72 63: 
             0x00000f78: 2f 6e 65 77: 
             0x00000f7c: 6c 69 62 2f: 
             0x00000f80: 6c 69 62 63: 
             0x00000f84: 2f 6d 61 63: 
             0x00000f88: 68 69 6e 65: 
             0x00000f8c: 2f 78 63 6f: 
             0x00000f90: 72 65 2f 5f: 
             0x00000f94: 5f 63 61 6c: 
             0x00000f98: 6c 5f 61 74: 
             0x00000f9c: 65 78 69 74: 
             0x00000fa0: 2e 63 00 5f: 
             0x00000fa4: 5f 63 61 6c: 
             0x00000fa8: 6c 5f 65 78: 
             0x00000fac: 69 74 70 72: 
             0x00000fb0: 6f 63 73 5f: 
             0x00000fb4: 69 6d 70 6c: 
             0x00000fb8: 00 5f 5f 63: 
             0x00000fbc: 61 6c 6c 5f: 
             0x00000fc0: 65 78 69 74: 
             0x00000fc4: 70 72 6f 63: 
             0x00000fc8: 73 5f 69 6d: 
             0x00000fcc: 70 6c 2e 6e: 
             0x00000fd0: 73 74 61 63: 
             0x00000fd4: 6b 77 6f 72: 
             0x00000fd8: 64 73 00 5f: 
             0x00000fdc: 5f 63 61 6c: 
             0x00000fe0: 6c 5f 65 78: 
             0x00000fe4: 69 74 70 72: 
             0x00000fe8: 6f 63 73 5f: 
             0x00000fec: 69 6d 70 6c: 
             0x00000ff0: 2e 6d 61 78: 
             0x00000ff4: 74 68 72 65: 
             0x00000ff8: 61 64 73 00: 
             0x00000ffc: 5f 5f 63 61: 
             0x00001000: 6c 6c 5f 65: 
             0x00001004: 78 69 74 70: 
             0x00001008: 72 6f 63 73: 
             0x0000100c: 5f 69 6d 70: 
             0x00001010: 6c 2e 6d 61: 
             0x00001014: 78 74 69 6d: 
             0x00001018: 65 72 73 00: 
             0x0000101c: 5f 5f 63 61: 
             0x00001020: 6c 6c 5f 65: 
             0x00001024: 78 69 74 70: 
             0x00001028: 72 6f 63 73: 
             0x0000102c: 5f 69 6d 70: 
             0x00001030: 6c 2e 6d 61: 
             0x00001034: 78 63 68 61: 
             0x00001038: 6e 65 6e 64: 
             0x0000103c: 73 00 5f 5f: 
             0x00001040: 63 61 6c 6c: 
             0x00001044: 5f 65 78 69: 
             0x00001048: 74 70 72 6f: 
             0x0000104c: 63 73 5f 69: 
             0x00001050: 6d 70 6c 2e: 
             0x00001054: 6c 6f 63 6e: 
             0x00001058: 6f 63 68 61: 
             0x0000105c: 6e 64 65 63: 
             0x00001060: 00 5f 5f 63: 
             0x00001064: 61 6c 6c 5f: 
             0x00001068: 65 78 69 74: 
             0x0000106c: 70 72 6f 63: 
             0x00001070: 73 5f 69 6d: 
             0x00001074: 70 6c 2e 6c: 
             0x00001078: 6f 63 6e 6f: 
             0x0000107c: 73 69 64 65: 
             0x00001080: 00 5f 5f 63: 
             0x00001084: 61 6c 6c 5f: 
             0x00001088: 65 78 69 74: 
             0x0000108c: 70 72 6f 63: 
             0x00001090: 73 2e 6c 6f: 
             0x00001094: 63 6e 6f 63: 
             0x00001098: 68 61 6e 64: 
             0x0000109c: 65 63 00 5f: 
             0x000010a0: 5f 63 61 6c: 
             0x000010a4: 6c 5f 65 78: 
             0x000010a8: 69 74 70 72: 
             0x000010ac: 6f 63 73 2e: 
             0x000010b0: 6c 6f 63 6e: 
             0x000010b4: 6f 73 69 64: 
             0x000010b8: 65 00 2e 2e: 
             0x000010bc: 2f 2e 2e 2f: 
             0x000010c0: 2e 2e 2f 2e: 
             0x000010c4: 2e 2f 2e 2e: 
             0x000010c8: 2f 2e 2e 2f: 
             0x000010cc: 73 72 63 2f: 
             0x000010d0: 6e 65 77 6c: 
             0x000010d4: 69 62 2f 6c: 
             0x000010d8: 69 62 63 2f: 
             0x000010dc: 73 79 73 2f: 
             0x000010e0: 78 63 6f 72: 
             0x000010e4: 65 2f 6c 6f: 
             0x000010e8: 63 6b 2e 63: 
             0x000010ec: 00 5f 5f 61: 
             0x000010f0: 6c 6c 6f 63: 
             0x000010f4: 5f 6c 69 62: 
             0x000010f8: 63 5f 68 77: 
             0x000010fc: 6c 6f 63 6b: 
             0x00001100: 2e 6e 73 74: 
             0x00001104: 61 63 6b 77: 
             0x00001108: 6f 72 64 73: 
             0x0000110c: 00 5f 5f 61: 
             0x00001110: 6c 6c 6f 63: 
             0x00001114: 5f 6c 69 62: 
             0x00001118: 63 5f 68 77: 
             0x0000111c: 6c 6f 63 6b: 
             0x00001120: 2e 6d 61 78: 
             0x00001124: 74 68 72 65: 
             0x00001128: 61 64 73 00: 
             0x0000112c: 5f 5f 61 6c: 
             0x00001130: 6c 6f 63 5f: 
             0x00001134: 6c 69 62 63: 
             0x00001138: 5f 68 77 6c: 
             0x0000113c: 6f 63 6b 2e: 
             0x00001140: 6d 61 78 74: 
             0x00001144: 69 6d 65 72: 
             0x00001148: 73 00 5f 5f: 
             0x0000114c: 61 6c 6c 6f: 
             0x00001150: 63 5f 6c 69: 
             0x00001154: 62 63 5f 68: 
             0x00001158: 77 6c 6f 63: 
             0x0000115c: 6b 2e 6d 61: 
             0x00001160: 78 63 68 61: 
             0x00001164: 6e 65 6e 64: 
             0x00001168: 73 00 5f 5f: 
             0x0000116c: 61 6c 6c 6f: 
             0x00001170: 63 5f 6c 69: 
             0x00001174: 62 63 5f 68: 
             0x00001178: 77 6c 6f 63: 
             0x0000117c: 6b 2e 6c 6f: 
             0x00001180: 63 6e 6f 63: 
             0x00001184: 68 61 6e 64: 
             0x00001188: 65 63 00 5f: 
             0x0000118c: 5f 61 6c 6c: 
             0x00001190: 6f 63 5f 6c: 
             0x00001194: 69 62 63 5f: 
             0x00001198: 68 77 6c 6f: 
             0x0000119c: 63 6b 2e 6c: 
             0x000011a0: 6f 63 6e 6f: 
             0x000011a4: 73 69 64 65: 
             0x000011a8: 00 5f 5f 6c: 
             0x000011ac: 69 62 63 5f: 
             0x000011b0: 68 77 6c 6f: 
             0x000011b4: 63 6b 00 2e: 
             0x000011b8: 2e 2f 2e 2e: 
             0x000011bc: 2f 2e 2e 2f: 
             0x000011c0: 2e 2e 2f 2e: 
             0x000011c4: 2e 2f 2e 2e: 
             0x000011c8: 2f 73 72 63: 
             0x000011cc: 2f 6e 65 77: 
             0x000011d0: 6c 69 62 2f: 
             0x000011d4: 6c 69 62 63: 
             0x000011d8: 2f 6d 61 63: 
             0x000011dc: 68 69 6e 65: 
             0x000011e0: 2f 78 63 6f: 
             0x000011e4: 72 65 2f 63: 
             0x000011e8: 6c 65 61 6e: 
             0x000011ec: 75 70 2e 63: 
             0x000011f0: 00 5f 63 6c: 
             0x000011f4: 65 61 6e 75: 
             0x000011f8: 70 5f 69 6d: 
             0x000011fc: 70 6c 00 5f: 
             0x00001200: 63 6c 65 61: 
             0x00001204: 6e 75 70 5f: 
             0x00001208: 69 6d 70 6c: 
             0x0000120c: 2e 6e 73 74: 
             0x00001210: 61 63 6b 77: 
             0x00001214: 6f 72 64 73: 
             0x00001218: 00 5f 63 6c: 
             0x0000121c: 65 61 6e 75: 
             0x00001220: 70 5f 69 6d: 
             0x00001224: 70 6c 2e 6d: 
             0x00001228: 61 78 74 68: 
             0x0000122c: 72 65 61 64: 
             0x00001230: 73 00 5f 63: 
             0x00001234: 6c 65 61 6e: 
             0x00001238: 75 70 5f 69: 
             0x0000123c: 6d 70 6c 2e: 
             0x00001240: 6d 61 78 74: 
             0x00001244: 69 6d 65 72: 
             0x00001248: 73 00 5f 63: 
             0x0000124c: 6c 65 61 6e: 
             0x00001250: 75 70 5f 69: 
             0x00001254: 6d 70 6c 2e: 
             0x00001258: 6d 61 78 63: 
             0x0000125c: 68 61 6e 65: 
             0x00001260: 6e 64 73 00: 
             0x00001264: 5f 63 6c 65: 
             0x00001268: 61 6e 75 70: 
             0x0000126c: 5f 69 6d 70: 
             0x00001270: 6c 2e 6c 6f: 
             0x00001274: 63 6e 6f 63: 
             0x00001278: 68 61 6e 64: 
             0x0000127c: 65 63 00 5f: 
             0x00001280: 63 6c 65 61: 
             0x00001284: 6e 75 70 5f: 
             0x00001288: 69 6d 70 6c: 
             0x0000128c: 2e 6c 6f 63: 
             0x00001290: 6e 6f 73 69: 
             0x00001294: 64 65 00 5f: 
             0x00001298: 63 6c 65 61: 
             0x0000129c: 6e 75 70 2e: 
             0x000012a0: 6c 6f 63 6e: 
             0x000012a4: 6f 63 68 61: 
             0x000012a8: 6e 64 65 63: 
             0x000012ac: 00 5f 63 6c: 
             0x000012b0: 65 61 6e 75: 
             0x000012b4: 70 2e 6c 6f: 
             0x000012b8: 63 6e 6f 73: 
             0x000012bc: 69 64 65 00: 
             0x000012c0: 64 6f 6e 65: 
             0x000012c4: 2e 53 00 5f: 
             0x000012c8: 64 6f 6e 65: 
             0x000012cc: 2e 6c 6f 63: 
             0x000012d0: 6e 6f 63 68: 
             0x000012d4: 61 6e 64 65: 
             0x000012d8: 63 00 63 72: 
             0x000012dc: 74 65 6e 64: 
             0x000012e0: 2e 73 00 63: 
             0x000012e4: 74 6f 72 5f: 
             0x000012e8: 6c 69 73 74: 
             0x000012ec: 5f 70 74 72: 
             0x000012f0: 00 63 74 6f: 
             0x000012f4: 72 73 5f 73: 
             0x000012f8: 69 7a 65 00: 
             0x000012fc: 5f 43 54 4f: 
             0x00001300: 52 5f 45 4e: 
             0x00001304: 44 5f 00 64: 
             0x00001308: 6f 5f 63 74: 
             0x0000130c: 6f 72 73 5f: 
             0x00001310: 6c 6f 6f 70: 
             0x00001314: 00 64 6f 5f: 
             0x00001318: 63 74 6f 72: 
             0x0000131c: 73 5f 65 6e: 
             0x00001320: 64 00 5f 5f: 
             0x00001324: 65 68 5f 6f: 
             0x00001328: 62 6a 65 63: 
             0x0000132c: 74 00 5f 5f: 
             0x00001330: 45 48 5f 46: 
             0x00001334: 52 41 4d 45: 
             0x00001338: 5f 45 4e 44: 
             0x0000133c: 5f 5f 00 63: 
             0x00001340: 72 74 6e 2e: 
             0x00001344: 73 00 2e 72: 
             0x00001348: 61 6d 5f 62: 
             0x0000134c: 61 73 65 00: 
             0x00001350: 2e 43 50 4d: 
             0x00001354: 30 00 2e 43: 
             0x00001358: 50 4d 31 00: 
             0x0000135c: 2e 43 50 4d: 
             0x00001360: 32 00 2e 43: 
             0x00001364: 50 4d 33 00: 
             0x00001368: 2e 43 50 4d: 
             0x0000136c: 34 00 2e 78: 
             0x00001370: 6d 6f 73 6e: 
             0x00001374: 6f 74 65 00: 
             0x00001378: 66 7b 30 7d: 
             0x0000137c: 28 30 29 00: 
             0x00001380: 66 7b 73 69: 
             0x00001384: 7d 28 30 29: 
             0x00001388: 00 66 7b 30: 
             0x0000138c: 7d 28 73 69: 
             0x00001390: 29 00 66 7b: 
             0x00001394: 70 28 30 29: 
             0x00001398: 7d 28 70 28: 
             0x0000139c: 30 29 2c 73: 
             0x000013a0: 69 2c 75 69: 
             0x000013a4: 29 00 66 7b: 
             0x000013a8: 30 7d 28 75: 
             0x000013ac: 69 29 00 61: 
             0x000013b0: 28 34 3a 63: 
             0x000013b4: 72 29 00 66: 
             0x000013b8: 7b 30 7d 28: 
             0x000013bc: 63 68 64 29: 
             0x000013c0: 00 66 7b 73: 
             0x000013c4: 69 7d 28 63: 
             0x000013c8: 68 64 29 00: 
             0x000013cc: 66 7b 30 7d: 
             0x000013d0: 28 73 69 2c: 
             0x000013d4: 70 28 30 29: 
             0x000013d8: 29 00 75 69: 
             0x000013dc: 00 2e 65 78: 
             0x000013e0: 70 72 00 2e: 
             0x000013e4: 73 79 6d 74: 
             0x000013e8: 61 62 00 2e: 
             0x000013ec: 73 74 72 74: 
             0x000013f0: 61 62 00 00: 

Loadable 1 for stdcore[2] (node "0", core 2):

Disassembly of section section .text (size: 606)

<_start>:
             0x00010000: 4b 68:       ldc (ru6)       r1, 0xb
             0x00010002: d1 fe ec 17: get (l2r)       r0, ps[r1]
             0x00010006: 04 f0 8b 68: ldc (lru6)      r2, 0x10b
             0x0001000a: c2 fe ec 1f: set (lr2r)      ps[r2], r0
             0x0001000e: 4a d0:       bl (u10)        0x4a <_SetupTraps>
             0x00010010: 0f d0:       bl (u10)        0xf <_GetRamEnd>
             0x00010012: f0 2f:       set (1r)        sp, r0
             0x00010014: 01 f0 80 77: extsp (lu6)     0x40
             0x00010018: 00 f0 70 d9: ldap (lu10)     r11, 0x170 <.label0>
             0x0001001c: fb 37:       set (1r)        cp, r11
             0x0001001e: 00 f0 77 d9: ldap (lu10)     r11, 0x177 <.label1>
             0x00010022: eb 37:       set (1r)        dp, r11
             0x00010024: c3 86:       getr (rus)      r0, 0x3

<_InitThreadLoop>:
             0x00010026: d4 06:       getst (2r)      r1, res[r0]
             0x00010028: b4 b0:       eq (2rus)       r11, r1, 0x0
             0x0001002a: cc 72:       bt (ru6)        r11, 0xc <_Join>
             0x0001002c: 1f d0:       bl (u10)        0x1f <_InitThread>
             0x0001002e: 05 77:       bu (u6)         -0x5 <_InitThreadLoop>

<_GetRamEnd>:
             0x00010030: cb 6a:       ldc (ru6)       r11, 0xb
             0x00010032: bb ff ec 17: get (l2r)       r10, ps[r11]
             0x00010036: 00 f0 5f d9: ldap (lu10)     r11, 0x15f <.label2>
             0x0001003a: 3c 0a:       ldw (2rus)      r11, r11[0x0]
             0x0001003c: 0b 16:       add (3r)        r0, r10, r11
             0x0001003e: c0 77:       retsp (u6)      0x0

<_ExitWithError>:
             0x00010040: 02 f0 19 73: bu (lu6)        0x99 <_exit>

<_Join>:
             0x00010044: f0 1f:       msync (1r)      res[r0]
             0x00010046: f0 17:       mjoin (1r)      res[r0]
             0x00010048: e0 17:       freer (1r)      res[r0]
             0x0001004a: 1f d0:       bl (u10)        0x1f <_TouchRegisters>
             0x0001004c: 00 f0 07 d1: bl (lu10)       0x107 <.label3>
             0x00010050: 00 f0 c6 6a: ldc (lru6)      r11, 0x6
             0x00010054: c8 ea:       setc (ru6)      res[r11], 0x8
             0x00010056: cf ea:       setc (ru6)      res[r11], 0xf
             0x00010058: 00 68:       ldc (ru6)       r0, 0x0
             0x0001005a: 00 f0 40 60: ldaw (lru6)     r1, dp[0x0]
             0x0001005e: 00 f0 26 d0: bl (lu10)       0x26 <main>
             0x00010062: 02 70:       bt (ru6)        r0, 0x2 <_NonZeroReturn>
             0x00010064: 01 f0 3c 73: bu (lu6)        0x7c <__libc_done>

<_NonZeroReturn>:
             0x00010068: 02 f0 0b 73: bu (lu6)        0x8b <_exit_unlocked>

<_InitThread>:
             0x0001006c: 00 f0 46 d9: ldap (lu10)     r11, 0x146 <.label0>
             0x00010070: 4d 1f:       init (2r)       t[r1]:cp, r11
             0x00010072: 00 f0 4d d9: ldap (lu10)     r11, 0x14d <.label1>
             0x00010076: 4d 0f:       init (2r)       t[r1]:dp, r11
             0x00010078: 05 d8:       ldap (u10)      r11, 0x5 <_InitThreadRoutine>
             0x0001007a: 4d 07:       init (2r)       t[r1]:pc, r11
             0x0001007c: c0 77:       retsp (u6)      0x0
             0x0001007e: 00 90:       add (2rus)      r0, r0, 0x0

<_TrapHandler>:
             0x00010080: 01 f0 2c 73: bu (lu6)        0x6c <_DoException> <endOfStartup>

<_InitThreadRoutine>:
             0x00010084: 02 d0:       bl (u10)        0x2 <_TouchRegisters>
             0x00010086: 0e d0:       bl (u10)        0xe <_SetupTraps>
             0x00010088: ee 07:       ssync (0r)      

<_TouchRegisters>:
             0x0001008a: 00 68:       ldc (ru6)       r0, 0x0
             0x0001008c: 40 68:       ldc (ru6)       r1, 0x0
             0x0001008e: 80 68:       ldc (ru6)       r2, 0x0
             0x00010090: c0 68:       ldc (ru6)       r3, 0x0
             0x00010092: 00 69:       ldc (ru6)       r4, 0x0
             0x00010094: 40 69:       ldc (ru6)       r5, 0x0
             0x00010096: 80 69:       ldc (ru6)       r6, 0x0
             0x00010098: c0 69:       ldc (ru6)       r7, 0x0
             0x0001009a: 00 6a:       ldc (ru6)       r8, 0x0
             0x0001009c: 40 6a:       ldc (ru6)       r9, 0x0
             0x0001009e: 80 6a:       ldc (ru6)       r10, 0x0
             0x000100a0: c0 6a:       ldc (ru6)       r11, 0x0
             0x000100a2: c0 77:       retsp (u6)      0x0

<_SetupTraps>:
             0x000100a4: 13 dc:       ldap (u10)      r11, -0x13 <_TrapHandler>
             0x000100a6: ff 07:       set (0r)        kep, r11
             0x000100a8: c0 77:       retsp (u6)      0x0

<__register_frame_info_bases>:
<__free_libc_hwlock>:
.label22     0x000100aa: c0 77:       retsp (u6)      0x0

<__mcmain000002>:
             0x000100ac: c0 77:       retsp (u6)      0x0

<main>:
             0x000100ae: 42 77:       entsp (u6)      0x2

<getAllChannels>:
             0x000100b0: c2 86:       getr (rus)      r0, 0x2
             0x000100b2: 02 74:       bt (ru6)        r0, -0x2 <getAllChannels>
             0x000100b4: 9f 68:       ldc (ru6)       r2, 0x1f
             0x000100b6: c1 68:       ldc (ru6)       r3, 0x1
             0x000100b8: 04 f0 40 68: ldc (lru6)      r1, 0x100
             0x000100bc: 00 f0 00 6c: ldw (lru6)      r0, cp[0x0]
             0x000100c0: 01 10:       add (3r)        r0, r0, r1

<freeAllChannels>:
             0x000100c2: e0 17:       freer (1r)      res[r0]

<skipFree>:
             0x000100c4: 01 10:       add (3r)        r0, r0, r1
             0x000100c6: 4e 30:       eq (3r)         r4, r3, r2
             0x000100c8: 3d 90:       add (2rus)      r3, r3, 0x1
             0x000100ca: 05 7d:       bf (ru6)        r4, -0x5 <freeAllChannels>
             0x000100cc: 82 68:       ldc (ru6)       r2, 0x2
             0x000100ce: c6 86:       getr (rus)      r1, 0x2
             0x000100d0: 1b d0:       bl (u10)        0x1b <waitForScratch>
             0x000100d2: 00 f0 00 6c: ldw (lru6)      r0, cp[0x0]

<receiveEnd>:
             0x000100d6: c4 b6:       in (2r)         r1, res[r0]
             0x000100d8: d1 ce:       chkct (rus)     res[r0], 0x1
             0x000100da: d4 16:       setd (r2r)      res[r0], r1
             0x000100dc: c0 ae:       out (r2r)       res[r0], r0
             0x000100de: d1 4e:       outct (rus)     res[r0], 0x1

<waitForZero>:
             0x000100e0: c4 b6:       in (2r)         r1, res[r0]
             0x000100e2: d1 ce:       chkct (rus)     res[r0], 0x1
             0x000100e4: 43 74:       bt (ru6)        r1, -0x3 <waitForZero>

<noChans>:
             0x000100e6: c0 ae:       out (r2r)       res[r0], r0
             0x000100e8: d1 4e:       outct (rus)     res[r0], 0x1
             0x000100ea: e0 17:       freer (1r)      res[r0]
             0x000100ec: 00 f0 22 d4: bl (lu10)       -0x22 <__mcmain000002>
             0x000100f0: 00 73:       bu (u6)         0x0 <returnToCRT>

<returnToCRT>:
             0x000100f2: 00 68:       ldc (ru6)       r0, 0x0
             0x000100f4: c2 77:       retsp (u6)      0x2

<buildRegArg>:
             0x000100f6: bc 09:       ldw (2rus)      r3, r11[0x0]
             0x000100f8: 3d fa ec 9f: ldaw (l2rus)    r11, r11[0x1]
             0x000100fc: df 3a:       and (3r)        r9, r3, r7
             0x000100fe: 43 7a:       bf (ru6)        r9, 0x3 <hasEndReg>
             0x00010100: 8f 2f:       andnot (2r)     r3, r7
             0x00010102: 2c 45:       or (3r)         r10, r3, r8
             0x00010104: 5b 17:       setd (r2r)      res[r3], r10

<hasEndReg>:
             0x00010106: c0 77:       retsp (u6)      0x0

<waitForScratch>:
             0x00010108: 83 69:       ldc (ru6)       r6, 0x3
             0x0001010a: 0c f3 cc 69: ldc (lru6)      r7, 0xc30c
             0x0001010e: 36 ad:       shr (2rus)      r11, r1, 0x18
             0x00010110: be a6:       shl (2rus)      r11, r11, 0x18
             0x00010112: bf 45:       or (3r)         r7, r7, r11
             0x00010114: 1d 17:       setd (r2r)      res[r1], r7
             0x00010116: b4 ac:       shr (2rus)      r3, r1, 0x8
             0x00010118: 03 f0 c1 6a: ldc (lru6)      r11, 0xc1

<waitForScratchTop>:
             0x0001011c: 27 4f:       outct (2r)      res[r1], r11
             0x0001011e: fd ac:       shr (2rus)      r7, r3, 0x10
             0x00010120: 1d 0f:       outt (r2r)      res[r1], r7
             0x00010122: fc ac:       shr (2rus)      r7, r3, 0x8
             0x00010124: 1d 0f:       outt (r2r)      res[r1], r7
             0x00010126: dd 0e:       outt (r2r)      res[r1], r3
             0x00010128: b8 ad:       shr (2rus)      r7, r6, 0x8
             0x0001012a: 1d 0f:       outt (r2r)      res[r1], r7
             0x0001012c: 19 0f:       outt (r2r)      res[r1], r6
             0x0001012e: d5 4e:       outct (rus)     res[r1], 0x1
             0x00010130: d7 ce:       chkct (rus)     res[r1], 0x3
             0x00010132: 45 b7:       in (2r)         r9, res[r1]
             0x00010134: d5 ce:       chkct (rus)     res[r1], 0x1
             0x00010136: 26 32:       eq (3r)         r10, r9, r2
             0x00010138: 8f 7e:       bf (ru6)        r10, -0xf <waitForScratchTop>

<writeToScratch>:
             0x0001013a: 03 f0 c0 6a: ldc (lru6)      r11, 0xc0
             0x0001013e: 27 4f:       outct (2r)      res[r1], r11
             0x00010140: cd ac:       shr (2rus)      r4, r3, 0x10
             0x00010142: 11 0f:       outt (r2r)      res[r1], r4
             0x00010144: cc ac:       shr (2rus)      r4, r3, 0x8
             0x00010146: 11 0f:       outt (r2r)      res[r1], r4
             0x00010148: dd 0e:       outt (r2r)      res[r1], r3
             0x0001014a: 1d 0f:       outt (r2r)      res[r1], r7
             0x0001014c: 19 0f:       outt (r2r)      res[r1], r6
             0x0001014e: 29 90:       add (2rus)      r2, r2, 0x1
             0x00010150: c9 ae:       out (r2r)       res[r1], r2
             0x00010152: d5 4e:       outct (rus)     res[r1], 0x1
             0x00010154: d7 ce:       chkct (rus)     res[r1], 0x3
             0x00010156: d5 ce:       chkct (rus)     res[r1], 0x1
             0x00010158: e1 17:       freer (1r)      res[r1]
             0x0001015a: c0 77:       retsp (u6)      0x0

<_DoException>:
<endOfStartup>:
             0x0001015c: ed 07:       clre (0r)       
             0x0001015e: ec 07:       waiteu (0r)     

<__libc_done>:
             0x00010160: 41 77:       entsp (u6)      0x1
             0x00010162: 00 68:       ldc (ru6)       r0, 0x0
             0x00010164: 10 90:       add (2rus)      r1, r0, 0x0
             0x00010166: 00 f0 69 d0: bl (lu10)       0x69 <__call_exitprocs>
             0x0001016a: 00 f0 6f d0: bl (lu10)       0x6f <_cleanup>
             0x0001016e: 00 f0 a4 d0: bl (lu10)       0xa4 <.label4>
             0x00010172: 00 f0 6f d0: bl (lu10)       0x6f <_done>

<_exit>:
             0x00010176: 10 90:       add (2rus)      r1, r0, 0x0
             0x00010178: 00 68:       ldc (ru6)       r0, 0x0
             0x0001017a: 00 f0 5d d0: bl (lu10)       0x5d <_DoSyscall>
             0x0001017e: ed 07:       clre (0r)       
             0x00010180: ec 07:       waiteu (0r)     

<_exit_unlocked>:
             0x00010182: 42 77:       entsp (u6)      0x2
             0x00010184: 01 55:       stw (ru6)       r4, sp[0x1]
             0x00010186: 40 90:       add (2rus)      r4, r0, 0x0
             0x00010188: 40 68:       ldc (ru6)       r1, 0x0
             0x0001018a: 00 f0 57 d0: bl (lu10)       0x57 <__call_exitprocs>
             0x0001018e: 00 f0 5d d0: bl (lu10)       0x5d <_cleanup>
             0x00010192: 00 f0 92 d0: bl (lu10)       0x92 <.label4>
             0x00010196: c0 90:       add (2rus)      r0, r4, 0x0
             0x00010198: 00 f0 13 d4: bl (lu10)       -0x13 <_exit>

<memset>:
.label17     0x0001019c: 45 77:       entsp (u6)      0x5
             0x0001019e: 04 55:       stw (ru6)       r4, sp[0x4]
             0x000101a0: 43 55:       stw (ru6)       r5, sp[0x3]
             0x000101a2: 82 55:       stw (ru6)       r6, sp[0x2]
             0x000101a4: c1 55:       stw (ru6)       r7, sp[0x1]
             0x000101a6: 00 56:       stw (ru6)       r8, sp[0x0]
             0x000101a8: 34 90:       add (2rus)      r3, r1, 0x0
             0x000101aa: 3c 47:       zext (rus)      r3, 0x8
             0x000101ac: c0 6a:       ldc (ru6)       r11, 0x0
             0x000101ae: 00 69:       ldc (ru6)       r4, 0x0
             0x000101b0: dc 91:       add (2rus)      r5, r11, 0x0
             0x000101b2: 06 73:       bu (u6)         0x6 <.label5>
.label7      0x000101b4: 36 31:       eq (3r)         r7, r5, r2
             0x000101b6: fa 71:       bt (ru6)        r7, 0x3a <.label6>
             0x000101b8: 18 fb ec 8f: st8 (l3r)       r1, r6[r4]
             0x000101bc: 3d 9a:       sub (2rus)      r11, r11, 0x1
             0x000101be: 15 91:       add (2rus)      r5, r5, 0x1
.label5      0x000101c0: a1 12:       add (3r)        r6, r0, r5
             0x000101c2: 38 91:       add (2rus)      r7, r6, 0x0
             0x000101c4: 1e 47:       zext (rus)      r7, 0x2
             0x000101c6: ca 75:       bt (ru6)        r7, -0xa <.label7>
             0x000101c8: cb 14:       add (3r)        r4, r2, r11
             0x000101ca: 1a a7:       mkmsk (rus)     r6, 0x2
             0x000101cc: 48 cb:       lsu (3r)        r4, r6, r4
             0x000101ce: 25 79:       bf (ru6)        r4, 0x25 <.label8>
             0x000101d0: cc a4:       shl (2rus)      r4, r3, 0x8
             0x000101d2: f3 40:       or (3r)         r3, r4, r3
             0x000101d4: cd a4:       shl (2rus)      r4, r3, 0x10
             0x000101d6: 03 41:       or (3r)         r4, r4, r3
             0x000101d8: bb 14:       add (3r)        r3, r2, r11
             0x000101da: 90 69:       ldc (ru6)       r6, 0x10
             0x000101dc: 7e ca:       lsu (3r)        r3, r3, r6
             0x000101de: 91 12:       add (3r)        r5, r0, r5
             0x000101e0: d1 70:       bt (ru6)        r3, 0x11 <.label9>
             0x000101e2: 80 69:       ldc (ru6)       r6, 0x0
             0x000101e4: dc a7:       mkmsk (rus)     r7, 0x4
.label10     0x000101e6: 04 01:       stw (2rus)      r4, r5[0x0]
             0x000101e8: 05 01:       stw (2rus)      r4, r5[0x1]
             0x000101ea: 06 01:       stw (2rus)      r4, r5[0x2]
             0x000101ec: 07 01:       stw (2rus)      r4, r5[0x3]
             0x000101ee: bb 14:       add (3r)        r3, r2, r11
             0x000101f0: fb 10:       add (3r)        r3, r6, r3
             0x000101f2: 7c fa ec a7: ldaw (l2rus)    r3, r3[-0x4]
             0x000101f6: 4f c9:       lsu (3r)        r8, r7, r3
             0x000101f8: 68 fb ec a7: ldaw (l2rus)    r6, r6[-0x4]
             0x000101fc: 54 fb ec 9f: ldaw (l2rus)    r5, r5[0x4]
             0x00010200: 0e 76:       bt (ru6)        r8, -0xe <.label10>
             0x00010202: 01 73:       bu (u6)         0x1 <.label11>
.label9      0x00010204: bb 14:       add (3r)        r3, r2, r11
.label11     0x00010206: da a6:       mkmsk (rus)     r2, 0x2
             0x00010208: 2b c8:       lsu (3r)        r2, r2, r3
             0x0001020a: 89 78:       bf (ru6)        r2, 0x9 <.label12>
             0x0001020c: da a6:       mkmsk (rus)     r2, 0x2
.label13     0x0001020e: 04 01:       stw (2rus)      r4, r5[0x0]
             0x00010210: 7c 9a:       sub (2rus)      r3, r3, 0x4
             0x00010212: bb c8:       lsu (3r)        r11, r2, r3
             0x00010214: 54 93:       add (2rus)      r5, r5, 0x4
             0x00010216: c5 76:       bt (ru6)        r11, -0x5 <.label13>
             0x00010218: 02 73:       bu (u6)         0x2 <.label12>
.label8      0x0001021a: bb 14:       add (3r)        r3, r2, r11
             0x0001021c: 91 12:       add (3r)        r5, r0, r5
.label12     0x0001021e: c6 78:       bf (ru6)        r3, 0x6 <.label6>
             0x00010220: 80 68:       ldc (ru6)       r2, 0x0
.label14     0x00010222: d6 f8 ec 8f: st8 (l3r)       r1, r5[r2]
             0x00010226: 29 90:       add (2rus)      r2, r2, 0x1
             0x00010228: bb 30:       eq (3r)         r11, r2, r3
             0x0001022a: c5 7e:       bf (ru6)        r11, -0x5 <.label14>
.label6      0x0001022c: 00 5e:       ldw (ru6)       r8, sp[0x0]
             0x0001022e: c1 5d:       ldw (ru6)       r7, sp[0x1]
             0x00010230: 82 5d:       ldw (ru6)       r6, sp[0x2]
             0x00010232: 43 5d:       ldw (ru6)       r5, sp[0x3]
             0x00010234: 04 5d:       ldw (ru6)       r4, sp[0x4]
             0x00010236: c5 77:       retsp (u6)      0x5

<_DoSyscall>:
             0x00010238: d0 a6:       mkmsk (rus)     r0, 0x20
             0x0001023a: c0 77:       retsp (u6)      0x0

<__call_exitprocs>:
             0x0001023c: 41 77:       entsp (u6)      0x1
             0x0001023e: 00 f0 59 d0: bl (lu10)       0x59 <.label15>
             0x00010242: c1 77:       retsp (u6)      0x1

<__alloc_libc_hwlock>:
.label20     0x00010244: 81 87:       getr (rus)      r0, 0x5
             0x00010246: 00 f0 06 50: stw (lru6)      r0, dp[0x6]
             0x0001024a: c0 77:       retsp (u6)      0x0

<_cleanup>:
             0x0001024c: 41 77:       entsp (u6)      0x1
             0x0001024e: 00 f0 52 d0: bl (lu10)       0x52 <.label16>
             0x00010252: c1 77:       retsp (u6)      0x1

<_done>:
             0x00010254: 07 68:       ldc (ru6)       r0, 0x7
             0x00010256: 00 f0 11 d4: bl (lu10)       -0x11 <_DoSyscall>
             0x0001025a: ed 07:       clre (0r)       
             0x0001025c: ec 07:       waiteu (0r)     

Disassembly of section section .init (size: 92)

<_init>:
.label3      0x0001025e: 41 77:       entsp (u6)      0x1
             0x00010260: 00 f0 56 d8: ldap (lu10)     r11, 0x56 <.label1>
             0x00010264: 8c 91:       add (2rus)      r0, r11, 0x0
             0x00010266: 40 68:       ldc (ru6)       r1, 0x0
             0x00010268: 00 f0 52 d8: ldap (lu10)     r11, 0x52 <.label1>
             0x0001026c: ac 19:       sub (3r)        r2, r11, r0
             0x0001026e: 00 f0 6b d4: bl (lu10)       -0x6b <.label17>
             0x00010272: 00 f0 59 d8: ldap (lu10)     r11, 0x59 <.label18>
             0x00010276: 8c 91:       add (2rus)      r0, r11, 0x0
             0x00010278: 40 68:       ldc (ru6)       r1, 0x0
             0x0001027a: 00 f0 65 d8: ldap (lu10)     r11, 0x65 <.label19>
             0x0001027e: ac 19:       sub (3r)        r2, r11, r0
             0x00010280: 00 f0 74 d4: bl (lu10)       -0x74 <.label17>
             0x00010284: 00 f0 22 d4: bl (lu10)       -0x22 <.label20>
             0x00010288: 00 f0 4c d8: ldap (lu10)     r11, 0x4c <.label21>
             0x0001028c: 8c 91:       add (2rus)      r0, r11, 0x0
             0x0001028e: 00 f0 47 60: ldaw (lru6)     r1, dp[0x7]
             0x00010292: 80 68:       ldc (ru6)       r2, 0x0
             0x00010294: c0 68:       ldc (ru6)       r3, 0x0
             0x00010296: 00 f0 f8 d4: bl (lu10)       -0xf8 <.label22>
             0x0001029a: 00 f0 04 59: ldw (lru6)      r4, dp[0x4]
             0x0001029e: 02 a9:       shr (2rus)      r4, r4, 0x2
             0x000102a0: 0b 79:       bf (ru6)        r4, 0xb <do_ctors_end>
             0x000102a2: 00 f0 35 d8: ldap (lu10)     r11, 0x35 <.label1>
             0x000102a6: dc 91:       add (2rus)      r5, r11, 0x0
             0x000102a8: 00 f0 83 59: ldw (lru6)      r6, dp[0x3]
             0x000102ac: 66 1b:       sub (3r)        r6, r5, r6

<do_ctors_loop>:
             0x000102ae: 01 99:       sub (2rus)      r4, r4, 0x1
             0x000102b0: 04 4b:       ldw (3r)        r0, r5[r4]
             0x000102b2: 42 12:       add (3r)        r0, r0, r6
             0x000102b4: e0 27:       bla (1r)        r0
             0x000102b6: 05 75:       bt (ru6)        r4, -0x5 <do_ctors_loop>

<do_ctors_end>:
             0x000102b8: c1 77:       retsp (u6)      0x1

Disassembly of section section .fini (size: 58)

<_fini>:
.label4      0x000102ba: 41 77:       entsp (u6)      0x1
             0x000102bc: 85 77:       extsp (u6)      0x5
             0x000102be: 01 55:       stw (ru6)       r4, sp[0x1]
             0x000102c0: 42 55:       stw (ru6)       r5, sp[0x2]
             0x000102c2: 83 55:       stw (ru6)       r6, sp[0x3]
             0x000102c4: c4 55:       stw (ru6)       r7, sp[0x4]
             0x000102c6: 00 f0 c2 59: ldw (lru6)      r7, dp[0x2]
             0x000102ca: 3e a9:       shr (2rus)      r7, r7, 0x2
             0x000102cc: cd 79:       bf (ru6)        r7, 0xd <do_dtors_end>
             0x000102ce: 00 69:       ldc (ru6)       r4, 0x0
             0x000102d0: 00 f0 1e d8: ldap (lu10)     r11, 0x1e <.label1>
             0x000102d4: dc 91:       add (2rus)      r5, r11, 0x0
             0x000102d6: 00 f0 81 59: ldw (lru6)      r6, dp[0x1]
             0x000102da: 66 1b:       sub (3r)        r6, r5, r6

<do_dtors_loop>:
             0x000102dc: 04 4b:       ldw (3r)        r0, r5[r4]
             0x000102de: 42 12:       add (3r)        r0, r0, r6
             0x000102e0: e0 27:       bla (1r)        r0
             0x000102e2: 01 91:       add (2rus)      r4, r4, 0x1
             0x000102e4: b3 cb:       lsu (3r)        r11, r4, r7
             0x000102e6: c6 76:       bt (ru6)        r11, -0x6 <do_dtors_loop>

<do_dtors_end>:
             0x000102e8: 01 5d:       ldw (ru6)       r4, sp[0x1]
             0x000102ea: 42 5d:       ldw (ru6)       r5, sp[0x2]
             0x000102ec: 83 5d:       ldw (ru6)       r6, sp[0x3]
             0x000102ee: c4 5d:       ldw (ru6)       r7, sp[0x4]
             0x000102f0: 85 67:       ldaw (ru6)      sp, sp[0x5]
             0x000102f2: c1 77:       retsp (u6)      0x1

Disassembly of section section .gnu.linkonce.t.__call_exitprocs_impl (size: 2)

<__call_exitprocs_impl>:
.label15     0x000102f4: c0 77:       retsp (u6)      0x0

Disassembly of section section .gnu.linkonce.t._cleanup_impl (size: 2)

<_cleanup_impl>:
.label16     0x000102f6: c0 77:       retsp (u6)      0x0

Disassembly of section section .rodata (size: 4)

<_RamSize>:
.label2      0x000102f8: 00 00 01 00: 

Disassembly of section section .cp.const4 (size: 20)

<thisChanendZero>:
<.CPM0>:
.label0      0x000102fc: 02 00 02 00: 

<nextChanendZero>:
<.CPM1>:
             0x00010300: 02 00 03 00: 

<.CPM2>:
             0x00010304: 2d 7f 95 4c: 

<.CPM3>:
             0x00010308: 2d f4 51 58: 

<.CPM4>:
             0x0001030c: ff ff ff 7f: 

Disassembly of section section .dp.data (size: 20)

<_dp>:
<_NullPtr>:
.label1      0x00010310: 00 00 00 00: 

<dtor_list_ptr>:
             0x00010314: 10 03 01 00: 

<dtors_size>:
             0x00010318: 00 00 00 00: 

<ctor_list_ptr>:
             0x0001031c: 10 03 01 00: 

<ctors_size>:
             0x00010320: 00 00 00 00: 

Disassembly of section section .eh_frame (size: 4)

<__EH_FRAME_BEGIN__>:
<__EH_FRAME_END__>:
.label21     0x00010324: 00 00 00 00: 

Disassembly of section section .netinfo (size: 56)

             0x00000000: 5c a1 ab 1e: 
<main.parinfo.debugstring0>:
             0x00000004: 23 20 32 38: 
             0x00000008: 20 22 73 65: 
             0x0000000c: 6c 65 63 74: 
             0x00000010: 2e 78 63 22: 
             0x00000014: 00 23 20 32: 
             0x00000018: 36 20 22 73: 
             0x0000001c: 65 6c 65 63: 
             0x00000020: 74 2e 78 63: 
             0x00000024: 22 00 00 00: 
             0x00000028: 00 00 00 00: 
             0x0000002c: 00 00 00 00: 
             0x00000030: 00 00 00 00: 
             0x00000034: 00 00 00 00: 

Disassembly of section section .xtaendpointtable (size: 60)

             0x00000000: 3c 00 00 00: 
             0x00000004: 00 00 00 00: 
             0x00000008: 2f 55 73 65: 
             0x0000000c: 72 73 2f 76: 
             0x00000010: 6c 69 6f 6e: 
             0x00000014: 2f 44 6f 63: 
             0x00000018: 75 6d 65 6e: 
             0x0000001c: 74 73 2f 6d: 
             0x00000020: 61 73 74 65: 
             0x00000024: 72 73 2f 70: 
             0x00000028: 72 6f 67 72: 
             0x0000002c: 61 6d 73 5f: 
             0x00000030: 6f 66 5f 69: 
             0x00000034: 6e 74 65 72: 
             0x00000038: 65 73 74 00: 

Disassembly of section section .xtalabeltable (size: 142)

             0x00000000: 3c 00 00 00: 
             0x00000004: 00 00 00 00: 
             0x00000008: 2f 55 73 65: 
             0x0000000c: 72 73 2f 76: 
             0x00000010: 6c 69 6f 6e: 
             0x00000014: 2f 44 6f 63: 
             0x00000018: 75 6d 65 6e: 
             0x0000001c: 74 73 2f 6d: 
             0x00000020: 61 73 74 65: 
             0x00000024: 72 73 2f 70: 
             0x00000028: 72 6f 67 72: 
             0x0000002c: 61 6d 73 5f: 
             0x00000030: 6f 66 5f 69: 
             0x00000034: 6e 74 65 72: 
             0x00000038: 65 73 74 00: 
             0x0000003c: 52 00 00 00: 
             0x00000040: 00 00 00 00: 
             0x00000044: 2f 55 73 65: 
             0x00000048: 72 73 2f 76: 
             0x0000004c: 6c 69 6f 6e: 
             0x00000050: 2f 44 6f 63: 
             0x00000054: 75 6d 65 6e: 
             0x00000058: 74 73 2f 6d: 
             0x0000005c: 61 73 74 65: 
             0x00000060: 72 73 2f 70: 
             0x00000064: 72 6f 67 72: 
             0x00000068: 61 6d 73 5f: 
             0x0000006c: 6f 66 5f 69: 
             0x00000070: 6e 74 65 72: 
             0x00000074: 65 73 74 00: 
             0x00000078: 73 65 6c 65: 
             0x0000007c: 63 74 2e 78: 
             0x00000080: 63 00 1c 00: 
             0x00000084: 00 00 1c 00: 
             0x00000088: 00 00 ac 00: 
             0x0000008c: 01 00 00 00: 

Disassembly of section section .xtasystem (size: 46)

             0x00000000: 2e 00 00 00: 
             0x00000004: 00 00 00 00: 
             0x00000008: 64 69 72 00: 
             0x0000000c: 66 63 6c 6f: 
             0x00000010: 73 65 00 63: 
             0x00000014: 72 74 31 2e: 
             0x00000018: 73 00 00 00: 
             0x0000001c: 00 00 65 78: 
             0x00000020: 69 74 00 63: 
             0x00000024: 72 74 31 2e: 
             0x00000028: 73 00 00 00: 
             0x0000002c: 00 00 00 00: 

Disassembly of section section .xtathreadstart (size: 8)

             0x00000000: 00 00 01 00: 
             0x00000004: 84 00 01 00: 

Disassembly of section section .xtathreadstop (size: 16)

             0x00000000: 88 00 01 00: 
             0x00000004: 5e 01 01 00: 
             0x00000008: 80 01 01 00: 
             0x0000000c: 5c 02 01 00: 

Disassembly of section section .xmosnote (size: 20)

             0x00000000: 04 00 00 00: 
             0x00000004: 03 00 00 00: 
             0x00000008: 02 00 00 00: 
             0x0000000c: 58 4d 4f 53: 
             0x00000010: 58 53 31 00: 

Disassembly of section section .xmosnote (size: 20)

             0x00000000: 04 00 00 00: 
             0x00000004: 04 00 00 00: 
             0x00000008: 03 00 00 00: 
             0x0000000c: 58 4d 4f 53: 
             0x00000010: 52 45 56 42: 

Disassembly of section section .xmosnote (size: 36)

             0x00000000: 04 00 00 00: 
             0x00000004: 14 00 00 00: 
             0x00000008: 01 00 00 00: 
             0x0000000c: 58 4d 4f 53: 
             0x00000010: 31 31 2e 32: 
             0x00000014: 2e 32 20 28: 
             0x00000018: 62 75 69 6c: 
             0x0000001c: 64 20 31 39: 
             0x00000020: 38 31 29 00: 

Disassembly of section section .expr (size: 3260)

             0x00000000: 41 00 00 00: 
             0x00000004: 0c 00 00 00: 
             0x00000008: 11 00 00 00: 
             0x0000000c: 00 00 00 00: 
             0x00000010: 00 00 00 00: 
             0x00000014: 01 07 00 00: 
             0x00000018: 0e 00 00 00: 
             0x0000001c: 0d 00 00 00: 
             0x00000020: 00 00 00 00: 
             0x00000024: 00 00 00 00: 
             0x00000028: 01 03 00 00: 
             0x0000002c: 0f 00 00 00: 
             0x00000030: 12 00 00 00: 
             0x00000034: 00 00 00 00: 
             0x00000038: 00 00 00 00: 
             0x0000003c: 01 03 00 00: 
             0x00000040: 0f 00 00 00: 
             0x00000044: 13 00 00 00: 
             0x00000048: 00 00 00 00: 
             0x0000004c: 00 00 00 00: 
             0x00000050: 01 03 00 00: 
             0x00000054: 0f 00 00 00: 
             0x00000058: 14 00 00 00: 
             0x0000005c: 00 00 00 00: 
             0x00000060: 00 00 00 00: 
             0x00000064: 01 03 00 00: 
             0x00000068: 0f 00 00 00: 
             0x0000006c: 15 00 00 00: 
             0x00000070: 00 00 00 00: 
             0x00000074: 00 00 00 00: 
             0x00000078: 01 03 00 00: 
             0x0000007c: 0f 00 00 00: 
             0x00000080: 16 00 00 00: 
             0x00000084: 00 00 00 00: 
             0x00000088: 00 00 00 00: 
             0x0000008c: 01 03 00 00: 
             0x00000090: 0f 00 00 00: 
             0x00000094: 17 00 00 00: 
             0x00000098: 00 00 00 00: 
             0x0000009c: 00 00 00 00: 
             0x000000a0: 01 03 00 00: 
             0x000000a4: 0f 00 00 00: 
             0x000000a8: 18 00 00 00: 
             0x000000ac: 00 00 00 00: 
             0x000000b0: 00 00 00 00: 
             0x000000b4: 01 03 00 00: 
             0x000000b8: 0f 00 00 00: 
             0x000000bc: 19 00 00 00: 
             0x000000c0: 00 00 00 00: 
             0x000000c4: 00 00 00 00: 
             0x000000c8: 41 04 00 00: 
             0x000000cc: 0f 00 00 00: 
             0x000000d0: 1a 00 00 00: 
             0x000000d4: 00 00 00 00: 
             0x000000d8: 00 00 00 00: 
             0x000000dc: c1 04 00 00: 
             0x000000e0: 0f 00 00 00: 
             0x000000e4: 1b 00 00 00: 
             0x000000e8: 00 00 00 00: 
             0x000000ec: 00 00 00 00: 
             0x000000f0: 01 05 00 00: 
             0x000000f4: 0f 00 00 00: 
             0x000000f8: 1c 00 00 00: 
             0x000000fc: 00 00 00 00: 
             0x00000100: 00 00 00 00: 
             0x00000104: 41 05 00 00: 
             0x00000108: 0f 00 00 00: 
             0x0000010c: 1d 00 00 00: 
             0x00000110: 00 00 00 00: 
             0x00000114: 00 00 00 00: 
             0x00000118: 42 09 00 00: 
             0x0000011c: 0f 00 00 00: 
             0x00000120: 33 11 00 00: 
             0x00000124: 00 00 00 00: 
             0x00000128: 00 00 00 00: 
             0x0000012c: 42 09 00 00: 
             0x00000130: 0f 00 00 00: 
             0x00000134: 33 11 00 00: 
             0x00000138: 00 00 00 00: 
             0x0000013c: 00 00 00 00: 
             0x00000140: 41 04 00 00: 
             0x00000144: 12 00 00 00: 
             0x00000148: 1e 00 00 00: 
             0x0000014c: 00 00 00 00: 
             0x00000150: 00 00 00 00: 
             0x00000154: c1 04 00 00: 
             0x00000158: 12 00 00 00: 
             0x0000015c: 25 00 00 00: 
             0x00000160: 00 00 00 00: 
             0x00000164: 00 00 00 00: 
             0x00000168: 01 05 00 00: 
             0x0000016c: 12 00 00 00: 
             0x00000170: 2d 00 00 00: 
             0x00000174: 00 00 00 00: 
             0x00000178: 00 00 00 00: 
             0x0000017c: 41 05 00 00: 
             0x00000180: 12 00 00 00: 
             0x00000184: 35 00 00 00: 
             0x00000188: 00 00 00 00: 
             0x0000018c: 00 00 00 00: 
             0x00000190: 41 04 00 00: 
             0x00000194: 13 00 00 00: 
             0x00000198: 1f 00 00 00: 
             0x0000019c: 00 00 00 00: 
             0x000001a0: 00 00 00 00: 
             0x000001a4: c1 04 00 00: 
             0x000001a8: 13 00 00 00: 
             0x000001ac: 26 00 00 00: 
             0x000001b0: 00 00 00 00: 
             0x000001b4: 00 00 00 00: 
             0x000001b8: 01 05 00 00: 
             0x000001bc: 13 00 00 00: 
             0x000001c0: 2e 00 00 00: 
             0x000001c4: 00 00 00 00: 
             0x000001c8: 00 00 00 00: 
             0x000001cc: 41 05 00 00: 
             0x000001d0: 13 00 00 00: 
             0x000001d4: 36 00 00 00: 
             0x000001d8: 00 00 00 00: 
             0x000001dc: 00 00 00 00: 
             0x000001e0: 41 04 00 00: 
             0x000001e4: 14 00 00 00: 
             0x000001e8: 20 00 00 00: 
             0x000001ec: 00 00 00 00: 
             0x000001f0: 00 00 00 00: 
             0x000001f4: c1 04 00 00: 
             0x000001f8: 14 00 00 00: 
             0x000001fc: 27 00 00 00: 
             0x00000200: 00 00 00 00: 
             0x00000204: 00 00 00 00: 
             0x00000208: 01 05 00 00: 
             0x0000020c: 14 00 00 00: 
             0x00000210: 2f 00 00 00: 
             0x00000214: 00 00 00 00: 
             0x00000218: 00 00 00 00: 
             0x0000021c: 41 05 00 00: 
             0x00000220: 14 00 00 00: 
             0x00000224: 37 00 00 00: 
             0x00000228: 00 00 00 00: 
             0x0000022c: 00 00 00 00: 
             0x00000230: 41 04 00 00: 
             0x00000234: 15 00 00 00: 
             0x00000238: 21 00 00 00: 
             0x0000023c: 00 00 00 00: 
             0x00000240: 00 00 00 00: 
             0x00000244: c1 04 00 00: 
             0x00000248: 15 00 00 00: 
             0x0000024c: 28 00 00 00: 
             0x00000250: 00 00 00 00: 
             0x00000254: 00 00 00 00: 
             0x00000258: 01 05 00 00: 
             0x0000025c: 15 00 00 00: 
             0x00000260: 30 00 00 00: 
             0x00000264: 00 00 00 00: 
             0x00000268: 00 00 00 00: 
             0x0000026c: 41 05 00 00: 
             0x00000270: 15 00 00 00: 
             0x00000274: 38 00 00 00: 
             0x00000278: 00 00 00 00: 
             0x0000027c: 00 00 00 00: 
             0x00000280: 41 04 00 00: 
             0x00000284: 16 00 00 00: 
             0x00000288: 22 00 00 00: 
             0x0000028c: 00 00 00 00: 
             0x00000290: 00 00 00 00: 
             0x00000294: c1 04 00 00: 
             0x00000298: 16 00 00 00: 
             0x0000029c: 29 00 00 00: 
             0x000002a0: 00 00 00 00: 
             0x000002a4: 00 00 00 00: 
             0x000002a8: 01 05 00 00: 
             0x000002ac: 16 00 00 00: 
             0x000002b0: 31 00 00 00: 
             0x000002b4: 00 00 00 00: 
             0x000002b8: 00 00 00 00: 
             0x000002bc: 41 05 00 00: 
             0x000002c0: 16 00 00 00: 
             0x000002c4: 39 00 00 00: 
             0x000002c8: 00 00 00 00: 
             0x000002cc: 00 00 00 00: 
             0x000002d0: 01 03 00 00: 
             0x000002d4: 17 00 00 00: 
             0x000002d8: 66 00 00 00: 
             0x000002dc: 00 00 00 00: 
             0x000002e0: 00 00 00 00: 
             0x000002e4: 41 04 00 00: 
             0x000002e8: 17 00 00 00: 
             0x000002ec: 0d 00 00 00: 
             0x000002f0: 00 00 00 00: 
             0x000002f4: 00 00 00 00: 
             0x000002f8: c1 04 00 00: 
             0x000002fc: 17 00 00 00: 
             0x00000300: 2a 00 00 00: 
             0x00000304: 00 00 00 00: 
             0x00000308: 00 00 00 00: 
             0x0000030c: 01 05 00 00: 
             0x00000310: 17 00 00 00: 
             0x00000314: 32 00 00 00: 
             0x00000318: 00 00 00 00: 
             0x0000031c: 00 00 00 00: 
             0x00000320: 41 05 00 00: 
             0x00000324: 17 00 00 00: 
             0x00000328: 3a 00 00 00: 
             0x0000032c: 00 00 00 00: 
             0x00000330: 00 00 00 00: 
             0x00000334: 42 09 00 00: 
             0x00000338: 17 00 00 00: 
             0x0000033c: 3b 11 00 00: 
             0x00000340: 00 00 00 00: 
             0x00000344: 00 00 00 00: 
             0x00000348: 42 09 00 00: 
             0x0000034c: 17 00 00 00: 
             0x00000350: 3b 11 00 00: 
             0x00000354: 00 00 00 00: 
             0x00000358: 00 00 00 00: 
             0x0000035c: 41 04 00 00: 
             0x00000360: 18 00 00 00: 
             0x00000364: 23 00 00 00: 
             0x00000368: 00 00 00 00: 
             0x0000036c: 00 00 00 00: 
             0x00000370: c1 04 00 00: 
             0x00000374: 18 00 00 00: 
             0x00000378: 2b 00 00 00: 
             0x0000037c: 00 00 00 00: 
             0x00000380: 00 00 00 00: 
             0x00000384: 01 05 00 00: 
             0x00000388: 18 00 00 00: 
             0x0000038c: 33 00 00 00: 
             0x00000390: 00 00 00 00: 
             0x00000394: 00 00 00 00: 
             0x00000398: 41 05 00 00: 
             0x0000039c: 18 00 00 00: 
             0x000003a0: 3b 00 00 00: 
             0x000003a4: 00 00 00 00: 
             0x000003a8: 00 00 00 00: 
             0x000003ac: c1 07 00 00: 
             0x000003b0: 18 00 00 00: 
             0x000003b4: 94 00 00 00: 
             0x000003b8: 00 00 00 00: 
             0x000003bc: 00 00 00 00: 
             0x000003c0: 01 06 00 00: 
             0x000003c4: 18 00 00 00: 
             0x000003c8: 95 00 00 00: 
             0x000003cc: 00 00 00 00: 
             0x000003d0: 00 00 00 00: 
             0x000003d4: 42 09 00 00: 
             0x000003d8: 18 00 00 00: 
             0x000003dc: 33 11 00 00: 
             0x000003e0: 00 00 00 00: 
             0x000003e4: 00 00 00 00: 
             0x000003e8: 42 09 00 00: 
             0x000003ec: 18 00 00 00: 
             0x000003f0: 33 11 00 00: 
             0x000003f4: 00 00 00 00: 
             0x000003f8: 00 00 00 00: 
             0x000003fc: 41 04 00 00: 
             0x00000400: 19 00 00 00: 
             0x00000404: 24 00 00 00: 
             0x00000408: 00 00 00 00: 
             0x0000040c: 00 00 00 00: 
             0x00000410: c1 04 00 00: 
             0x00000414: 19 00 00 00: 
             0x00000418: 2c 00 00 00: 
             0x0000041c: 00 00 00 00: 
             0x00000420: 00 00 00 00: 
             0x00000424: 01 05 00 00: 
             0x00000428: 19 00 00 00: 
             0x0000042c: 34 00 00 00: 
             0x00000430: 00 00 00 00: 
             0x00000434: 00 00 00 00: 
             0x00000438: 41 05 00 00: 
             0x0000043c: 19 00 00 00: 
             0x00000440: 3c 00 00 00: 
             0x00000444: 00 00 00 00: 
             0x00000448: 00 00 00 00: 
             0x0000044c: c1 07 00 00: 
             0x00000450: 19 00 00 00: 
             0x00000454: a2 00 00 00: 
             0x00000458: 00 00 00 00: 
             0x0000045c: 00 00 00 00: 
             0x00000460: 01 06 00 00: 
             0x00000464: 19 00 00 00: 
             0x00000468: a3 00 00 00: 
             0x0000046c: 00 00 00 00: 
             0x00000470: 00 00 00 00: 
             0x00000474: 42 09 00 00: 
             0x00000478: 19 00 00 00: 
             0x0000047c: 44 11 00 00: 
             0x00000480: 00 00 00 00: 
             0x00000484: 00 00 00 00: 
             0x00000488: 42 09 00 00: 
             0x0000048c: 19 00 00 00: 
             0x00000490: 44 11 00 00: 
             0x00000494: 00 00 00 00: 
             0x00000498: 00 00 00 00: 
             0x0000049c: 41 00 00 00: 
             0x000004a0: 2a 00 00 00: 
             0x000004a4: 68 00 00 00: 
             0x000004a8: 00 00 00 00: 
             0x000004ac: 00 00 00 00: 
             0x000004b0: 41 00 00 00: 
             0x000004b4: 32 00 00 00: 
             0x000004b8: 69 00 00 00: 
             0x000004bc: 00 00 00 00: 
             0x000004c0: 00 00 00 00: 
             0x000004c4: 41 04 00 00: 
             0x000004c8: 43 00 00 00: 
             0x000004cc: b8 00 00 00: 
             0x000004d0: 00 00 00 00: 
             0x000004d4: 00 00 00 00: 
             0x000004d8: c1 04 00 00: 
             0x000004dc: 43 00 00 00: 
             0x000004e0: b9 00 00 00: 
             0x000004e4: 00 00 00 00: 
             0x000004e8: 00 00 00 00: 
             0x000004ec: 01 05 00 00: 
             0x000004f0: 43 00 00 00: 
             0x000004f4: ba 00 00 00: 
             0x000004f8: 00 00 00 00: 
             0x000004fc: 00 00 00 00: 
             0x00000500: 41 05 00 00: 
             0x00000504: 43 00 00 00: 
             0x00000508: bb 00 00 00: 
             0x0000050c: 00 00 00 00: 
             0x00000510: 00 00 00 00: 
             0x00000514: c1 07 00 00: 
             0x00000518: 43 00 00 00: 
             0x0000051c: bc 00 00 00: 
             0x00000520: 00 00 00 00: 
             0x00000524: 00 00 00 00: 
             0x00000528: 01 06 00 00: 
             0x0000052c: 43 00 00 00: 
             0x00000530: bd 00 00 00: 
             0x00000534: 00 00 00 00: 
             0x00000538: 00 00 00 00: 
             0x0000053c: 42 09 00 00: 
             0x00000540: 43 00 00 00: 
             0x00000544: 33 11 00 00: 
             0x00000548: 00 00 00 00: 
             0x0000054c: 00 00 00 00: 
             0x00000550: 42 09 00 00: 
             0x00000554: 43 00 00 00: 
             0x00000558: 33 11 00 00: 
             0x0000055c: 00 00 00 00: 
             0x00000560: 00 00 00 00: 
             0x00000564: 41 04 00 00: 
             0x00000568: 46 00 00 00: 
             0x0000056c: 47 00 00 00: 
             0x00000570: 00 00 00 00: 
             0x00000574: 00 00 00 00: 
             0x00000578: 41 05 00 00: 
             0x0000057c: 46 00 00 00: 
             0x00000580: 48 00 00 00: 
             0x00000584: 00 00 00 00: 
             0x00000588: 00 00 00 00: 
             0x0000058c: 01 05 00 00: 
             0x00000590: 46 00 00 00: 
             0x00000594: 49 00 00 00: 
             0x00000598: 00 00 00 00: 
             0x0000059c: 00 00 00 00: 
             0x000005a0: c1 04 00 00: 
             0x000005a4: 46 00 00 00: 
             0x000005a8: 4a 00 00 00: 
             0x000005ac: 00 00 00 00: 
             0x000005b0: 00 00 00 00: 
             0x000005b4: 42 09 00 00: 
             0x000005b8: 46 00 00 00: 
             0x000005bc: 33 11 00 00: 
             0x000005c0: 00 00 00 00: 
             0x000005c4: 00 00 00 00: 
             0x000005c8: 42 09 00 00: 
             0x000005cc: 46 00 00 00: 
             0x000005d0: 33 11 00 00: 
             0x000005d4: 00 00 00 00: 
             0x000005d8: 00 00 00 00: 
             0x000005dc: c1 07 00 00: 
             0x000005e0: 4d 00 00 00: 
             0x000005e4: 97 00 00 00: 
             0x000005e8: 00 00 00 00: 
             0x000005ec: 00 00 00 00: 
             0x000005f0: 41 04 00 00: 
             0x000005f4: 4d 00 00 00: 
             0x000005f8: 98 00 00 00: 
             0x000005fc: 00 00 00 00: 
             0x00000600: 00 00 00 00: 
             0x00000604: 41 05 00 00: 
             0x00000608: 4d 00 00 00: 
             0x0000060c: 99 00 00 00: 
             0x00000610: 00 00 00 00: 
             0x00000614: 00 00 00 00: 
             0x00000618: 01 05 00 00: 
             0x0000061c: 4d 00 00 00: 
             0x00000620: 9a 00 00 00: 
             0x00000624: 00 00 00 00: 
             0x00000628: 00 00 00 00: 
             0x0000062c: c1 04 00 00: 
             0x00000630: 4d 00 00 00: 
             0x00000634: 9b 00 00 00: 
             0x00000638: 00 00 00 00: 
             0x0000063c: 00 00 00 00: 
             0x00000640: 42 09 00 00: 
             0x00000644: 4d 00 00 00: 
             0x00000648: 44 11 00 00: 
             0x0000064c: 00 00 00 00: 
             0x00000650: 00 00 00 00: 
             0x00000654: 42 09 00 00: 
             0x00000658: 4d 00 00 00: 
             0x0000065c: 44 11 00 00: 
             0x00000660: 00 00 00 00: 
             0x00000664: 00 00 00 00: 
             0x00000668: 42 09 00 00: 
             0x0000066c: 4d 00 00 00: 
             0x00000670: 44 11 00 00: 
             0x00000674: 00 00 00 00: 
             0x00000678: 00 00 00 00: 
             0x0000067c: c1 07 00 00: 
             0x00000680: 4e 00 00 00: 
             0x00000684: 7f 00 00 00: 
             0x00000688: 00 00 00 00: 
             0x0000068c: 00 00 00 00: 
             0x00000690: 41 04 00 00: 
             0x00000694: 4e 00 00 00: 
             0x00000698: 80 00 00 00: 
             0x0000069c: 00 00 00 00: 
             0x000006a0: 00 00 00 00: 
             0x000006a4: 41 05 00 00: 
             0x000006a8: 4e 00 00 00: 
             0x000006ac: 81 00 00 00: 
             0x000006b0: 00 00 00 00: 
             0x000006b4: 00 00 00 00: 
             0x000006b8: 01 05 00 00: 
             0x000006bc: 4e 00 00 00: 
             0x000006c0: 82 00 00 00: 
             0x000006c4: 00 00 00 00: 
             0x000006c8: 00 00 00 00: 
             0x000006cc: c1 04 00 00: 
             0x000006d0: 4e 00 00 00: 
             0x000006d4: 83 00 00 00: 
             0x000006d8: 00 00 00 00: 
             0x000006dc: 00 00 00 00: 
             0x000006e0: 41 04 00 00: 
             0x000006e4: 50 00 00 00: 
             0x000006e8: a5 00 00 00: 
             0x000006ec: 00 00 00 00: 
             0x000006f0: 00 00 00 00: 
             0x000006f4: c1 04 00 00: 
             0x000006f8: 50 00 00 00: 
             0x000006fc: a6 00 00 00: 
             0x00000700: 00 00 00 00: 
             0x00000704: 00 00 00 00: 
             0x00000708: 01 05 00 00: 
             0x0000070c: 50 00 00 00: 
             0x00000710: a7 00 00 00: 
             0x00000714: 00 00 00 00: 
             0x00000718: 00 00 00 00: 
             0x0000071c: 41 05 00 00: 
             0x00000720: 50 00 00 00: 
             0x00000724: a8 00 00 00: 
             0x00000728: 00 00 00 00: 
             0x0000072c: 00 00 00 00: 
             0x00000730: c1 07 00 00: 
             0x00000734: 50 00 00 00: 
             0x00000738: a9 00 00 00: 
             0x0000073c: 00 00 00 00: 
             0x00000740: 00 00 00 00: 
             0x00000744: 01 06 00 00: 
             0x00000748: 50 00 00 00: 
             0x0000074c: aa 00 00 00: 
             0x00000750: 00 00 00 00: 
             0x00000754: 00 00 00 00: 
             0x00000758: 42 09 00 00: 
             0x0000075c: 50 00 00 00: 
             0x00000760: 4d 11 00 00: 
             0x00000764: 00 00 00 00: 
             0x00000768: 00 00 00 00: 
             0x0000076c: 42 09 00 00: 
             0x00000770: 50 00 00 00: 
             0x00000774: 4d 11 00 00: 
             0x00000778: 00 00 00 00: 
             0x0000077c: 00 00 00 00: 
             0x00000780: 01 06 00 00: 
             0x00000784: 59 00 00 00: 
             0x00000788: 5a 00 00 00: 
             0x0000078c: 00 00 00 00: 
             0x00000790: 00 00 00 00: 
             0x00000794: c1 07 00 00: 
             0x00000798: 59 00 00 00: 
             0x0000079c: 5b 00 00 00: 
             0x000007a0: 00 00 00 00: 
             0x000007a4: 00 00 00 00: 
             0x000007a8: 42 09 00 00: 
             0x000007ac: 5f 00 00 00: 
             0x000007b0: 61 11 00 00: 
             0x000007b4: 00 00 00 00: 
             0x000007b8: 00 00 00 00: 
             0x000007bc: 42 09 00 00: 
             0x000007c0: 5f 00 00 00: 
             0x000007c4: 61 11 00 00: 
             0x000007c8: 00 00 00 00: 
             0x000007cc: 00 00 00 00: 
             0x000007d0: 42 09 00 00: 
             0x000007d4: 5f 00 00 00: 
             0x000007d8: 61 11 00 00: 
             0x000007dc: 00 00 00 00: 
             0x000007e0: 00 00 00 00: 
             0x000007e4: 01 06 00 00: 
             0x000007e8: 66 00 00 00: 
             0x000007ec: 6b 00 00 00: 
             0x000007f0: 00 00 00 00: 
             0x000007f4: 00 00 00 00: 
             0x000007f8: c1 07 00 00: 
             0x000007fc: 66 00 00 00: 
             0x00000800: 6c 00 00 00: 
             0x00000804: 00 00 00 00: 
             0x00000808: 00 00 00 00: 
             0x0000080c: 41 04 00 00: 
             0x00000810: 66 00 00 00: 
             0x00000814: 67 00 00 00: 
             0x00000818: 00 00 00 00: 
             0x0000081c: 00 00 00 00: 
             0x00000820: 41 05 00 00: 
             0x00000824: 66 00 00 00: 
             0x00000828: 6a 00 00 00: 
             0x0000082c: 00 00 00 00: 
             0x00000830: 00 00 00 00: 
             0x00000834: 01 05 00 00: 
             0x00000838: 66 00 00 00: 
             0x0000083c: 69 00 00 00: 
             0x00000840: 00 00 00 00: 
             0x00000844: 00 00 00 00: 
             0x00000848: c1 04 00 00: 
             0x0000084c: 66 00 00 00: 
             0x00000850: 68 00 00 00: 
             0x00000854: 00 00 00 00: 
             0x00000858: 00 00 00 00: 
             0x0000085c: 42 09 00 00: 
             0x00000860: 66 00 00 00: 
             0x00000864: 3b 11 00 00: 
             0x00000868: 00 00 00 00: 
             0x0000086c: 00 00 00 00: 
             0x00000870: 42 09 00 00: 
             0x00000874: 66 00 00 00: 
             0x00000878: 3b 11 00 00: 
             0x0000087c: 00 00 00 00: 
             0x00000880: 00 00 00 00: 
             0x00000884: 41 04 00 00: 
             0x00000888: 85 00 00 00: 
             0x0000088c: 88 00 00 00: 
             0x00000890: 00 00 00 00: 
             0x00000894: 00 00 00 00: 
             0x00000898: c1 04 00 00: 
             0x0000089c: 85 00 00 00: 
             0x000008a0: 8b 00 00 00: 
             0x000008a4: 00 00 00 00: 
             0x000008a8: 00 00 00 00: 
             0x000008ac: 01 05 00 00: 
             0x000008b0: 85 00 00 00: 
             0x000008b4: 8e 00 00 00: 
             0x000008b8: 00 00 00 00: 
             0x000008bc: 00 00 00 00: 
             0x000008c0: 41 05 00 00: 
             0x000008c4: 85 00 00 00: 
             0x000008c8: 91 00 00 00: 
             0x000008cc: 00 00 00 00: 
             0x000008d0: 00 00 00 00: 
             0x000008d4: c1 07 00 00: 
             0x000008d8: 85 00 00 00: 
             0x000008dc: b5 00 00 00: 
             0x000008e0: 00 00 00 00: 
             0x000008e4: 00 00 00 00: 
             0x000008e8: 01 06 00 00: 
             0x000008ec: 85 00 00 00: 
             0x000008f0: b6 00 00 00: 
             0x000008f4: 00 00 00 00: 
             0x000008f8: 00 00 00 00: 
             0x000008fc: 42 09 00 00: 
             0x00000900: 85 00 00 00: 
             0x00000904: 69 11 00 00: 
             0x00000908: 00 00 00 00: 
             0x0000090c: 00 00 00 00: 
             0x00000910: 42 09 00 00: 
             0x00000914: 85 00 00 00: 
             0x00000918: 69 11 00 00: 
             0x0000091c: 00 00 00 00: 
             0x00000920: 00 00 00 00: 
             0x00000924: 42 09 00 00: 
             0x00000928: 85 00 00 00: 
             0x0000092c: 69 11 00 00: 
             0x00000930: 00 00 00 00: 
             0x00000934: 00 00 00 00: 
             0x00000938: 42 09 00 00: 
             0x0000093c: 85 00 00 00: 
             0x00000940: 69 11 00 00: 
             0x00000944: 00 00 00 00: 
             0x00000948: 00 00 00 00: 
             0x0000094c: 41 04 00 00: 
             0x00000950: 86 00 00 00: 
             0x00000954: 89 00 00 00: 
             0x00000958: 00 00 00 00: 
             0x0000095c: 00 00 00 00: 
             0x00000960: c1 04 00 00: 
             0x00000964: 86 00 00 00: 
             0x00000968: 8c 00 00 00: 
             0x0000096c: 00 00 00 00: 
             0x00000970: 00 00 00 00: 
             0x00000974: 01 05 00 00: 
             0x00000978: 86 00 00 00: 
             0x0000097c: 8f 00 00 00: 
             0x00000980: 00 00 00 00: 
             0x00000984: 00 00 00 00: 
             0x00000988: 41 05 00 00: 
             0x0000098c: 86 00 00 00: 
             0x00000990: 92 00 00 00: 
             0x00000994: 00 00 00 00: 
             0x00000998: 00 00 00 00: 
             0x0000099c: c1 07 00 00: 
             0x000009a0: 86 00 00 00: 
             0x000009a4: c7 00 00 00: 
             0x000009a8: 00 00 00 00: 
             0x000009ac: 00 00 00 00: 
             0x000009b0: 01 06 00 00: 
             0x000009b4: 86 00 00 00: 
             0x000009b8: c8 00 00 00: 
             0x000009bc: 00 00 00 00: 
             0x000009c0: 00 00 00 00: 
             0x000009c4: 42 09 00 00: 
             0x000009c8: 86 00 00 00: 
             0x000009cc: 33 11 00 00: 
             0x000009d0: 00 00 00 00: 
             0x000009d4: 00 00 00 00: 
             0x000009d8: 42 09 00 00: 
             0x000009dc: 86 00 00 00: 
             0x000009e0: 33 11 00 00: 
             0x000009e4: 00 00 00 00: 
             0x000009e8: 00 00 00 00: 
             0x000009ec: 42 09 00 00: 
             0x000009f0: 86 00 00 00: 
             0x000009f4: 33 11 00 00: 
             0x000009f8: 00 00 00 00: 
             0x000009fc: 00 00 00 00: 
             0x00000a00: 42 09 00 00: 
             0x00000a04: 86 00 00 00: 
             0x00000a08: 33 11 00 00: 
             0x00000a0c: 00 00 00 00: 
             0x00000a10: 00 00 00 00: 
             0x00000a14: c1 07 00 00: 
             0x00000a18: 87 00 00 00: 
             0x00000a1c: ca 00 00 00: 
             0x00000a20: 00 00 00 00: 
             0x00000a24: 00 00 00 00: 
             0x00000a28: 41 04 00 00: 
             0x00000a2c: 87 00 00 00: 
             0x00000a30: 8a 00 00 00: 
             0x00000a34: 00 00 00 00: 
             0x00000a38: 00 00 00 00: 
             0x00000a3c: 41 05 00 00: 
             0x00000a40: 87 00 00 00: 
             0x00000a44: 93 00 00 00: 
             0x00000a48: 00 00 00 00: 
             0x00000a4c: 00 00 00 00: 
             0x00000a50: 01 05 00 00: 
             0x00000a54: 87 00 00 00: 
             0x00000a58: 90 00 00 00: 
             0x00000a5c: 00 00 00 00: 
             0x00000a60: 00 00 00 00: 
             0x00000a64: c1 04 00 00: 
             0x00000a68: 87 00 00 00: 
             0x00000a6c: 8d 00 00 00: 
             0x00000a70: 00 00 00 00: 
             0x00000a74: 00 00 00 00: 
             0x00000a78: 42 09 00 00: 
             0x00000a7c: 87 00 00 00: 
             0x00000a80: 33 11 00 00: 
             0x00000a84: 00 00 00 00: 
             0x00000a88: 00 00 00 00: 
             0x00000a8c: 42 09 00 00: 
             0x00000a90: 87 00 00 00: 
             0x00000a94: 33 11 00 00: 
             0x00000a98: 00 00 00 00: 
             0x00000a9c: 00 00 00 00: 
             0x00000aa0: 42 09 00 00: 
             0x00000aa4: 87 00 00 00: 
             0x00000aa8: 33 11 00 00: 
             0x00000aac: 00 00 00 00: 
             0x00000ab0: 00 00 00 00: 
             0x00000ab4: 41 00 00 00: 
             0x00000ab8: 8a 00 00 00: 
             0x00000abc: 9c 00 00 00: 
             0x00000ac0: 00 00 00 00: 
             0x00000ac4: 00 00 00 00: 
             0x00000ac8: 41 00 00 00: 
             0x00000acc: 8d 00 00 00: 
             0x00000ad0: 9f 00 00 00: 
             0x00000ad4: 00 00 00 00: 
             0x00000ad8: 00 00 00 00: 
             0x00000adc: 41 00 00 00: 
             0x00000ae0: 90 00 00 00: 
             0x00000ae4: 9e 00 00 00: 
             0x00000ae8: 00 00 00 00: 
             0x00000aec: 00 00 00 00: 
             0x00000af0: 41 00 00 00: 
             0x00000af4: 93 00 00 00: 
             0x00000af8: 9d 00 00 00: 
             0x00000afc: 00 00 00 00: 
             0x00000b00: 00 00 00 00: 
             0x00000b04: 41 00 00 00: 
             0x00000b08: 98 00 00 00: 
             0x00000b0c: 9c 00 00 00: 
             0x00000b10: 00 00 00 00: 
             0x00000b14: 00 00 00 00: 
             0x00000b18: 41 00 00 00: 
             0x00000b1c: 99 00 00 00: 
             0x00000b20: 9d 00 00 00: 
             0x00000b24: 00 00 00 00: 
             0x00000b28: 00 00 00 00: 
             0x00000b2c: 41 00 00 00: 
             0x00000b30: 9a 00 00 00: 
             0x00000b34: 9e 00 00 00: 
             0x00000b38: 00 00 00 00: 
             0x00000b3c: 00 00 00 00: 
             0x00000b40: 41 00 00 00: 
             0x00000b44: 9b 00 00 00: 
             0x00000b48: 9f 00 00 00: 
             0x00000b4c: 00 00 00 00: 
             0x00000b50: 00 00 00 00: 
             0x00000b54: 41 04 00 00: 
             0x00000b58: a0 00 00 00: 
             0x00000b5c: 9c 00 00 00: 
             0x00000b60: 00 00 00 00: 
             0x00000b64: 00 00 00 00: 
             0x00000b68: 41 05 00 00: 
             0x00000b6c: a0 00 00 00: 
             0x00000b70: 9d 00 00 00: 
             0x00000b74: 00 00 00 00: 
             0x00000b78: 00 00 00 00: 
             0x00000b7c: 01 05 00 00: 
             0x00000b80: a0 00 00 00: 
             0x00000b84: 9e 00 00 00: 
             0x00000b88: 00 00 00 00: 
             0x00000b8c: 00 00 00 00: 
             0x00000b90: c1 04 00 00: 
             0x00000b94: a0 00 00 00: 
             0x00000b98: 9f 00 00 00: 
             0x00000b9c: 00 00 00 00: 
             0x00000ba0: 00 00 00 00: 
             0x00000ba4: 41 04 00 00: 
             0x00000ba8: ae 00 00 00: 
             0x00000bac: af 00 00 00: 
             0x00000bb0: 00 00 00 00: 
             0x00000bb4: 00 00 00 00: 
             0x00000bb8: c1 04 00 00: 
             0x00000bbc: ae 00 00 00: 
             0x00000bc0: b0 00 00 00: 
             0x00000bc4: 00 00 00 00: 
             0x00000bc8: 00 00 00 00: 
             0x00000bcc: 01 05 00 00: 
             0x00000bd0: ae 00 00 00: 
             0x00000bd4: b1 00 00 00: 
             0x00000bd8: 00 00 00 00: 
             0x00000bdc: 00 00 00 00: 
             0x00000be0: 41 05 00 00: 
             0x00000be4: ae 00 00 00: 
             0x00000be8: b2 00 00 00: 
             0x00000bec: 00 00 00 00: 
             0x00000bf0: 00 00 00 00: 
             0x00000bf4: c1 07 00 00: 
             0x00000bf8: ae 00 00 00: 
             0x00000bfc: b3 00 00 00: 
             0x00000c00: 00 00 00 00: 
             0x00000c04: 00 00 00 00: 
             0x00000c08: 01 06 00 00: 
             0x00000c0c: ae 00 00 00: 
             0x00000c10: b4 00 00 00: 
             0x00000c14: 00 00 00 00: 
             0x00000c18: 00 00 00 00: 
             0x00000c1c: 42 09 00 00: 
             0x00000c20: be 00 00 00: 
             0x00000c24: 77 11 00 00: 
             0x00000c28: 00 00 00 00: 
             0x00000c2c: 00 00 00 00: 
             0x00000c30: 42 09 00 00: 
             0x00000c34: be 00 00 00: 
             0x00000c38: 77 11 00 00: 
             0x00000c3c: 00 00 00 00: 
             0x00000c40: 00 00 00 00: 
             0x00000c44: 41 04 00 00: 
             0x00000c48: c0 00 00 00: 
             0x00000c4c: c1 00 00 00: 
             0x00000c50: 00 00 00 00: 
             0x00000c54: 00 00 00 00: 
             0x00000c58: c1 04 00 00: 
             0x00000c5c: c0 00 00 00: 
             0x00000c60: c2 00 00 00: 
             0x00000c64: 00 00 00 00: 
             0x00000c68: 00 00 00 00: 
             0x00000c6c: 01 05 00 00: 
             0x00000c70: c0 00 00 00: 
             0x00000c74: c3 00 00 00: 
             0x00000c78: 00 00 00 00: 
             0x00000c7c: 00 00 00 00: 
             0x00000c80: 41 05 00 00: 
             0x00000c84: c0 00 00 00: 
             0x00000c88: c4 00 00 00: 
             0x00000c8c: 00 00 00 00: 
             0x00000c90: 00 00 00 00: 
             0x00000c94: c1 07 00 00: 
             0x00000c98: c0 00 00 00: 
             0x00000c9c: c5 00 00 00: 
             0x00000ca0: 00 00 00 00: 
             0x00000ca4: 00 00 00 00: 
             0x00000ca8: 01 06 00 00: 
             0x00000cac: c0 00 00 00: 
             0x00000cb0: c6 00 00 00: 
             0x00000cb4: 00 00 00 00: 
             0x00000cb8: 00 00 00 00: 

Disassembly of section section .symtab (size: 3488)

             0x00000000: 00 00 00 00: 
             0x00000004: 00 00 00 00: 
             0x00000008: 00 00 00 00: 
             0x0000000c: 00 00 00 00: 
             0x00000010: 00 00 00 00: 
             0x00000014: 00 00 00 00: 
             0x00000018: 00 00 00 00: 
             0x0000001c: 04 00 f1 ff: 
             0x00000020: 02 01 00 00: 
             0x00000024: fc 02 01 00: 
             0x00000028: 00 00 00 00: 
             0x0000002c: 10 00 03 00: 
             0x00000030: 06 01 00 00: 
             0x00000034: 10 03 01 00: 
             0x00000038: 00 00 00 00: 
             0x0000003c: 10 00 06 00: 
             0x00000040: 0a 01 00 00: 
             0x00000044: 10 03 01 00: 
             0x00000048: 00 00 00 00: 
             0x0000004c: 10 00 01 00: 
             0x00000050: 10 01 00 00: 
             0x00000054: 28 03 01 00: 
             0x00000058: 00 00 00 00: 
             0x0000005c: 10 00 05 00: 
             0x00000060: 19 01 00 00: 
             0x00000064: 10 03 01 00: 
             0x00000068: 00 00 00 00: 
             0x0000006c: 10 00 04 00: 
             0x00000070: 25 01 00 00: 
             0x00000074: 10 03 01 00: 
             0x00000078: 00 00 00 00: 
             0x0000007c: 10 00 07 00: 
             0x00000080: 31 01 00 00: 
             0x00000084: 00 e1 f5 05: 
             0x00000088: 00 00 00 00: 
             0x0000008c: 10 00 f1 ff: 
             0x00000090: 3f 01 00 00: 
             0x00000094: 06 00 00 00: 
             0x00000098: 00 00 00 00: 
             0x0000009c: 10 00 f1 ff: 
             0x000000a0: 4f 01 00 00: 
             0x000000a4: 00 00 00 00: 
             0x000000a8: 00 00 00 00: 
             0x000000ac: 04 00 f1 ff: 
             0x000000b0: 56 01 00 00: 
             0x000000b4: f8 fe 01 00: 
             0x000000b8: 00 00 00 00: 
             0x000000bc: 10 00 f1 ff: 
             0x000000c0: 5d 01 00 00: 
             0x000000c4: 48 03 01 00: 
             0x000000c8: 00 00 00 00: 
             0x000000cc: 10 00 f1 ff: 
             0x000000d0: 64 01 00 00: 
             0x000000d4: 02 00 00 00: 
             0x000000d8: 00 00 00 00: 
             0x000000dc: 10 00 f1 ff: 
             0x000000e0: 75 01 00 00: 
             0x000000e4: 01 00 00 00: 
             0x000000e8: 00 00 00 00: 
             0x000000ec: 00 00 f1 ff: 
             0x000000f0: 8e 01 00 00: 
             0x000000f4: 00 00 01 00: 
             0x000000f8: 00 00 00 00: 
             0x000000fc: 12 00 0f 00: 
             0x00000100: 95 01 00 00: 
             0x00000104: 00 00 01 00: 
             0x00000108: 00 00 00 00: 
             0x0000010c: 10 00 f1 ff: 
             0x00000110: 9f 01 00 00: 
             0x00000114: 48 03 01 00: 
             0x00000118: 00 00 00 00: 
             0x0000011c: 10 00 05 00: 
             0x00000120: a8 01 00 00: 
             0x00000124: a4 00 01 00: 
             0x00000128: 00 00 00 00: 
             0x0000012c: 02 00 0f 00: 
             0x00000130: b4 01 00 00: 
             0x00000134: 30 00 01 00: 
             0x00000138: 00 00 00 00: 
             0x0000013c: 02 00 0f 00: 
             0x00000140: bf 01 00 00: 
             0x00000144: 6c 00 01 00: 
             0x00000148: 00 00 00 00: 
             0x0000014c: 02 00 0f 00: 
             0x00000150: cb 01 00 00: 
             0x00000154: 8a 00 01 00: 
             0x00000158: 00 00 00 00: 
             0x0000015c: 02 00 0f 00: 
             0x00000160: db 01 00 00: 
             0x00000164: 5e 02 01 00: 
             0x00000168: 00 00 00 00: 
             0x0000016c: 12 00 0c 00: 
             0x00000170: e1 01 00 00: 
             0x00000174: ae 00 01 00: 
             0x00000178: 00 00 00 00: 
             0x0000017c: 12 00 0f 00: 
             0x00000180: e6 01 00 00: 
             0x00000184: 60 01 01 00: 
             0x00000188: 16 00 00 00: 
             0x0000018c: 12 00 0f 00: 
             0x00000190: f2 01 00 00: 
             0x00000194: 82 01 01 00: 
             0x00000198: 1a 00 00 00: 
             0x0000019c: 12 00 0f 00: 
             0x000001a0: 01 02 00 00: 
             0x000001a4: 34 00 00 00: 
             0x000001a8: 00 00 00 00: 
             0x000001ac: 10 00 f1 ff: 
             0x000001b0: 14 02 00 00: 
             0x000001b4: 01 00 00 00: 
             0x000001b8: 00 00 00 00: 
             0x000001bc: 10 00 f1 ff: 
             0x000001c0: 26 02 00 00: 
             0x000001c4: 00 00 00 00: 
             0x000001c8: 00 00 00 00: 
             0x000001cc: 10 00 f1 ff: 
             0x000001d0: 37 02 00 00: 
             0x000001d4: 01 00 00 00: 
             0x000001d8: 00 00 00 00: 
             0x000001dc: 10 00 f1 ff: 
             0x000001e0: 4a 02 00 00: 
             0x000001e4: 00 00 00 00: 
             0x000001e8: 00 00 00 00: 
             0x000001ec: 00 00 f1 ff: 
             0x000001f0: 62 02 00 00: 
             0x000001f4: 00 00 00 00: 
             0x000001f8: 00 00 00 00: 
             0x000001fc: 00 00 f1 ff: 
             0x00000200: 79 02 00 00: 
             0x00000204: 00 00 00 00: 
             0x00000208: 00 00 00 00: 
             0x0000020c: 00 00 f1 ff: 
             0x00000210: 91 02 00 00: 
             0x00000214: 00 00 00 00: 
             0x00000218: 00 00 00 00: 
             0x0000021c: 00 00 f1 ff: 
             0x00000220: ad 02 00 00: 
             0x00000224: 32 00 00 00: 
             0x00000228: 00 00 00 00: 
             0x0000022c: 00 00 f1 ff: 
             0x00000230: bf 02 00 00: 
             0x00000234: 33 00 00 00: 
             0x00000238: 00 00 00 00: 
             0x0000023c: 10 00 f1 ff: 
             0x00000240: d7 02 00 00: 
             0x00000244: 34 00 00 00: 
             0x00000248: 00 00 00 00: 
             0x0000024c: 10 00 f1 ff: 
             0x00000250: f2 02 00 00: 
             0x00000254: 01 00 00 00: 
             0x00000258: 00 00 00 00: 
             0x0000025c: 00 00 f1 ff: 
             0x00000260: 09 03 00 00: 
             0x00000264: 01 00 00 00: 
             0x00000268: 00 00 00 00: 
             0x0000026c: 00 00 f1 ff: 
             0x00000270: 1f 03 00 00: 
             0x00000274: 01 00 00 00: 
             0x00000278: 00 00 00 00: 
             0x0000027c: 00 00 f1 ff: 
             0x00000280: 36 03 00 00: 
             0x00000284: 01 00 00 00: 
             0x00000288: 00 00 00 00: 
             0x0000028c: 00 00 f1 ff: 
             0x00000290: 51 03 00 00: 
             0x00000294: 01 00 00 00: 
             0x00000298: 00 00 00 00: 
             0x0000029c: 00 00 f1 ff: 
             0x000002a0: 62 03 00 00: 
             0x000002a4: 01 00 00 00: 
             0x000002a8: 00 00 00 00: 
             0x000002ac: 10 00 f1 ff: 
             0x000002b0: 72 03 00 00: 
             0x000002b4: 01 00 00 00: 
             0x000002b8: 00 00 00 00: 
             0x000002bc: 10 00 f1 ff: 
             0x000002c0: 89 03 00 00: 
             0x000002c4: 01 00 00 00: 
             0x000002c8: 00 00 00 00: 
             0x000002cc: 10 00 f1 ff: 
             0x000002d0: a3 03 00 00: 
             0x000002d4: 00 00 00 00: 
             0x000002d8: 00 00 00 00: 
             0x000002dc: 00 00 f1 ff: 
             0x000002e0: b9 03 00 00: 
             0x000002e4: 00 00 00 00: 
             0x000002e8: 00 00 00 00: 
             0x000002ec: 00 00 f1 ff: 
             0x000002f0: ce 03 00 00: 
             0x000002f4: 00 00 00 00: 
             0x000002f8: 00 00 00 00: 
             0x000002fc: 00 00 f1 ff: 
             0x00000300: e4 03 00 00: 
             0x00000304: 00 00 00 00: 
             0x00000308: 00 00 00 00: 
             0x0000030c: 00 00 f1 ff: 
             0x00000310: fe 03 00 00: 
             0x00000314: 00 00 00 00: 
             0x00000318: 00 00 00 00: 
             0x0000031c: 00 00 f1 ff: 
             0x00000320: 0e 04 00 00: 
             0x00000324: 00 00 00 00: 
             0x00000328: 00 00 00 00: 
             0x0000032c: 10 00 f1 ff: 
             0x00000330: 1d 04 00 00: 
             0x00000334: 00 00 00 00: 
             0x00000338: 00 00 00 00: 
             0x0000033c: 10 00 f1 ff: 
             0x00000340: 33 04 00 00: 
             0x00000344: 00 00 00 00: 
             0x00000348: 00 00 00 00: 
             0x0000034c: 10 00 f1 ff: 
             0x00000350: 4c 04 00 00: 
             0x00000354: 00 00 00 00: 
             0x00000358: 00 00 00 00: 
             0x0000035c: 00 00 f1 ff: 
             0x00000360: 64 04 00 00: 
             0x00000364: 00 00 00 00: 
             0x00000368: 00 00 00 00: 
             0x0000036c: 00 00 f1 ff: 
             0x00000370: 7b 04 00 00: 
             0x00000374: 00 00 00 00: 
             0x00000378: 00 00 00 00: 
             0x0000037c: 00 00 f1 ff: 
             0x00000380: 93 04 00 00: 
             0x00000384: 00 00 00 00: 
             0x00000388: 00 00 00 00: 
             0x0000038c: 00 00 f1 ff: 
             0x00000390: af 04 00 00: 
             0x00000394: 00 00 00 00: 
             0x00000398: 00 00 00 00: 
             0x0000039c: 00 00 f1 ff: 
             0x000003a0: c1 04 00 00: 
             0x000003a4: 01 00 00 00: 
             0x000003a8: 00 00 00 00: 
             0x000003ac: 10 00 f1 ff: 
             0x000003b0: d2 04 00 00: 
             0x000003b4: 00 00 00 00: 
             0x000003b8: 00 00 00 00: 
             0x000003bc: 10 00 f1 ff: 
             0x000003c0: ea 04 00 00: 
             0x000003c4: 00 00 00 00: 
             0x000003c8: 00 00 00 00: 
             0x000003cc: 10 00 f1 ff: 
             0x000003d0: 05 05 00 00: 
             0x000003d4: 26 00 01 00: 
             0x000003d8: 00 00 00 00: 
             0x000003dc: 00 00 0f 00: 
             0x000003e0: 15 05 00 00: 
             0x000003e4: 40 00 01 00: 
             0x000003e8: 00 00 00 00: 
             0x000003ec: 02 00 0f 00: 
             0x000003f0: 24 05 00 00: 
             0x000003f4: 44 00 01 00: 
             0x000003f8: 00 00 00 00: 
             0x000003fc: 00 00 0f 00: 
             0x00000400: 2a 05 00 00: 
             0x00000404: 68 00 01 00: 
             0x00000408: 00 00 00 00: 
             0x0000040c: 00 00 0f 00: 
             0x00000410: 39 05 00 00: 
             0x00000414: 80 00 01 00: 
             0x00000418: 00 00 00 00: 
             0x0000041c: 02 00 0f 00: 
             0x00000420: 46 05 00 00: 
             0x00000424: 84 00 01 00: 
             0x00000428: 00 00 00 00: 
             0x0000042c: 02 00 0f 00: 
             0x00000430: 59 05 00 00: 
             0x00000434: 44 02 01 00: 
             0x00000438: 08 00 00 00: 
             0x0000043c: 12 00 0f 00: 
             0x00000440: 6d 05 00 00: 
             0x00000444: aa 00 01 00: 
             0x00000448: 00 00 00 00: 
             0x0000044c: 12 00 0f 00: 
             0x00000450: 89 05 00 00: 
             0x00000454: aa 00 01 00: 
             0x00000458: 00 00 00 00: 
             0x0000045c: 02 00 0f 00: 
             0x00000460: 9c 05 00 00: 
             0x00000464: ba 02 01 00: 
             0x00000468: 00 00 00 00: 
             0x0000046c: 12 00 09 00: 
             0x00000470: a2 05 00 00: 
             0x00000474: 32 00 00 00: 
             0x00000478: 00 00 00 00: 
             0x0000047c: 10 00 f1 ff: 
             0x00000480: b4 05 00 00: 
             0x00000484: 00 00 00 00: 
             0x00000488: 00 00 00 00: 
             0x0000048c: 10 00 f1 ff: 
             0x00000490: c6 05 00 00: 
             0x00000494: 00 00 00 00: 
             0x00000498: 00 00 00 00: 
             0x0000049c: 10 00 f1 ff: 
             0x000004a0: d6 05 00 00: 
             0x000004a4: 00 00 00 00: 
             0x000004a8: 00 00 00 00: 
             0x000004ac: 10 00 f1 ff: 
             0x000004b0: e7 05 00 00: 
             0x000004b4: f8 02 01 00: 
             0x000004b8: 00 00 00 00: 
             0x000004bc: 00 00 0e 00: 
             0x000004c0: f0 05 00 00: 
             0x000004c4: 10 03 01 00: 
             0x000004c8: 00 00 00 00: 
             0x000004cc: 00 00 06 00: 
             0x000004d0: f9 05 00 00: 
             0x000004d4: 76 01 01 00: 
             0x000004d8: 0c 00 00 00: 
             0x000004dc: 12 00 0f 00: 
             0x000004e0: ff 05 00 00: 
             0x000004e4: 5c 01 01 00: 
             0x000004e8: 04 00 00 00: 
             0x000004ec: 12 00 0f 00: 
             0x000004f0: 0c 06 00 00: 
             0x000004f4: 10 03 01 00: 
             0x000004f8: 00 00 00 00: 
             0x000004fc: 10 00 01 00: 
             0x00000500: 12 06 00 00: 
             0x00000504: 9c 01 01 00: 
             0x00000508: 9c 00 00 00: 
             0x0000050c: 12 00 0f 00: 
             0x00000510: 19 06 00 00: 
             0x00000514: 00 00 00 00: 
             0x00000518: 00 00 00 00: 
             0x0000051c: 04 00 f1 ff: 
             0x00000520: 24 06 00 00: 
             0x00000524: 14 03 01 00: 
             0x00000528: 00 00 00 00: 
             0x0000052c: 00 00 06 00: 
             0x00000530: 32 06 00 00: 
             0x00000534: 18 03 01 00: 
             0x00000538: 00 00 00 00: 
             0x0000053c: 00 00 06 00: 
             0x00000540: 3d 06 00 00: 
             0x00000544: 10 03 01 00: 
             0x00000548: 00 00 00 00: 
             0x0000054c: 10 00 07 00: 
             0x00000550: 48 06 00 00: 
             0x00000554: dc 02 01 00: 
             0x00000558: 00 00 00 00: 
             0x0000055c: 00 00 09 00: 
             0x00000560: 56 06 00 00: 
             0x00000564: e8 02 01 00: 
             0x00000568: 00 00 00 00: 
             0x0000056c: 00 00 09 00: 
             0x00000570: 63 06 00 00: 
             0x00000574: 24 03 01 00: 
             0x00000578: 00 00 00 00: 
             0x0000057c: 10 00 08 00: 
             0x00000580: 76 06 00 00: 
             0x00000584: 00 00 00 00: 
             0x00000588: 00 00 00 00: 
             0x0000058c: 04 00 f1 ff: 
             0x00000590: 80 06 00 00: 
             0x00000594: 00 00 00 00: 
             0x00000598: 00 00 00 00: 
             0x0000059c: 00 00 f1 ff: 
             0x000005a0: 96 06 00 00: 
             0x000005a4: 00 00 00 00: 
             0x000005a8: 00 00 00 00: 
             0x000005ac: 00 00 f1 ff: 
             0x000005b0: b6 06 00 00: 
             0x000005b4: 01 00 00 00: 
             0x000005b8: 00 00 00 00: 
             0x000005bc: 00 00 f1 ff: 
             0x000005c0: d9 06 00 00: 
             0x000005c4: 04 00 00 00: 
             0x000005c8: 00 00 00 00: 
             0x000005cc: 00 00 0d 00: 
             0x000005d0: f3 06 00 00: 
             0x000005d4: 15 00 00 00: 
             0x000005d8: 00 00 00 00: 
             0x000005dc: 00 00 0d 00: 
             0x000005e0: 0d 07 00 00: 
             0x000005e4: 00 00 00 00: 
             0x000005e8: 00 00 00 00: 
             0x000005ec: 10 00 f1 ff: 
             0x000005f0: 24 07 00 00: 
             0x000005f4: 88 00 00 00: 
             0x000005f8: 00 00 00 00: 
             0x000005fc: 11 00 0d 00: 
             0x00000600: 2c 07 00 00: 
             0x00000604: 00 00 00 00: 
             0x00000608: 00 00 00 00: 
             0x0000060c: 00 00 f1 ff: 
             0x00000610: 3a 07 00 00: 
             0x00000614: 00 00 00 00: 
             0x00000618: 00 00 00 00: 
             0x0000061c: 00 00 f1 ff: 
             0x00000620: 48 07 00 00: 
             0x00000624: 00 00 00 00: 
             0x00000628: 00 00 00 00: 
             0x0000062c: 00 00 f1 ff: 
             0x00000630: 56 07 00 00: 
             0x00000634: 00 00 00 00: 
             0x00000638: 00 00 00 00: 
             0x0000063c: 00 00 f1 ff: 
             0x00000640: 64 07 00 00: 
             0x00000644: 00 00 00 00: 
             0x00000648: 00 00 00 00: 
             0x0000064c: 00 00 f1 ff: 
             0x00000650: 76 06 00 00: 
             0x00000654: 00 00 00 00: 
             0x00000658: 00 00 00 00: 
             0x0000065c: 04 00 f1 ff: 
             0x00000660: 72 07 00 00: 
             0x00000664: ac 00 01 00: 
             0x00000668: 02 00 00 00: 
             0x0000066c: 12 00 0f 00: 
             0x00000670: 81 07 00 00: 
             0x00000674: 00 00 00 00: 
             0x00000678: 00 00 00 00: 
             0x0000067c: 10 00 f1 ff: 
             0x00000680: 9c 07 00 00: 
             0x00000684: 01 00 00 00: 
             0x00000688: 00 00 00 00: 
             0x0000068c: 10 00 f1 ff: 
             0x00000690: b6 07 00 00: 
             0x00000694: 00 00 00 00: 
             0x00000698: 00 00 00 00: 
             0x0000069c: 10 00 f1 ff: 
             0x000006a0: cf 07 00 00: 
             0x000006a4: 00 00 00 00: 
             0x000006a8: 00 00 00 00: 
             0x000006ac: 10 00 f1 ff: 
             0x000006b0: ea 07 00 00: 
             0x000006b4: 01 00 00 00: 
             0x000006b8: 00 00 00 00: 
             0x000006bc: 00 00 f1 ff: 
             0x000006c0: 03 08 00 00: 
             0x000006c4: 01 00 00 00: 
             0x000006c8: 00 00 00 00: 
             0x000006cc: 00 00 f1 ff: 
             0x000006d0: 1f 08 00 00: 
             0x000006d4: 00 00 00 00: 
             0x000006d8: 00 00 00 00: 
             0x000006dc: 04 00 f1 ff: 
             0x000006e0: 2a 08 00 00: 
             0x000006e4: b0 00 01 00: 
             0x000006e8: 00 00 00 00: 
             0x000006ec: 00 00 0f 00: 
             0x000006f0: 39 08 00 00: 
             0x000006f4: c2 00 01 00: 
             0x000006f8: 00 00 00 00: 
             0x000006fc: 00 00 0f 00: 
             0x00000700: 49 08 00 00: 
             0x00000704: c4 00 01 00: 
             0x00000708: 00 00 00 00: 
             0x0000070c: 00 00 0f 00: 
             0x00000710: 52 08 00 00: 
             0x00000714: d6 00 01 00: 
             0x00000718: 00 00 00 00: 
             0x0000071c: 00 00 0f 00: 
             0x00000720: 5d 08 00 00: 
             0x00000724: e0 00 01 00: 
             0x00000728: 00 00 00 00: 
             0x0000072c: 00 00 0f 00: 
             0x00000730: 69 08 00 00: 
             0x00000734: e6 00 01 00: 
             0x00000738: 00 00 00 00: 
             0x0000073c: 00 00 0f 00: 
             0x00000740: 71 08 00 00: 
             0x00000744: f2 00 01 00: 
             0x00000748: 00 00 00 00: 
             0x0000074c: 00 00 0f 00: 
             0x00000750: 7d 08 00 00: 
             0x00000754: f6 00 01 00: 
             0x00000758: 00 00 00 00: 
             0x0000075c: 00 00 0f 00: 
             0x00000760: 89 08 00 00: 
             0x00000764: 06 01 01 00: 
             0x00000768: 00 00 00 00: 
             0x0000076c: 00 00 0f 00: 
             0x00000770: 93 08 00 00: 
             0x00000774: 08 01 01 00: 
             0x00000778: 00 00 00 00: 
             0x0000077c: 00 00 0f 00: 
             0x00000780: a2 08 00 00: 
             0x00000784: 1c 01 01 00: 
             0x00000788: 00 00 00 00: 
             0x0000078c: 00 00 0f 00: 
             0x00000790: b4 08 00 00: 
             0x00000794: 3a 01 01 00: 
             0x00000798: 00 00 00 00: 
             0x0000079c: 00 00 0f 00: 
             0x000007a0: c3 08 00 00: 
             0x000007a4: 5c 01 01 00: 
             0x000007a8: 00 00 00 00: 
             0x000007ac: 00 00 0f 00: 
             0x000007b0: d0 08 00 00: 
             0x000007b4: 28 03 01 00: 
             0x000007b8: 00 00 00 00: 
             0x000007bc: 00 00 05 00: 
             0x000007c0: dd 08 00 00: 
             0x000007c4: fc 02 01 00: 
             0x000007c8: 00 00 00 00: 
             0x000007cc: 00 00 02 00: 
             0x000007d0: ed 08 00 00: 
             0x000007d4: 00 03 01 00: 
             0x000007d8: 00 00 00 00: 
             0x000007dc: 00 00 02 00: 
             0x000007e0: fd 08 00 00: 
             0x000007e4: 00 00 00 00: 
             0x000007e8: 00 00 00 00: 
             0x000007ec: 04 00 f1 ff: 
             0x000007f0: 09 09 00 00: 
             0x000007f4: 01 00 00 00: 
             0x000007f8: 00 00 00 00: 
             0x000007fc: 00 00 f1 ff: 
             0x00000800: 23 09 00 00: 
             0x00000804: 00 00 00 00: 
             0x00000808: 00 00 00 00: 
             0x0000080c: 10 00 f1 ff: 
             0x00000810: 3c 09 00 00: 
             0x00000814: 00 00 00 00: 
             0x00000818: 00 00 00 00: 
             0x0000081c: 10 00 f1 ff: 
             0x00000820: 55 09 00 00: 
             0x00000824: 00 00 00 00: 
             0x00000828: 00 00 00 00: 
             0x0000082c: 10 00 f1 ff: 
             0x00000830: 6c 09 00 00: 
             0x00000834: 00 00 00 00: 
             0x00000838: 00 00 00 00: 
             0x0000083c: 10 00 f1 ff: 
             0x00000840: 84 09 00 00: 
             0x00000844: 00 00 00 00: 
             0x00000848: 00 00 00 00: 
             0x0000084c: 04 00 f1 ff: 
             0x00000850: bb 09 00 00: 
             0x00000854: 3c 02 01 00: 
             0x00000858: 08 00 00 00: 
             0x0000085c: 12 00 0f 00: 
             0x00000860: cc 09 00 00: 
             0x00000864: 4c 02 01 00: 
             0x00000868: 08 00 00 00: 
             0x0000086c: 12 00 0f 00: 
             0x00000870: d5 09 00 00: 
             0x00000874: 54 02 01 00: 
             0x00000878: 0a 00 00 00: 
             0x0000087c: 12 00 0f 00: 
             0x00000880: db 09 00 00: 
             0x00000884: 01 00 00 00: 
             0x00000888: 00 00 00 00: 
             0x0000088c: 10 00 f1 ff: 
             0x00000890: f8 09 00 00: 
             0x00000894: 01 00 00 00: 
             0x00000898: 00 00 00 00: 
             0x0000089c: 10 00 f1 ff: 
             0x000008a0: 0d 0a 00 00: 
             0x000008a4: 00 00 00 00: 
             0x000008a8: 00 00 00 00: 
             0x000008ac: 10 00 f1 ff: 
             0x000008b0: 1f 0a 00 00: 
             0x000008b4: 01 00 00 00: 
             0x000008b8: 00 00 00 00: 
             0x000008bc: 10 00 f1 ff: 
             0x000008c0: 3b 0a 00 00: 
             0x000008c4: 01 00 00 00: 
             0x000008c8: 00 00 00 00: 
             0x000008cc: 10 00 f1 ff: 
             0x000008d0: 4f 0a 00 00: 
             0x000008d4: 00 00 00 00: 
             0x000008d8: 00 00 00 00: 
             0x000008dc: 10 00 f1 ff: 
             0x000008e0: 60 0a 00 00: 
             0x000008e4: 00 00 00 00: 
             0x000008e8: 00 00 00 00: 
             0x000008ec: 10 00 f1 ff: 
             0x000008f0: 7b 0a 00 00: 
             0x000008f4: 00 00 00 00: 
             0x000008f8: 00 00 00 00: 
             0x000008fc: 10 00 f1 ff: 
             0x00000900: 8e 0a 00 00: 
             0x00000904: 00 00 00 00: 
             0x00000908: 00 00 00 00: 
             0x0000090c: 10 00 f1 ff: 
             0x00000910: 9e 0a 00 00: 
             0x00000914: 00 00 00 00: 
             0x00000918: 00 00 00 00: 
             0x0000091c: 10 00 f1 ff: 
             0x00000920: bb 0a 00 00: 
             0x00000924: 00 00 00 00: 
             0x00000928: 00 00 00 00: 
             0x0000092c: 10 00 f1 ff: 
             0x00000930: d0 0a 00 00: 
             0x00000934: 00 00 00 00: 
             0x00000938: 00 00 00 00: 
             0x0000093c: 10 00 f1 ff: 
             0x00000940: e2 0a 00 00: 
             0x00000944: 01 00 00 00: 
             0x00000948: 00 00 00 00: 
             0x0000094c: 00 00 f1 ff: 
             0x00000950: fb 0a 00 00: 
             0x00000954: 01 00 00 00: 
             0x00000958: 00 00 00 00: 
             0x0000095c: 00 00 f1 ff: 
             0x00000960: 11 0b 00 00: 
             0x00000964: 00 00 00 00: 
             0x00000968: 00 00 00 00: 
             0x0000096c: 04 00 f1 ff: 
             0x00000970: 18 0b 00 00: 
             0x00000974: 01 00 00 00: 
             0x00000978: 00 00 00 00: 
             0x0000097c: 00 00 f1 ff: 
             0x00000980: 2b 0b 00 00: 
             0x00000984: 00 00 00 00: 
             0x00000988: 00 00 00 00: 
             0x0000098c: 10 00 f1 ff: 
             0x00000990: 3d 0b 00 00: 
             0x00000994: 00 00 00 00: 
             0x00000998: 00 00 00 00: 
             0x0000099c: 10 00 f1 ff: 
             0x000009a0: 4f 0b 00 00: 
             0x000009a4: 00 00 00 00: 
             0x000009a8: 00 00 00 00: 
             0x000009ac: 10 00 f1 ff: 
             0x000009b0: 5f 0b 00 00: 
             0x000009b4: 00 00 00 00: 
             0x000009b8: 00 00 00 00: 
             0x000009bc: 10 00 f1 ff: 
             0x000009c0: 70 0b 00 00: 
             0x000009c4: 00 00 00 00: 
             0x000009c8: 00 00 00 00: 
             0x000009cc: 10 00 f1 ff: 
             0x000009d0: 87 0b 00 00: 
             0x000009d4: 00 00 00 00: 
             0x000009d8: 00 00 00 00: 
             0x000009dc: 10 00 f1 ff: 
             0x000009e0: 9e 0b 00 00: 
             0x000009e4: 00 00 00 00: 
             0x000009e8: 00 00 00 00: 
             0x000009ec: 10 00 f1 ff: 
             0x000009f0: b3 0b 00 00: 
             0x000009f4: 00 00 00 00: 
             0x000009f8: 00 00 00 00: 
             0x000009fc: 10 00 f1 ff: 
             0x00000a00: c9 0b 00 00: 
             0x00000a04: 38 02 01 00: 
             0x00000a08: 04 00 00 00: 
             0x00000a0c: 12 00 0f 00: 
             0x00000a10: d4 0b 00 00: 
             0x00000a14: 00 00 00 00: 
             0x00000a18: 00 00 00 00: 
             0x00000a1c: 04 00 f1 ff: 
             0x00000a20: 0b 0c 00 00: 
             0x00000a24: 01 00 00 00: 
             0x00000a28: 00 00 00 00: 
             0x00000a2c: 00 00 f1 ff: 
             0x00000a30: 27 0c 00 00: 
             0x00000a34: 01 00 00 00: 
             0x00000a38: 00 00 00 00: 
             0x00000a3c: 00 00 f1 ff: 
             0x00000a40: 40 0c 00 00: 
             0x00000a44: 00 00 00 00: 
             0x00000a48: 00 00 00 00: 
             0x00000a4c: 04 00 f1 ff: 
             0x00000a50: 79 0c 00 00: 
             0x00000a54: 05 00 00 00: 
             0x00000a58: 00 00 00 00: 
             0x00000a5c: 10 00 f1 ff: 
             0x00000a60: 8c 0c 00 00: 
             0x00000a64: 01 00 00 00: 
             0x00000a68: 00 00 00 00: 
             0x00000a6c: 10 00 f1 ff: 
             0x00000a70: 9e 0c 00 00: 
             0x00000a74: 00 00 00 00: 
             0x00000a78: 00 00 00 00: 
             0x00000a7c: 10 00 f1 ff: 
             0x00000a80: af 0c 00 00: 
             0x00000a84: 00 00 00 00: 
             0x00000a88: 00 00 00 00: 
             0x00000a8c: 10 00 f1 ff: 
             0x00000a90: c2 0c 00 00: 
             0x00000a94: 01 00 00 00: 
             0x00000a98: 00 00 00 00: 
             0x00000a9c: 00 00 f1 ff: 
             0x00000aa0: d6 0c 00 00: 
             0x00000aa4: 01 00 00 00: 
             0x00000aa8: 00 00 00 00: 
             0x00000aac: 00 00 f1 ff: 
             0x00000ab0: e7 0c 00 00: 
             0x00000ab4: 00 00 00 00: 
             0x00000ab8: 00 00 00 00: 
             0x00000abc: 04 00 f1 ff: 
             0x00000ac0: 14 0d 00 00: 
             0x00000ac4: 00 00 00 00: 
             0x00000ac8: 00 00 00 00: 
             0x00000acc: 04 00 f1 ff: 
             0x00000ad0: 1e 0d 00 00: 
             0x00000ad4: 00 00 00 00: 
             0x00000ad8: 00 00 00 00: 
             0x00000adc: 04 00 f1 ff: 
             0x00000ae0: 5e 0d 00 00: 
             0x00000ae4: f4 02 01 00: 
             0x00000ae8: 02 00 00 00: 
             0x00000aec: 22 00 0a 00: 
             0x00000af0: 74 0d 00 00: 
             0x00000af4: 00 00 00 00: 
             0x00000af8: 00 00 00 00: 
             0x00000afc: 20 00 f1 ff: 
             0x00000b00: 96 0d 00 00: 
             0x00000b04: 01 00 00 00: 
             0x00000b08: 00 00 00 00: 
             0x00000b0c: 20 00 f1 ff: 
             0x00000b10: b7 0d 00 00: 
             0x00000b14: 00 00 00 00: 
             0x00000b18: 00 00 00 00: 
             0x00000b1c: 20 00 f1 ff: 
             0x00000b20: d7 0d 00 00: 
             0x00000b24: 00 00 00 00: 
             0x00000b28: 00 00 00 00: 
             0x00000b2c: 20 00 f1 ff: 
             0x00000b30: f9 0d 00 00: 
             0x00000b34: 01 00 00 00: 
             0x00000b38: 00 00 00 00: 
             0x00000b3c: 00 00 f1 ff: 
             0x00000b40: 1c 0e 00 00: 
             0x00000b44: 01 00 00 00: 
             0x00000b48: 00 00 00 00: 
             0x00000b4c: 00 00 f1 ff: 
             0x00000b50: 3c 0e 00 00: 
             0x00000b54: 01 00 00 00: 
             0x00000b58: 00 00 00 00: 
             0x00000b5c: 00 00 f1 ff: 
             0x00000b60: 5a 0e 00 00: 
             0x00000b64: 01 00 00 00: 
             0x00000b68: 00 00 00 00: 
             0x00000b6c: 00 00 f1 ff: 
             0x00000b70: 75 0e 00 00: 
             0x00000b74: 00 00 00 00: 
             0x00000b78: 00 00 00 00: 
             0x00000b7c: 04 00 f1 ff: 
             0x00000b80: a8 0e 00 00: 
             0x00000b84: 00 00 00 00: 
             0x00000b88: 00 00 00 00: 
             0x00000b8c: 10 00 f1 ff: 
             0x00000b90: c8 0e 00 00: 
             0x00000b94: 01 00 00 00: 
             0x00000b98: 00 00 00 00: 
             0x00000b9c: 10 00 f1 ff: 
             0x00000ba0: e7 0e 00 00: 
             0x00000ba4: 00 00 00 00: 
             0x00000ba8: 00 00 00 00: 
             0x00000bac: 10 00 f1 ff: 
             0x00000bb0: 05 0f 00 00: 
             0x00000bb4: 00 00 00 00: 
             0x00000bb8: 00 00 00 00: 
             0x00000bbc: 10 00 f1 ff: 
             0x00000bc0: 25 0f 00 00: 
             0x00000bc4: 01 00 00 00: 
             0x00000bc8: 00 00 00 00: 
             0x00000bcc: 00 00 f1 ff: 
             0x00000bd0: 46 0f 00 00: 
             0x00000bd4: 01 00 00 00: 
             0x00000bd8: 00 00 00 00: 
             0x00000bdc: 00 00 f1 ff: 
             0x00000be0: 64 0f 00 00: 
             0x00000be4: 28 03 01 00: 
             0x00000be8: 04 00 00 00: 
             0x00000bec: 11 00 05 00: 
             0x00000bf0: 72 0f 00 00: 
             0x00000bf4: 00 00 00 00: 
             0x00000bf8: 00 00 00 00: 
             0x00000bfc: 04 00 f1 ff: 
             0x00000c00: ac 0f 00 00: 
             0x00000c04: f6 02 01 00: 
             0x00000c08: 02 00 00 00: 
             0x00000c0c: 22 00 0b 00: 
             0x00000c10: ba 0f 00 00: 
             0x00000c14: 00 00 00 00: 
             0x00000c18: 00 00 00 00: 
             0x00000c1c: 20 00 f1 ff: 
             0x00000c20: d4 0f 00 00: 
             0x00000c24: 01 00 00 00: 
             0x00000c28: 00 00 00 00: 
             0x00000c2c: 20 00 f1 ff: 
             0x00000c30: ed 0f 00 00: 
             0x00000c34: 00 00 00 00: 
             0x00000c38: 00 00 00 00: 
             0x00000c3c: 20 00 f1 ff: 
             0x00000c40: 05 10 00 00: 
             0x00000c44: 00 00 00 00: 
             0x00000c48: 00 00 00 00: 
             0x00000c4c: 20 00 f1 ff: 
             0x00000c50: 1f 10 00 00: 
             0x00000c54: 01 00 00 00: 
             0x00000c58: 00 00 00 00: 
             0x00000c5c: 00 00 f1 ff: 
             0x00000c60: 3a 10 00 00: 
             0x00000c64: 01 00 00 00: 
             0x00000c68: 00 00 00 00: 
             0x00000c6c: 00 00 f1 ff: 
             0x00000c70: 52 10 00 00: 
             0x00000c74: 01 00 00 00: 
             0x00000c78: 00 00 00 00: 
             0x00000c7c: 00 00 f1 ff: 
             0x00000c80: 68 10 00 00: 
             0x00000c84: 01 00 00 00: 
             0x00000c88: 00 00 00 00: 
             0x00000c8c: 00 00 f1 ff: 
             0x00000c90: 7b 10 00 00: 
             0x00000c94: 00 00 00 00: 
             0x00000c98: 00 00 00 00: 
             0x00000c9c: 04 00 f1 ff: 
             0x00000ca0: 82 10 00 00: 
             0x00000ca4: 01 00 00 00: 
             0x00000ca8: 00 00 00 00: 
             0x00000cac: 00 00 f1 ff: 
             0x00000cb0: 95 10 00 00: 
             0x00000cb4: 00 00 00 00: 
             0x00000cb8: 00 00 00 00: 
             0x00000cbc: 04 00 f1 ff: 
             0x00000cc0: 9e 10 00 00: 
             0x00000cc4: 1c 03 01 00: 
             0x00000cc8: 00 00 00 00: 
             0x00000ccc: 00 00 06 00: 
             0x00000cd0: ac 10 00 00: 
             0x00000cd4: 20 03 01 00: 
             0x00000cd8: 00 00 00 00: 
             0x00000cdc: 00 00 06 00: 
             0x00000ce0: b7 10 00 00: 
             0x00000ce4: 10 03 01 00: 
             0x00000ce8: 00 00 00 00: 
             0x00000cec: 10 00 04 00: 
             0x00000cf0: c2 10 00 00: 
             0x00000cf4: ae 02 01 00: 
             0x00000cf8: 00 00 00 00: 
             0x00000cfc: 00 00 0c 00: 
             0x00000d00: d0 10 00 00: 
             0x00000d04: b8 02 01 00: 
             0x00000d08: 00 00 00 00: 
             0x00000d0c: 00 00 0c 00: 
             0x00000d10: dd 10 00 00: 
             0x00000d14: 2c 03 01 00: 
             0x00000d18: 00 00 00 00: 
             0x00000d1c: 00 00 05 00: 
             0x00000d20: e9 10 00 00: 
             0x00000d24: 24 03 01 00: 
             0x00000d28: 00 00 00 00: 
             0x00000d2c: 10 00 08 00: 
             0x00000d30: fa 10 00 00: 
             0x00000d34: 00 00 00 00: 
             0x00000d38: 00 00 00 00: 
             0x00000d3c: 04 00 f1 ff: 
             0x00000d40: 01 11 00 00: 
             0x00000d44: 00 00 01 00: 
             0x00000d48: 00 00 00 00: 
             0x00000d4c: 10 00 f1 ff: 
             0x00000d50: 0b 11 00 00: 
             0x00000d54: fc 02 01 00: 
             0x00000d58: 00 00 00 00: 
             0x00000d5c: 00 00 02 00: 
             0x00000d60: 11 11 00 00: 
             0x00000d64: 00 03 01 00: 
             0x00000d68: 00 00 00 00: 
             0x00000d6c: 00 00 02 00: 
             0x00000d70: 17 11 00 00: 
             0x00000d74: 04 03 01 00: 
             0x00000d78: 00 00 00 00: 
             0x00000d7c: 00 00 02 00: 
             0x00000d80: 1d 11 00 00: 
             0x00000d84: 08 03 01 00: 
             0x00000d88: 00 00 00 00: 
             0x00000d8c: 00 00 02 00: 
             0x00000d90: 23 11 00 00: 
             0x00000d94: 0c 03 01 00: 
             0x00000d98: 00 00 00 00: 
             0x00000d9c: 00 00 02 00: 

Disassembly of section section .strtab (size: 4496)

             0x00000000: 00 2e 62 73: 
             0x00000004: 73 00 2e 63: 
             0x00000008: 70 2e 63 6f: 
             0x0000000c: 6e 73 74 34: 
             0x00000010: 00 2e 63 70: 
             0x00000014: 2e 72 6f 64: 
             0x00000018: 61 74 61 00: 
             0x0000001c: 2e 63 74 6f: 
             0x00000020: 72 73 00 2e: 
             0x00000024: 64 70 2e 62: 
             0x00000028: 73 73 00 2e: 
             0x0000002c: 64 70 2e 64: 
             0x00000030: 61 74 61 00: 
             0x00000034: 2e 64 74 6f: 
             0x00000038: 72 73 00 2e: 
             0x0000003c: 65 68 5f 66: 
             0x00000040: 72 61 6d 65: 
             0x00000044: 00 2e 66 69: 
             0x00000048: 6e 69 00 2e: 
             0x0000004c: 67 6e 75 2e: 
             0x00000050: 6c 69 6e 6b: 
             0x00000054: 6f 6e 63 65: 
             0x00000058: 2e 74 2e 5f: 
             0x0000005c: 5f 63 61 6c: 
             0x00000060: 6c 5f 65 78: 
             0x00000064: 69 74 70 72: 
             0x00000068: 6f 63 73 5f: 
             0x0000006c: 69 6d 70 6c: 
             0x00000070: 00 2e 67 6e: 
             0x00000074: 75 2e 6c 69: 
             0x00000078: 6e 6b 6f 6e: 
             0x0000007c: 63 65 2e 74: 
             0x00000080: 2e 5f 63 6c: 
             0x00000084: 65 61 6e 75: 
             0x00000088: 70 5f 69 6d: 
             0x0000008c: 70 6c 00 2e: 
             0x00000090: 69 6e 69 74: 
             0x00000094: 00 2e 6e 65: 
             0x00000098: 74 69 6e 66: 
             0x0000009c: 6f 00 2e 72: 
             0x000000a0: 6f 64 61 74: 
             0x000000a4: 61 00 2e 74: 
             0x000000a8: 65 78 74 00: 
             0x000000ac: 2e 78 74 61: 
             0x000000b0: 62 72 61 6e: 
             0x000000b4: 63 68 00 2e: 
             0x000000b8: 78 74 61 65: 
             0x000000bc: 6e 64 70 6f: 
             0x000000c0: 69 6e 74 74: 
             0x000000c4: 61 62 6c 65: 
             0x000000c8: 00 2e 78 74: 
             0x000000cc: 61 6c 61 62: 
             0x000000d0: 65 6c 74 61: 
             0x000000d4: 62 6c 65 00: 
             0x000000d8: 2e 78 74 61: 
             0x000000dc: 73 79 73 74: 
             0x000000e0: 65 6d 00 2e: 
             0x000000e4: 78 74 61 74: 
             0x000000e8: 68 72 65 61: 
             0x000000ec: 64 73 74 61: 
             0x000000f0: 72 74 00 2e: 
             0x000000f4: 78 74 61 74: 
             0x000000f8: 68 72 65 61: 
             0x000000fc: 64 73 74 6f: 
             0x00000100: 70 00 5f 63: 
             0x00000104: 70 00 5f 64: 
             0x00000108: 70 00 5f 66: 
             0x0000010c: 62 73 73 00: 
             0x00000110: 5f 66 64 70: 
             0x00000114: 2e 62 73 73: 
             0x00000118: 00 5f 43 54: 
             0x0000011c: 4f 52 5f 4c: 
             0x00000120: 49 53 54 5f: 
             0x00000124: 00 5f 44 54: 
             0x00000128: 4f 52 5f 4c: 
             0x0000012c: 49 53 54 5f: 
             0x00000130: 00 5f 78 73: 
             0x00000134: 31 5f 74 69: 
             0x00000138: 6d 65 72 5f: 
             0x0000013c: 68 7a 00 5f: 
             0x00000140: 64 65 66 61: 
             0x00000144: 75 6c 74 5f: 
             0x00000148: 63 6c 6b 62: 
             0x0000014c: 6c 6b 00 63: 
             0x00000150: 72 74 31 2e: 
             0x00000154: 53 00 5f 65: 
             0x00000158: 68 65 61 70: 
             0x0000015c: 00 5f 62 68: 
             0x00000160: 65 61 70 00: 
             0x00000164: 6d 61 69 6e: 
             0x00000168: 2e 6e 73 74: 
             0x0000016c: 61 63 6b 77: 
             0x00000170: 6f 72 64 73: 
             0x00000174: 00 6d 61 69: 
             0x00000178: 6e 2e 6e 73: 
             0x0000017c: 74 61 63 6b: 
             0x00000180: 77 6f 72 64: 
             0x00000184: 73 2e 64 65: 
             0x00000188: 66 69 6e 65: 
             0x0000018c: 64 00 5f 73: 
             0x00000190: 74 61 72 74: 
             0x00000194: 00 2e 72 61: 
             0x00000198: 6d 5f 73 69: 
             0x0000019c: 7a 65 00 5f: 
             0x000001a0: 65 64 70 2e: 
             0x000001a4: 62 73 73 00: 
             0x000001a8: 5f 53 65 74: 
             0x000001ac: 75 70 54 72: 
             0x000001b0: 61 70 73 00: 
             0x000001b4: 5f 47 65 74: 
             0x000001b8: 52 61 6d 45: 
             0x000001bc: 6e 64 00 5f: 
             0x000001c0: 49 6e 69 74: 
             0x000001c4: 54 68 72 65: 
             0x000001c8: 61 64 00 5f: 
             0x000001cc: 54 6f 75 63: 
             0x000001d0: 68 52 65 67: 
             0x000001d4: 69 73 74 65: 
             0x000001d8: 72 73 00 5f: 
             0x000001dc: 69 6e 69 74: 
             0x000001e0: 00 6d 61 69: 
             0x000001e4: 6e 00 5f 5f: 
             0x000001e8: 6c 69 62 63: 
             0x000001ec: 5f 64 6f 6e: 
             0x000001f0: 65 00 5f 65: 
             0x000001f4: 78 69 74 5f: 
             0x000001f8: 75 6e 6c 6f: 
             0x000001fc: 63 6b 65 64: 
             0x00000200: 00 5f 73 74: 
             0x00000204: 61 72 74 2e: 
             0x00000208: 6e 73 74 61: 
             0x0000020c: 63 6b 77 6f: 
             0x00000210: 72 64 73 00: 
             0x00000214: 5f 73 74 61: 
             0x00000218: 72 74 2e 6d: 
             0x0000021c: 61 78 74 68: 
             0x00000220: 72 65 61 64: 
             0x00000224: 73 00 5f 73: 
             0x00000228: 74 61 72 74: 
             0x0000022c: 2e 6d 61 78: 
             0x00000230: 74 69 6d 65: 
             0x00000234: 72 73 00 5f: 
             0x00000238: 73 74 61 72: 
             0x0000023c: 74 2e 6d 61: 
             0x00000240: 78 63 68 61: 
             0x00000244: 6e 65 6e 64: 
             0x00000248: 73 00 5f 53: 
             0x0000024c: 65 74 75 70: 
             0x00000250: 54 72 61 70: 
             0x00000254: 73 2e 6e 73: 
             0x00000258: 74 61 63 6b: 
             0x0000025c: 77 6f 72 64: 
             0x00000260: 73 00 5f 47: 
             0x00000264: 65 74 52 61: 
             0x00000268: 6d 45 6e 64: 
             0x0000026c: 2e 6e 73 74: 
             0x00000270: 61 63 6b 77: 
             0x00000274: 6f 72 64 73: 
             0x00000278: 00 5f 49 6e: 
             0x0000027c: 69 74 54 68: 
             0x00000280: 72 65 61 64: 
             0x00000284: 2e 6e 73 74: 
             0x00000288: 61 63 6b 77: 
             0x0000028c: 6f 72 64 73: 
             0x00000290: 00 5f 54 6f: 
             0x00000294: 75 63 68 52: 
             0x00000298: 65 67 69 73: 
             0x0000029c: 74 65 72 73: 
             0x000002a0: 2e 6e 73 74: 
             0x000002a4: 61 63 6b 77: 
             0x000002a8: 6f 72 64 73: 
             0x000002ac: 00 5f 69 6e: 
             0x000002b0: 69 74 2e 6e: 
             0x000002b4: 73 74 61 63: 
             0x000002b8: 6b 77 6f 72: 
             0x000002bc: 64 73 00 5f: 
             0x000002c0: 5f 6c 69 62: 
             0x000002c4: 63 5f 64 6f: 
             0x000002c8: 6e 65 2e 6e: 
             0x000002cc: 73 74 61 63: 
             0x000002d0: 6b 77 6f 72: 
             0x000002d4: 64 73 00 5f: 
             0x000002d8: 65 78 69 74: 
             0x000002dc: 5f 75 6e 6c: 
             0x000002e0: 6f 63 6b 65: 
             0x000002e4: 64 2e 6e 73: 
             0x000002e8: 74 61 63 6b: 
             0x000002ec: 77 6f 72 64: 
             0x000002f0: 73 00 5f 53: 
             0x000002f4: 65 74 75 70: 
             0x000002f8: 54 72 61 70: 
             0x000002fc: 73 2e 6d 61: 
             0x00000300: 78 74 68 72: 
             0x00000304: 65 61 64 73: 
             0x00000308: 00 5f 47 65: 
             0x0000030c: 74 52 61 6d: 
             0x00000310: 45 6e 64 2e: 
             0x00000314: 6d 61 78 74: 
             0x00000318: 68 72 65 61: 
             0x0000031c: 64 73 00 5f: 
             0x00000320: 49 6e 69 74: 
             0x00000324: 54 68 72 65: 
             0x00000328: 61 64 2e 6d: 
             0x0000032c: 61 78 74 68: 
             0x00000330: 72 65 61 64: 
             0x00000334: 73 00 5f 54: 
             0x00000338: 6f 75 63 68: 
             0x0000033c: 52 65 67 69: 
             0x00000340: 73 74 65 72: 
             0x00000344: 73 2e 6d 61: 
             0x00000348: 78 74 68 72: 
             0x0000034c: 65 61 64 73: 
             0x00000350: 00 5f 69 6e: 
             0x00000354: 69 74 2e 6d: 
             0x00000358: 61 78 74 68: 
             0x0000035c: 72 65 61 64: 
             0x00000360: 73 00 6d 61: 
             0x00000364: 69 6e 2e 6d: 
             0x00000368: 61 78 74 68: 
             0x0000036c: 72 65 61 64: 
             0x00000370: 73 00 5f 5f: 
             0x00000374: 6c 69 62 63: 
             0x00000378: 5f 64 6f 6e: 
             0x0000037c: 65 2e 6d 61: 
             0x00000380: 78 74 68 72: 
             0x00000384: 65 61 64 73: 
             0x00000388: 00 5f 65 78: 
             0x0000038c: 69 74 5f 75: 
             0x00000390: 6e 6c 6f 63: 
             0x00000394: 6b 65 64 2e: 
             0x00000398: 6d 61 78 74: 
             0x0000039c: 68 72 65 61: 
             0x000003a0: 64 73 00 5f: 
             0x000003a4: 53 65 74 75: 
             0x000003a8: 70 54 72 61: 
             0x000003ac: 70 73 2e 6d: 
             0x000003b0: 61 78 74 69: 
             0x000003b4: 6d 65 72 73: 
             0x000003b8: 00 5f 47 65: 
             0x000003bc: 74 52 61 6d: 
             0x000003c0: 45 6e 64 2e: 
             0x000003c4: 6d 61 78 74: 
             0x000003c8: 69 6d 65 72: 
             0x000003cc: 73 00 5f 49: 
             0x000003d0: 6e 69 74 54: 
             0x000003d4: 68 72 65 61: 
             0x000003d8: 64 2e 6d 61: 
             0x000003dc: 78 74 69 6d: 
             0x000003e0: 65 72 73 00: 
             0x000003e4: 5f 54 6f 75: 
             0x000003e8: 63 68 52 65: 
             0x000003ec: 67 69 73 74: 
             0x000003f0: 65 72 73 2e: 
             0x000003f4: 6d 61 78 74: 
             0x000003f8: 69 6d 65 72: 
             0x000003fc: 73 00 5f 69: 
             0x00000400: 6e 69 74 2e: 
             0x00000404: 6d 61 78 74: 
             0x00000408: 69 6d 65 72: 
             0x0000040c: 73 00 6d 61: 
             0x00000410: 69 6e 2e 6d: 
             0x00000414: 61 78 74 69: 
             0x00000418: 6d 65 72 73: 
             0x0000041c: 00 5f 5f 6c: 
             0x00000420: 69 62 63 5f: 
             0x00000424: 64 6f 6e 65: 
             0x00000428: 2e 6d 61 78: 
             0x0000042c: 74 69 6d 65: 
             0x00000430: 72 73 00 5f: 
             0x00000434: 65 78 69 74: 
             0x00000438: 5f 75 6e 6c: 
             0x0000043c: 6f 63 6b 65: 
             0x00000440: 64 2e 6d 61: 
             0x00000444: 78 74 69 6d: 
             0x00000448: 65 72 73 00: 
             0x0000044c: 5f 53 65 74: 
             0x00000450: 75 70 54 72: 
             0x00000454: 61 70 73 2e: 
             0x00000458: 6d 61 78 63: 
             0x0000045c: 68 61 6e 65: 
             0x00000460: 6e 64 73 00: 
             0x00000464: 5f 47 65 74: 
             0x00000468: 52 61 6d 45: 
             0x0000046c: 6e 64 2e 6d: 
             0x00000470: 61 78 63 68: 
             0x00000474: 61 6e 65 6e: 
             0x00000478: 64 73 00 5f: 
             0x0000047c: 49 6e 69 74: 
             0x00000480: 54 68 72 65: 
             0x00000484: 61 64 2e 6d: 
             0x00000488: 61 78 63 68: 
             0x0000048c: 61 6e 65 6e: 
             0x00000490: 64 73 00 5f: 
             0x00000494: 54 6f 75 63: 
             0x00000498: 68 52 65 67: 
             0x0000049c: 69 73 74 65: 
             0x000004a0: 72 73 2e 6d: 
             0x000004a4: 61 78 63 68: 
             0x000004a8: 61 6e 65 6e: 
             0x000004ac: 64 73 00 5f: 
             0x000004b0: 69 6e 69 74: 
             0x000004b4: 2e 6d 61 78: 
             0x000004b8: 63 68 61 6e: 
             0x000004bc: 65 6e 64 73: 
             0x000004c0: 00 6d 61 69: 
             0x000004c4: 6e 2e 6d 61: 
             0x000004c8: 78 63 68 61: 
             0x000004cc: 6e 65 6e 64: 
             0x000004d0: 73 00 5f 5f: 
             0x000004d4: 6c 69 62 63: 
             0x000004d8: 5f 64 6f 6e: 
             0x000004dc: 65 2e 6d 61: 
             0x000004e0: 78 63 68 61: 
             0x000004e4: 6e 65 6e 64: 
             0x000004e8: 73 00 5f 65: 
             0x000004ec: 78 69 74 5f: 
             0x000004f0: 75 6e 6c 6f: 
             0x000004f4: 63 6b 65 64: 
             0x000004f8: 2e 6d 61 78: 
             0x000004fc: 63 68 61 6e: 
             0x00000500: 65 6e 64 73: 
             0x00000504: 00 5f 49 6e: 
             0x00000508: 69 74 54 68: 
             0x0000050c: 72 65 61 64: 
             0x00000510: 4c 6f 6f 70: 
             0x00000514: 00 5f 45 78: 
             0x00000518: 69 74 57 69: 
             0x0000051c: 74 68 45 72: 
             0x00000520: 72 6f 72 00: 
             0x00000524: 5f 4a 6f 69: 
             0x00000528: 6e 00 5f 4e: 
             0x0000052c: 6f 6e 5a 65: 
             0x00000530: 72 6f 52 65: 
             0x00000534: 74 75 72 6e: 
             0x00000538: 00 5f 54 72: 
             0x0000053c: 61 70 48 61: 
             0x00000540: 6e 64 6c 65: 
             0x00000544: 72 00 5f 49: 
             0x00000548: 6e 69 74 54: 
             0x0000054c: 68 72 65 61: 
             0x00000550: 64 52 6f 75: 
             0x00000554: 74 69 6e 65: 
             0x00000558: 00 5f 5f 61: 
             0x0000055c: 6c 6c 6f 63: 
             0x00000560: 5f 6c 69 62: 
             0x00000564: 63 5f 68 77: 
             0x00000568: 6c 6f 63 6b: 
             0x0000056c: 00 5f 5f 72: 
             0x00000570: 65 67 69 73: 
             0x00000574: 74 65 72 5f: 
             0x00000578: 66 72 61 6d: 
             0x0000057c: 65 5f 69 6e: 
             0x00000580: 66 6f 5f 62: 
             0x00000584: 61 73 65 73: 
             0x00000588: 00 5f 5f 66: 
             0x0000058c: 72 65 65 5f: 
             0x00000590: 6c 69 62 63: 
             0x00000594: 5f 68 77 6c: 
             0x00000598: 6f 63 6b 00: 
             0x0000059c: 5f 66 69 6e: 
             0x000005a0: 69 00 5f 66: 
             0x000005a4: 69 6e 69 2e: 
             0x000005a8: 6e 73 74 61: 
             0x000005ac: 63 6b 77 6f: 
             0x000005b0: 72 64 73 00: 
             0x000005b4: 5f 66 69 6e: 
             0x000005b8: 69 2e 6d 61: 
             0x000005bc: 78 63 68 61: 
             0x000005c0: 6e 65 6e 64: 
             0x000005c4: 73 00 5f 66: 
             0x000005c8: 69 6e 69 2e: 
             0x000005cc: 6d 61 78 74: 
             0x000005d0: 69 6d 65 72: 
             0x000005d4: 73 00 5f 66: 
             0x000005d8: 69 6e 69 2e: 
             0x000005dc: 6d 61 78 74: 
             0x000005e0: 68 72 65 61: 
             0x000005e4: 64 73 00 5f: 
             0x000005e8: 52 61 6d 53: 
             0x000005ec: 69 7a 65 00: 
             0x000005f0: 5f 4e 75 6c: 
             0x000005f4: 6c 50 74 72: 
             0x000005f8: 00 5f 65 78: 
             0x000005fc: 69 74 00 5f: 
             0x00000600: 44 6f 45 78: 
             0x00000604: 63 65 70 74: 
             0x00000608: 69 6f 6e 00: 
             0x0000060c: 5f 65 62 73: 
             0x00000610: 73 00 6d 65: 
             0x00000614: 6d 73 65 74: 
             0x00000618: 00 63 72 74: 
             0x0000061c: 62 65 67 69: 
             0x00000620: 6e 2e 73 00: 
             0x00000624: 64 74 6f 72: 
             0x00000628: 5f 6c 69 73: 
             0x0000062c: 74 5f 70 74: 
             0x00000630: 72 00 64 74: 
             0x00000634: 6f 72 73 5f: 
             0x00000638: 73 69 7a 65: 
             0x0000063c: 00 5f 44 54: 
             0x00000640: 4f 52 5f 45: 
             0x00000644: 4e 44 5f 00: 
             0x00000648: 64 6f 5f 64: 
             0x0000064c: 74 6f 72 73: 
             0x00000650: 5f 6c 6f 6f: 
             0x00000654: 70 00 64 6f: 
             0x00000658: 5f 64 74 6f: 
             0x0000065c: 72 73 5f 65: 
             0x00000660: 6e 64 00 5f: 
             0x00000664: 5f 45 48 5f: 
             0x00000668: 46 52 41 4d: 
             0x0000066c: 45 5f 42 45: 
             0x00000670: 47 49 4e 5f: 
             0x00000674: 5f 00 73 65: 
             0x00000678: 6c 65 63 74: 
             0x0000067c: 2e 78 63 00: 
             0x00000680: 5f 5f 62 75: 
             0x00000684: 69 6c 74 69: 
             0x00000688: 6e 5f 74 69: 
             0x0000068c: 6d 65 72 5f: 
             0x00000690: 61 66 74 65: 
             0x00000694: 72 00 5f 5f: 
             0x00000698: 62 75 69 6c: 
             0x0000069c: 74 69 6e 5f: 
             0x000006a0: 74 69 6d 65: 
             0x000006a4: 72 5f 61 66: 
             0x000006a8: 74 65 72 2e: 
             0x000006ac: 6c 6f 63 6e: 
             0x000006b0: 6f 73 69 64: 
             0x000006b4: 65 00 5f 5f: 
             0x000006b8: 62 75 69 6c: 
             0x000006bc: 74 69 6e 5f: 
             0x000006c0: 74 69 6d 65: 
             0x000006c4: 72 5f 61 66: 
             0x000006c8: 74 65 72 2e: 
             0x000006cc: 6c 6f 63 6e: 
             0x000006d0: 6f 63 68 61: 
             0x000006d4: 6e 64 65 63: 
             0x000006d8: 00 6d 61 69: 
             0x000006dc: 6e 2e 70 61: 
             0x000006e0: 72 69 6e 66: 
             0x000006e4: 6f 2e 64 65: 
             0x000006e8: 62 75 67 73: 
             0x000006ec: 74 72 69 6e: 
             0x000006f0: 67 30 00 6d: 
             0x000006f4: 61 69 6e 2e: 
             0x000006f8: 70 61 72 69: 
             0x000006fc: 6e 66 6f 2e: 
             0x00000700: 64 65 62 75: 
             0x00000704: 67 73 74 72: 
             0x00000708: 69 6e 67 31: 
             0x0000070c: 00 5f 5f 6d: 
             0x00000710: 61 69 6e 5f: 
             0x00000714: 64 65 66 61: 
             0x00000718: 75 6c 74 5f: 
             0x0000071c: 6e 65 74 77: 
             0x00000720: 6f 72 6b 00: 
             0x00000724: 73 74 64 63: 
             0x00000728: 6f 72 65 00: 
             0x0000072c: 74 68 72 65: 
             0x00000730: 61 64 2e 61: 
             0x00000734: 6e 6f 6e 2e: 
             0x00000738: 30 00 74 68: 
             0x0000073c: 72 65 61 64: 
             0x00000740: 2e 61 6e 6f: 
             0x00000744: 6e 2e 31 00: 
             0x00000748: 74 68 72 65: 
             0x0000074c: 61 64 2e 61: 
             0x00000750: 6e 6f 6e 2e: 
             0x00000754: 32 00 74 68: 
             0x00000758: 72 65 61 64: 
             0x0000075c: 2e 61 6e 6f: 
             0x00000760: 6e 2e 33 00: 
             0x00000764: 74 68 72 65: 
             0x00000768: 61 64 2e 61: 
             0x0000076c: 6e 6f 6e 2e: 
             0x00000770: 34 00 5f 5f: 
             0x00000774: 6d 63 6d 61: 
             0x00000778: 69 6e 30 30: 
             0x0000077c: 30 30 30 32: 
             0x00000780: 00 5f 5f 6d: 
             0x00000784: 63 6d 61 69: 
             0x00000788: 6e 30 30 30: 
             0x0000078c: 30 30 32 2e: 
             0x00000790: 6e 73 74 61: 
             0x00000794: 63 6b 77 6f: 
             0x00000798: 72 64 73 00: 
             0x0000079c: 5f 5f 6d 63: 
             0x000007a0: 6d 61 69 6e: 
             0x000007a4: 30 30 30 30: 
             0x000007a8: 30 32 2e 6d: 
             0x000007ac: 61 78 74 68: 
             0x000007b0: 72 65 61 64: 
             0x000007b4: 73 00 5f 5f: 
             0x000007b8: 6d 63 6d 61: 
             0x000007bc: 69 6e 30 30: 
             0x000007c0: 30 30 30 32: 
             0x000007c4: 2e 6d 61 78: 
             0x000007c8: 74 69 6d 65: 
             0x000007cc: 72 73 00 5f: 
             0x000007d0: 5f 6d 63 6d: 
             0x000007d4: 61 69 6e 30: 
             0x000007d8: 30 30 30 30: 
             0x000007dc: 32 2e 6d 61: 
             0x000007e0: 78 63 68 61: 
             0x000007e4: 6e 65 6e 64: 
             0x000007e8: 73 00 5f 5f: 
             0x000007ec: 6d 63 6d 61: 
             0x000007f0: 69 6e 30 30: 
             0x000007f4: 30 30 30 32: 
             0x000007f8: 2e 6c 6f 63: 
             0x000007fc: 6e 6f 73 69: 
             0x00000800: 64 65 00 5f: 
             0x00000804: 5f 6d 63 6d: 
             0x00000808: 61 69 6e 30: 
             0x0000080c: 30 30 30 30: 
             0x00000810: 32 2e 6c 6f: 
             0x00000814: 63 6e 6f 63: 
             0x00000818: 68 61 6e 64: 
             0x0000081c: 65 63 00 63: 
             0x00000820: 63 54 43 4f: 
             0x00000824: 50 71 36 2e: 
             0x00000828: 73 00 67 65: 
             0x0000082c: 74 41 6c 6c: 
             0x00000830: 43 68 61 6e: 
             0x00000834: 6e 65 6c 73: 
             0x00000838: 00 66 72 65: 
             0x0000083c: 65 41 6c 6c: 
             0x00000840: 43 68 61 6e: 
             0x00000844: 6e 65 6c 73: 
             0x00000848: 00 73 6b 69: 
             0x0000084c: 70 46 72 65: 
             0x00000850: 65 00 72 65: 
             0x00000854: 63 65 69 76: 
             0x00000858: 65 45 6e 64: 
             0x0000085c: 00 77 61 69: 
             0x00000860: 74 46 6f 72: 
             0x00000864: 5a 65 72 6f: 
             0x00000868: 00 6e 6f 43: 
             0x0000086c: 68 61 6e 73: 
             0x00000870: 00 72 65 74: 
             0x00000874: 75 72 6e 54: 
             0x00000878: 6f 43 52 54: 
             0x0000087c: 00 62 75 69: 
             0x00000880: 6c 64 52 65: 
             0x00000884: 67 41 72 67: 
             0x00000888: 00 68 61 73: 
             0x0000088c: 45 6e 64 52: 
             0x00000890: 65 67 00 77: 
             0x00000894: 61 69 74 46: 
             0x00000898: 6f 72 53 63: 
             0x0000089c: 72 61 74 63: 
             0x000008a0: 68 00 77 61: 
             0x000008a4: 69 74 46 6f: 
             0x000008a8: 72 53 63 72: 
             0x000008ac: 61 74 63 68: 
             0x000008b0: 54 6f 70 00: 
             0x000008b4: 77 72 69 74: 
             0x000008b8: 65 54 6f 53: 
             0x000008bc: 63 72 61 74: 
             0x000008c0: 63 68 00 65: 
             0x000008c4: 6e 64 4f 66: 
             0x000008c8: 53 74 61 72: 
             0x000008cc: 74 75 70 00: 
             0x000008d0: 63 68 61 6e: 
             0x000008d4: 45 6e 64 53: 
             0x000008d8: 74 6f 72 65: 
             0x000008dc: 00 74 68 69: 
             0x000008e0: 73 43 68 61: 
             0x000008e4: 6e 65 6e 64: 
             0x000008e8: 5a 65 72 6f: 
             0x000008ec: 00 6e 65 78: 
             0x000008f0: 74 43 68 61: 
             0x000008f4: 6e 65 6e 64: 
             0x000008f8: 5a 65 72 6f: 
             0x000008fc: 00 65 78 63: 
             0x00000900: 65 70 74 69: 
             0x00000904: 6f 6e 2e 53: 
             0x00000908: 00 5f 44 6f: 
             0x0000090c: 45 78 63 65: 
             0x00000910: 70 74 69 6f: 
             0x00000914: 6e 2e 6c 6f: 
             0x00000918: 63 6e 6f 63: 
             0x0000091c: 68 61 6e 64: 
             0x00000920: 65 63 00 5f: 
             0x00000924: 44 6f 45 78: 
             0x00000928: 63 65 70 74: 
             0x0000092c: 69 6f 6e 2e: 
             0x00000930: 6e 73 74 61: 
             0x00000934: 63 6b 77 6f: 
             0x00000938: 72 64 73 00: 
             0x0000093c: 5f 44 6f 45: 
             0x00000940: 78 63 65 70: 
             0x00000944: 74 69 6f 6e: 
             0x00000948: 2e 6d 61 78: 
             0x0000094c: 63 68 61 6e: 
             0x00000950: 65 6e 64 73: 
             0x00000954: 00 5f 44 6f: 
             0x00000958: 45 78 63 65: 
             0x0000095c: 70 74 69 6f: 
             0x00000960: 6e 2e 6d 61: 
             0x00000964: 78 74 69 6d: 
             0x00000968: 65 72 73 00: 
             0x0000096c: 5f 44 6f 45: 
             0x00000970: 78 63 65 70: 
             0x00000974: 74 69 6f 6e: 
             0x00000978: 2e 6d 61 78: 
             0x0000097c: 74 68 72 65: 
             0x00000980: 61 64 73 00: 
             0x00000984: 2e 2e 2f 2e: 
             0x00000988: 2e 2f 2e 2e: 
             0x0000098c: 2f 2e 2e 2f: 
             0x00000990: 2e 2e 2f 2e: 
             0x00000994: 2e 2f 73 72: 
             0x00000998: 63 2f 6e 65: 
             0x0000099c: 77 6c 69 62: 
             0x000009a0: 2f 6c 69 62: 
             0x000009a4: 63 2f 6d 61: 
             0x000009a8: 63 68 69 6e: 
             0x000009ac: 65 2f 78 63: 
             0x000009b0: 6f 72 65 2f: 
             0x000009b4: 64 6f 6e 65: 
             0x000009b8: 2e 63 00 5f: 
             0x000009bc: 5f 63 61 6c: 
             0x000009c0: 6c 5f 65 78: 
             0x000009c4: 69 74 70 72: 
             0x000009c8: 6f 63 73 00: 
             0x000009cc: 5f 63 6c 65: 
             0x000009d0: 61 6e 75 70: 
             0x000009d4: 00 5f 64 6f: 
             0x000009d8: 6e 65 00 5f: 
             0x000009dc: 5f 63 61 6c: 
             0x000009e0: 6c 5f 65 78: 
             0x000009e4: 69 74 70 72: 
             0x000009e8: 6f 63 73 2e: 
             0x000009ec: 6e 73 74 61: 
             0x000009f0: 63 6b 77 6f: 
             0x000009f4: 72 64 73 00: 
             0x000009f8: 5f 63 6c 65: 
             0x000009fc: 61 6e 75 70: 
             0x00000a00: 2e 6e 73 74: 
             0x00000a04: 61 63 6b 77: 
             0x00000a08: 6f 72 64 73: 
             0x00000a0c: 00 5f 64 6f: 
             0x00000a10: 6e 65 2e 6e: 
             0x00000a14: 73 74 61 63: 
             0x00000a18: 6b 77 6f 72: 
             0x00000a1c: 64 73 00 5f: 
             0x00000a20: 5f 63 61 6c: 
             0x00000a24: 6c 5f 65 78: 
             0x00000a28: 69 74 70 72: 
             0x00000a2c: 6f 63 73 2e: 
             0x00000a30: 6d 61 78 74: 
             0x00000a34: 68 72 65 61: 
             0x00000a38: 64 73 00 5f: 
             0x00000a3c: 63 6c 65 61: 
             0x00000a40: 6e 75 70 2e: 
             0x00000a44: 6d 61 78 74: 
             0x00000a48: 68 72 65 61: 
             0x00000a4c: 64 73 00 5f: 
             0x00000a50: 64 6f 6e 65: 
             0x00000a54: 2e 6d 61 78: 
             0x00000a58: 74 68 72 65: 
             0x00000a5c: 61 64 73 00: 
             0x00000a60: 5f 5f 63 61: 
             0x00000a64: 6c 6c 5f 65: 
             0x00000a68: 78 69 74 70: 
             0x00000a6c: 72 6f 63 73: 
             0x00000a70: 2e 6d 61 78: 
             0x00000a74: 74 69 6d 65: 
             0x00000a78: 72 73 00 5f: 
             0x00000a7c: 63 6c 65 61: 
             0x00000a80: 6e 75 70 2e: 
             0x00000a84: 6d 61 78 74: 
             0x00000a88: 69 6d 65 72: 
             0x00000a8c: 73 00 5f 64: 
             0x00000a90: 6f 6e 65 2e: 
             0x00000a94: 6d 61 78 74: 
             0x00000a98: 69 6d 65 72: 
             0x00000a9c: 73 00 5f 5f: 
             0x00000aa0: 63 61 6c 6c: 
             0x00000aa4: 5f 65 78 69: 
             0x00000aa8: 74 70 72 6f: 
             0x00000aac: 63 73 2e 6d: 
             0x00000ab0: 61 78 63 68: 
             0x00000ab4: 61 6e 65 6e: 
             0x00000ab8: 64 73 00 5f: 
             0x00000abc: 63 6c 65 61: 
             0x00000ac0: 6e 75 70 2e: 
             0x00000ac4: 6d 61 78 63: 
             0x00000ac8: 68 61 6e 65: 
             0x00000acc: 6e 64 73 00: 
             0x00000ad0: 5f 64 6f 6e: 
             0x00000ad4: 65 2e 6d 61: 
             0x00000ad8: 78 63 68 61: 
             0x00000adc: 6e 65 6e 64: 
             0x00000ae0: 73 00 5f 5f: 
             0x00000ae4: 6c 69 62 63: 
             0x00000ae8: 5f 64 6f 6e: 
             0x00000aec: 65 2e 6c 6f: 
             0x00000af0: 63 6e 6f 63: 
             0x00000af4: 68 61 6e 64: 
             0x00000af8: 65 63 00 5f: 
             0x00000afc: 5f 6c 69 62: 
             0x00000b00: 63 5f 64 6f: 
             0x00000b04: 6e 65 2e 6c: 
             0x00000b08: 6f 63 6e 6f: 
             0x00000b0c: 73 69 64 65: 
             0x00000b10: 00 65 78 69: 
             0x00000b14: 74 2e 53 00: 
             0x00000b18: 5f 65 78 69: 
             0x00000b1c: 74 2e 6c 6f: 
             0x00000b20: 63 6e 6f 63: 
             0x00000b24: 68 61 6e 64: 
             0x00000b28: 65 63 00 5f: 
             0x00000b2c: 65 78 69 74: 
             0x00000b30: 2e 6e 73 74: 
             0x00000b34: 61 63 6b 77: 
             0x00000b38: 6f 72 64 73: 
             0x00000b3c: 00 5f 65 78: 
             0x00000b40: 69 74 2e 6d: 
             0x00000b44: 61 78 63 68: 
             0x00000b48: 61 6e 65 6e: 
             0x00000b4c: 64 73 00 5f: 
             0x00000b50: 65 78 69 74: 
             0x00000b54: 2e 6d 61 78: 
             0x00000b58: 74 69 6d 65: 
             0x00000b5c: 72 73 00 5f: 
             0x00000b60: 65 78 69 74: 
             0x00000b64: 2e 6d 61 78: 
             0x00000b68: 74 68 72 65: 
             0x00000b6c: 61 64 73 00: 
             0x00000b70: 5f 44 6f 53: 
             0x00000b74: 79 73 63 61: 
             0x00000b78: 6c 6c 2e 6e: 
             0x00000b7c: 73 74 61 63: 
             0x00000b80: 6b 77 6f 72: 
             0x00000b84: 64 73 00 5f: 
             0x00000b88: 44 6f 53 79: 
             0x00000b8c: 73 63 61 6c: 
             0x00000b90: 6c 2e 6d 61: 
             0x00000b94: 78 63 68 61: 
             0x00000b98: 6e 65 6e 64: 
             0x00000b9c: 73 00 5f 44: 
             0x00000ba0: 6f 53 79 73: 
             0x00000ba4: 63 61 6c 6c: 
             0x00000ba8: 2e 6d 61 78: 
             0x00000bac: 74 69 6d 65: 
             0x00000bb0: 72 73 00 5f: 
             0x00000bb4: 44 6f 53 79: 
             0x00000bb8: 73 63 61 6c: 
             0x00000bbc: 6c 2e 6d 61: 
             0x00000bc0: 78 74 68 72: 
             0x00000bc4: 65 61 64 73: 
             0x00000bc8: 00 5f 44 6f: 
             0x00000bcc: 53 79 73 63: 
             0x00000bd0: 61 6c 6c 00: 
             0x00000bd4: 2e 2e 2f 2e: 
             0x00000bd8: 2e 2f 2e 2e: 
             0x00000bdc: 2f 2e 2e 2f: 
             0x00000be0: 2e 2e 2f 2e: 
             0x00000be4: 2e 2f 73 72: 
             0x00000be8: 63 2f 6e 65: 
             0x00000bec: 77 6c 69 62: 
             0x00000bf0: 2f 6c 69 62: 
             0x00000bf4: 63 2f 6d 61: 
             0x00000bf8: 63 68 69 6e: 
             0x00000bfc: 65 2f 78 63: 
             0x00000c00: 6f 72 65 2f: 
             0x00000c04: 65 78 69 74: 
             0x00000c08: 2e 63 00 5f: 
             0x00000c0c: 65 78 69 74: 
             0x00000c10: 5f 75 6e 6c: 
             0x00000c14: 6f 63 6b 65: 
             0x00000c18: 64 2e 6c 6f: 
             0x00000c1c: 63 6e 6f 63: 
             0x00000c20: 68 61 6e 64: 
             0x00000c24: 65 63 00 5f: 
             0x00000c28: 65 78 69 74: 
             0x00000c2c: 5f 75 6e 6c: 
             0x00000c30: 6f 63 6b 65: 
             0x00000c34: 64 2e 6c 6f: 
             0x00000c38: 63 6e 6f 73: 
             0x00000c3c: 69 64 65 00: 
             0x00000c40: 2e 2e 2f 2e: 
             0x00000c44: 2e 2f 2e 2e: 
             0x00000c48: 2f 2e 2e 2f: 
             0x00000c4c: 2e 2e 2f 2e: 
             0x00000c50: 2e 2f 73 72: 
             0x00000c54: 63 2f 6e 65: 
             0x00000c58: 77 6c 69 62: 
             0x00000c5c: 2f 6c 69 62: 
             0x00000c60: 63 2f 6d 61: 
             0x00000c64: 63 68 69 6e: 
             0x00000c68: 65 2f 78 63: 
             0x00000c6c: 6f 72 65 2f: 
             0x00000c70: 6d 65 6d 73: 
             0x00000c74: 65 74 2e 63: 
             0x00000c78: 00 6d 65 6d: 
             0x00000c7c: 73 65 74 2e: 
             0x00000c80: 6e 73 74 61: 
             0x00000c84: 63 6b 77 6f: 
             0x00000c88: 72 64 73 00: 
             0x00000c8c: 6d 65 6d 73: 
             0x00000c90: 65 74 2e 6d: 
             0x00000c94: 61 78 74 68: 
             0x00000c98: 72 65 61 64: 
             0x00000c9c: 73 00 6d 65: 
             0x00000ca0: 6d 73 65 74: 
             0x00000ca4: 2e 6d 61 78: 
             0x00000ca8: 74 69 6d 65: 
             0x00000cac: 72 73 00 6d: 
             0x00000cb0: 65 6d 73 65: 
             0x00000cb4: 74 2e 6d 61: 
             0x00000cb8: 78 63 68 61: 
             0x00000cbc: 6e 65 6e 64: 
             0x00000cc0: 73 00 6d 65: 
             0x00000cc4: 6d 73 65 74: 
             0x00000cc8: 2e 6c 6f 63: 
             0x00000ccc: 6e 6f 63 68: 
             0x00000cd0: 61 6e 64 65: 
             0x00000cd4: 63 00 6d 65: 
             0x00000cd8: 6d 73 65 74: 
             0x00000cdc: 2e 6c 6f 63: 
             0x00000ce0: 6e 6f 73 69: 
             0x00000ce4: 64 65 00 2e: 
             0x00000ce8: 2e 2f 2e 2e: 
             0x00000cec: 2f 2e 2e 2f: 
             0x00000cf0: 2e 2e 2f 2e: 
             0x00000cf4: 2e 2f 73 72: 
             0x00000cf8: 63 2f 6e 65: 
             0x00000cfc: 77 6c 69 62: 
             0x00000d00: 2f 6c 69 62: 
             0x00000d04: 63 2f 73 74: 
             0x00000d08: 64 6c 69 62: 
             0x00000d0c: 2f 72 61 6e: 
             0x00000d10: 64 2e 63 00: 
             0x00000d14: 73 79 73 63: 
             0x00000d18: 61 6c 6c 2e: 
             0x00000d1c: 53 00 2e 2e: 
             0x00000d20: 2f 2e 2e 2f: 
             0x00000d24: 2e 2e 2f 2e: 
             0x00000d28: 2e 2f 2e 2e: 
             0x00000d2c: 2f 2e 2e 2f: 
             0x00000d30: 73 72 63 2f: 
             0x00000d34: 6e 65 77 6c: 
             0x00000d38: 69 62 2f 6c: 
             0x00000d3c: 69 62 63 2f: 
             0x00000d40: 6d 61 63 68: 
             0x00000d44: 69 6e 65 2f: 
             0x00000d48: 78 63 6f 72: 
             0x00000d4c: 65 2f 5f 5f: 
             0x00000d50: 63 61 6c 6c: 
             0x00000d54: 5f 61 74 65: 
             0x00000d58: 78 69 74 2e: 
             0x00000d5c: 63 00 5f 5f: 
             0x00000d60: 63 61 6c 6c: 
             0x00000d64: 5f 65 78 69: 
             0x00000d68: 74 70 72 6f: 
             0x00000d6c: 63 73 5f 69: 
             0x00000d70: 6d 70 6c 00: 
             0x00000d74: 5f 5f 63 61: 
             0x00000d78: 6c 6c 5f 65: 
             0x00000d7c: 78 69 74 70: 
             0x00000d80: 72 6f 63 73: 
             0x00000d84: 5f 69 6d 70: 
             0x00000d88: 6c 2e 6e 73: 
             0x00000d8c: 74 61 63 6b: 
             0x00000d90: 77 6f 72 64: 
             0x00000d94: 73 00 5f 5f: 
             0x00000d98: 63 61 6c 6c: 
             0x00000d9c: 5f 65 78 69: 
             0x00000da0: 74 70 72 6f: 
             0x00000da4: 63 73 5f 69: 
             0x00000da8: 6d 70 6c 2e: 
             0x00000dac: 6d 61 78 74: 
             0x00000db0: 68 72 65 61: 
             0x00000db4: 64 73 00 5f: 
             0x00000db8: 5f 63 61 6c: 
             0x00000dbc: 6c 5f 65 78: 
             0x00000dc0: 69 74 70 72: 
             0x00000dc4: 6f 63 73 5f: 
             0x00000dc8: 69 6d 70 6c: 
             0x00000dcc: 2e 6d 61 78: 
             0x00000dd0: 74 69 6d 65: 
             0x00000dd4: 72 73 00 5f: 
             0x00000dd8: 5f 63 61 6c: 
             0x00000ddc: 6c 5f 65 78: 
             0x00000de0: 69 74 70 72: 
             0x00000de4: 6f 63 73 5f: 
             0x00000de8: 69 6d 70 6c: 
             0x00000dec: 2e 6d 61 78: 
             0x00000df0: 63 68 61 6e: 
             0x00000df4: 65 6e 64 73: 
             0x00000df8: 00 5f 5f 63: 
             0x00000dfc: 61 6c 6c 5f: 
             0x00000e00: 65 78 69 74: 
             0x00000e04: 70 72 6f 63: 
             0x00000e08: 73 5f 69 6d: 
             0x00000e0c: 70 6c 2e 6c: 
             0x00000e10: 6f 63 6e 6f: 
             0x00000e14: 63 68 61 6e: 
             0x00000e18: 64 65 63 00: 
             0x00000e1c: 5f 5f 63 61: 
             0x00000e20: 6c 6c 5f 65: 
             0x00000e24: 78 69 74 70: 
             0x00000e28: 72 6f 63 73: 
             0x00000e2c: 5f 69 6d 70: 
             0x00000e30: 6c 2e 6c 6f: 
             0x00000e34: 63 6e 6f 73: 
             0x00000e38: 69 64 65 00: 
             0x00000e3c: 5f 5f 63 61: 
             0x00000e40: 6c 6c 5f 65: 
             0x00000e44: 78 69 74 70: 
             0x00000e48: 72 6f 63 73: 
             0x00000e4c: 2e 6c 6f 63: 
             0x00000e50: 6e 6f 63 68: 
             0x00000e54: 61 6e 64 65: 
             0x00000e58: 63 00 5f 5f: 
             0x00000e5c: 63 61 6c 6c: 
             0x00000e60: 5f 65 78 69: 
             0x00000e64: 74 70 72 6f: 
             0x00000e68: 63 73 2e 6c: 
             0x00000e6c: 6f 63 6e 6f: 
             0x00000e70: 73 69 64 65: 
             0x00000e74: 00 2e 2e 2f: 
             0x00000e78: 2e 2e 2f 2e: 
             0x00000e7c: 2e 2f 2e 2e: 
             0x00000e80: 2f 2e 2e 2f: 
             0x00000e84: 2e 2e 2f 73: 
             0x00000e88: 72 63 2f 6e: 
             0x00000e8c: 65 77 6c 69: 
             0x00000e90: 62 2f 6c 69: 
             0x00000e94: 62 63 2f 73: 
             0x00000e98: 79 73 2f 78: 
             0x00000e9c: 63 6f 72 65: 
             0x00000ea0: 2f 6c 6f 63: 
             0x00000ea4: 6b 2e 63 00: 
             0x00000ea8: 5f 5f 61 6c: 
             0x00000eac: 6c 6f 63 5f: 
             0x00000eb0: 6c 69 62 63: 
             0x00000eb4: 5f 68 77 6c: 
             0x00000eb8: 6f 63 6b 2e: 
             0x00000ebc: 6e 73 74 61: 
             0x00000ec0: 63 6b 77 6f: 
             0x00000ec4: 72 64 73 00: 
             0x00000ec8: 5f 5f 61 6c: 
             0x00000ecc: 6c 6f 63 5f: 
             0x00000ed0: 6c 69 62 63: 
             0x00000ed4: 5f 68 77 6c: 
             0x00000ed8: 6f 63 6b 2e: 
             0x00000edc: 6d 61 78 74: 
             0x00000ee0: 68 72 65 61: 
             0x00000ee4: 64 73 00 5f: 
             0x00000ee8: 5f 61 6c 6c: 
             0x00000eec: 6f 63 5f 6c: 
             0x00000ef0: 69 62 63 5f: 
             0x00000ef4: 68 77 6c 6f: 
             0x00000ef8: 63 6b 2e 6d: 
             0x00000efc: 61 78 74 69: 
             0x00000f00: 6d 65 72 73: 
             0x00000f04: 00 5f 5f 61: 
             0x00000f08: 6c 6c 6f 63: 
             0x00000f0c: 5f 6c 69 62: 
             0x00000f10: 63 5f 68 77: 
             0x00000f14: 6c 6f 63 6b: 
             0x00000f18: 2e 6d 61 78: 
             0x00000f1c: 63 68 61 6e: 
             0x00000f20: 65 6e 64 73: 
             0x00000f24: 00 5f 5f 61: 
             0x00000f28: 6c 6c 6f 63: 
             0x00000f2c: 5f 6c 69 62: 
             0x00000f30: 63 5f 68 77: 
             0x00000f34: 6c 6f 63 6b: 
             0x00000f38: 2e 6c 6f 63: 
             0x00000f3c: 6e 6f 63 68: 
             0x00000f40: 61 6e 64 65: 
             0x00000f44: 63 00 5f 5f: 
             0x00000f48: 61 6c 6c 6f: 
             0x00000f4c: 63 5f 6c 69: 
             0x00000f50: 62 63 5f 68: 
             0x00000f54: 77 6c 6f 63: 
             0x00000f58: 6b 2e 6c 6f: 
             0x00000f5c: 63 6e 6f 73: 
             0x00000f60: 69 64 65 00: 
             0x00000f64: 5f 5f 6c 69: 
             0x00000f68: 62 63 5f 68: 
             0x00000f6c: 77 6c 6f 63: 
             0x00000f70: 6b 00 2e 2e: 
             0x00000f74: 2f 2e 2e 2f: 
             0x00000f78: 2e 2e 2f 2e: 
             0x00000f7c: 2e 2f 2e 2e: 
             0x00000f80: 2f 2e 2e 2f: 
             0x00000f84: 73 72 63 2f: 
             0x00000f88: 6e 65 77 6c: 
             0x00000f8c: 69 62 2f 6c: 
             0x00000f90: 69 62 63 2f: 
             0x00000f94: 6d 61 63 68: 
             0x00000f98: 69 6e 65 2f: 
             0x00000f9c: 78 63 6f 72: 
             0x00000fa0: 65 2f 63 6c: 
             0x00000fa4: 65 61 6e 75: 
             0x00000fa8: 70 2e 63 00: 
             0x00000fac: 5f 63 6c 65: 
             0x00000fb0: 61 6e 75 70: 
             0x00000fb4: 5f 69 6d 70: 
             0x00000fb8: 6c 00 5f 63: 
             0x00000fbc: 6c 65 61 6e: 
             0x00000fc0: 75 70 5f 69: 
             0x00000fc4: 6d 70 6c 2e: 
             0x00000fc8: 6e 73 74 61: 
             0x00000fcc: 63 6b 77 6f: 
             0x00000fd0: 72 64 73 00: 
             0x00000fd4: 5f 63 6c 65: 
             0x00000fd8: 61 6e 75 70: 
             0x00000fdc: 5f 69 6d 70: 
             0x00000fe0: 6c 2e 6d 61: 
             0x00000fe4: 78 74 68 72: 
             0x00000fe8: 65 61 64 73: 
             0x00000fec: 00 5f 63 6c: 
             0x00000ff0: 65 61 6e 75: 
             0x00000ff4: 70 5f 69 6d: 
             0x00000ff8: 70 6c 2e 6d: 
             0x00000ffc: 61 78 74 69: 
             0x00001000: 6d 65 72 73: 
             0x00001004: 00 5f 63 6c: 
             0x00001008: 65 61 6e 75: 
             0x0000100c: 70 5f 69 6d: 
             0x00001010: 70 6c 2e 6d: 
             0x00001014: 61 78 63 68: 
             0x00001018: 61 6e 65 6e: 
             0x0000101c: 64 73 00 5f: 
             0x00001020: 63 6c 65 61: 
             0x00001024: 6e 75 70 5f: 
             0x00001028: 69 6d 70 6c: 
             0x0000102c: 2e 6c 6f 63: 
             0x00001030: 6e 6f 63 68: 
             0x00001034: 61 6e 64 65: 
             0x00001038: 63 00 5f 63: 
             0x0000103c: 6c 65 61 6e: 
             0x00001040: 75 70 5f 69: 
             0x00001044: 6d 70 6c 2e: 
             0x00001048: 6c 6f 63 6e: 
             0x0000104c: 6f 73 69 64: 
             0x00001050: 65 00 5f 63: 
             0x00001054: 6c 65 61 6e: 
             0x00001058: 75 70 2e 6c: 
             0x0000105c: 6f 63 6e 6f: 
             0x00001060: 63 68 61 6e: 
             0x00001064: 64 65 63 00: 
             0x00001068: 5f 63 6c 65: 
             0x0000106c: 61 6e 75 70: 
             0x00001070: 2e 6c 6f 63: 
             0x00001074: 6e 6f 73 69: 
             0x00001078: 64 65 00 64: 
             0x0000107c: 6f 6e 65 2e: 
             0x00001080: 53 00 5f 64: 
             0x00001084: 6f 6e 65 2e: 
             0x00001088: 6c 6f 63 6e: 
             0x0000108c: 6f 63 68 61: 
             0x00001090: 6e 64 65 63: 
             0x00001094: 00 63 72 74: 
             0x00001098: 65 6e 64 2e: 
             0x0000109c: 73 00 63 74: 
             0x000010a0: 6f 72 5f 6c: 
             0x000010a4: 69 73 74 5f: 
             0x000010a8: 70 74 72 00: 
             0x000010ac: 63 74 6f 72: 
             0x000010b0: 73 5f 73 69: 
             0x000010b4: 7a 65 00 5f: 
             0x000010b8: 43 54 4f 52: 
             0x000010bc: 5f 45 4e 44: 
             0x000010c0: 5f 00 64 6f: 
             0x000010c4: 5f 63 74 6f: 
             0x000010c8: 72 73 5f 6c: 
             0x000010cc: 6f 6f 70 00: 
             0x000010d0: 64 6f 5f 63: 
             0x000010d4: 74 6f 72 73: 
             0x000010d8: 5f 65 6e 64: 
             0x000010dc: 00 5f 5f 65: 
             0x000010e0: 68 5f 6f 62: 
             0x000010e4: 6a 65 63 74: 
             0x000010e8: 00 5f 5f 45: 
             0x000010ec: 48 5f 46 52: 
             0x000010f0: 41 4d 45 5f: 
             0x000010f4: 45 4e 44 5f: 
             0x000010f8: 5f 00 63 72: 
             0x000010fc: 74 6e 2e 73: 
             0x00001100: 00 2e 72 61: 
             0x00001104: 6d 5f 62 61: 
             0x00001108: 73 65 00 2e: 
             0x0000110c: 43 50 4d 30: 
             0x00001110: 00 2e 43 50: 
             0x00001114: 4d 31 00 2e: 
             0x00001118: 43 50 4d 32: 
             0x0000111c: 00 2e 43 50: 
             0x00001120: 4d 33 00 2e: 
             0x00001124: 43 50 4d 34: 
             0x00001128: 00 2e 78 6d: 
             0x0000112c: 6f 73 6e 6f: 
             0x00001130: 74 65 00 66: 
             0x00001134: 7b 30 7d 28: 
             0x00001138: 30 29 00 66: 
             0x0000113c: 7b 73 69 7d: 
             0x00001140: 28 30 29 00: 
             0x00001144: 66 7b 30 7d: 
             0x00001148: 28 73 69 29: 
             0x0000114c: 00 66 7b 70: 
             0x00001150: 28 30 29 7d: 
             0x00001154: 28 70 28 30: 
             0x00001158: 29 2c 73 69: 
             0x0000115c: 2c 75 69 29: 
             0x00001160: 00 61 28 34: 
             0x00001164: 3a 63 72 29: 
             0x00001168: 00 66 7b 30: 
             0x0000116c: 7d 28 73 69: 
             0x00001170: 2c 70 28 30: 
             0x00001174: 29 29 00 75: 
             0x00001178: 69 00 2e 65: 
             0x0000117c: 78 70 72 00: 
             0x00001180: 2e 73 79 6d: 
             0x00001184: 74 61 62 00: 
             0x00001188: 2e 73 74 72: 
             0x0000118c: 74 61 62 00: 

Loadable 1 for stdcore[3] (node "0", core 3):

Disassembly of section section .text (size: 606)

<_start>:
             0x00010000: 4b 68:       ldc (ru6)       r1, 0xb
             0x00010002: d1 fe ec 17: get (l2r)       r0, ps[r1]
             0x00010006: 04 f0 8b 68: ldc (lru6)      r2, 0x10b
             0x0001000a: c2 fe ec 1f: set (lr2r)      ps[r2], r0
             0x0001000e: 4a d0:       bl (u10)        0x4a <_SetupTraps>
             0x00010010: 0f d0:       bl (u10)        0xf <_GetRamEnd>
             0x00010012: f0 2f:       set (1r)        sp, r0
             0x00010014: 01 f0 80 77: extsp (lu6)     0x40
             0x00010018: 00 f0 70 d9: ldap (lu10)     r11, 0x170 <.label0>
             0x0001001c: fb 37:       set (1r)        cp, r11
             0x0001001e: 00 f0 77 d9: ldap (lu10)     r11, 0x177 <.label1>
             0x00010022: eb 37:       set (1r)        dp, r11
             0x00010024: c3 86:       getr (rus)      r0, 0x3

<_InitThreadLoop>:
             0x00010026: d4 06:       getst (2r)      r1, res[r0]
             0x00010028: b4 b0:       eq (2rus)       r11, r1, 0x0
             0x0001002a: cc 72:       bt (ru6)        r11, 0xc <_Join>
             0x0001002c: 1f d0:       bl (u10)        0x1f <_InitThread>
             0x0001002e: 05 77:       bu (u6)         -0x5 <_InitThreadLoop>

<_GetRamEnd>:
             0x00010030: cb 6a:       ldc (ru6)       r11, 0xb
             0x00010032: bb ff ec 17: get (l2r)       r10, ps[r11]
             0x00010036: 00 f0 5f d9: ldap (lu10)     r11, 0x15f <.label2>
             0x0001003a: 3c 0a:       ldw (2rus)      r11, r11[0x0]
             0x0001003c: 0b 16:       add (3r)        r0, r10, r11
             0x0001003e: c0 77:       retsp (u6)      0x0

<_ExitWithError>:
             0x00010040: 02 f0 19 73: bu (lu6)        0x99 <_exit>

<_Join>:
             0x00010044: f0 1f:       msync (1r)      res[r0]
             0x00010046: f0 17:       mjoin (1r)      res[r0]
             0x00010048: e0 17:       freer (1r)      res[r0]
             0x0001004a: 1f d0:       bl (u10)        0x1f <_TouchRegisters>
             0x0001004c: 00 f0 07 d1: bl (lu10)       0x107 <.label3>
             0x00010050: 00 f0 c6 6a: ldc (lru6)      r11, 0x6
             0x00010054: c8 ea:       setc (ru6)      res[r11], 0x8
             0x00010056: cf ea:       setc (ru6)      res[r11], 0xf
             0x00010058: 00 68:       ldc (ru6)       r0, 0x0
             0x0001005a: 00 f0 40 60: ldaw (lru6)     r1, dp[0x0]
             0x0001005e: 00 f0 26 d0: bl (lu10)       0x26 <main>
             0x00010062: 02 70:       bt (ru6)        r0, 0x2 <_NonZeroReturn>
             0x00010064: 01 f0 3c 73: bu (lu6)        0x7c <__libc_done>

<_NonZeroReturn>:
             0x00010068: 02 f0 0b 73: bu (lu6)        0x8b <_exit_unlocked>

<_InitThread>:
             0x0001006c: 00 f0 46 d9: ldap (lu10)     r11, 0x146 <.label0>
             0x00010070: 4d 1f:       init (2r)       t[r1]:cp, r11
             0x00010072: 00 f0 4d d9: ldap (lu10)     r11, 0x14d <.label1>
             0x00010076: 4d 0f:       init (2r)       t[r1]:dp, r11
             0x00010078: 05 d8:       ldap (u10)      r11, 0x5 <_InitThreadRoutine>
             0x0001007a: 4d 07:       init (2r)       t[r1]:pc, r11
             0x0001007c: c0 77:       retsp (u6)      0x0
             0x0001007e: 00 90:       add (2rus)      r0, r0, 0x0

<_TrapHandler>:
             0x00010080: 01 f0 2c 73: bu (lu6)        0x6c <_DoException> <endOfStartup>

<_InitThreadRoutine>:
             0x00010084: 02 d0:       bl (u10)        0x2 <_TouchRegisters>
             0x00010086: 0e d0:       bl (u10)        0xe <_SetupTraps>
             0x00010088: ee 07:       ssync (0r)      

<_TouchRegisters>:
             0x0001008a: 00 68:       ldc (ru6)       r0, 0x0
             0x0001008c: 40 68:       ldc (ru6)       r1, 0x0
             0x0001008e: 80 68:       ldc (ru6)       r2, 0x0
             0x00010090: c0 68:       ldc (ru6)       r3, 0x0
             0x00010092: 00 69:       ldc (ru6)       r4, 0x0
             0x00010094: 40 69:       ldc (ru6)       r5, 0x0
             0x00010096: 80 69:       ldc (ru6)       r6, 0x0
             0x00010098: c0 69:       ldc (ru6)       r7, 0x0
             0x0001009a: 00 6a:       ldc (ru6)       r8, 0x0
             0x0001009c: 40 6a:       ldc (ru6)       r9, 0x0
             0x0001009e: 80 6a:       ldc (ru6)       r10, 0x0
             0x000100a0: c0 6a:       ldc (ru6)       r11, 0x0
             0x000100a2: c0 77:       retsp (u6)      0x0

<_SetupTraps>:
             0x000100a4: 13 dc:       ldap (u10)      r11, -0x13 <_TrapHandler>
             0x000100a6: ff 07:       set (0r)        kep, r11
             0x000100a8: c0 77:       retsp (u6)      0x0

<__register_frame_info_bases>:
<__free_libc_hwlock>:
.label22     0x000100aa: c0 77:       retsp (u6)      0x0

<__mcmain000003>:
             0x000100ac: c0 77:       retsp (u6)      0x0

<main>:
             0x000100ae: 42 77:       entsp (u6)      0x2

<getAllChannels>:
             0x000100b0: c2 86:       getr (rus)      r0, 0x2
             0x000100b2: 02 74:       bt (ru6)        r0, -0x2 <getAllChannels>
             0x000100b4: 9f 68:       ldc (ru6)       r2, 0x1f
             0x000100b6: c1 68:       ldc (ru6)       r3, 0x1
             0x000100b8: 04 f0 40 68: ldc (lru6)      r1, 0x100
             0x000100bc: 00 f0 00 6c: ldw (lru6)      r0, cp[0x0]
             0x000100c0: 01 10:       add (3r)        r0, r0, r1

<freeAllChannels>:
             0x000100c2: e0 17:       freer (1r)      res[r0]

<skipFree>:
             0x000100c4: 01 10:       add (3r)        r0, r0, r1
             0x000100c6: 4e 30:       eq (3r)         r4, r3, r2
             0x000100c8: 3d 90:       add (2rus)      r3, r3, 0x1
             0x000100ca: 05 7d:       bf (ru6)        r4, -0x5 <freeAllChannels>
             0x000100cc: 83 68:       ldc (ru6)       r2, 0x3
             0x000100ce: c6 86:       getr (rus)      r1, 0x2
             0x000100d0: 1b d0:       bl (u10)        0x1b <waitForScratch>
             0x000100d2: 00 f0 00 6c: ldw (lru6)      r0, cp[0x0]

<receiveEnd>:
             0x000100d6: c4 b6:       in (2r)         r1, res[r0]
             0x000100d8: d1 ce:       chkct (rus)     res[r0], 0x1
             0x000100da: d4 16:       setd (r2r)      res[r0], r1
             0x000100dc: c0 ae:       out (r2r)       res[r0], r0
             0x000100de: d1 4e:       outct (rus)     res[r0], 0x1

<waitForZero>:
             0x000100e0: c4 b6:       in (2r)         r1, res[r0]
             0x000100e2: d1 ce:       chkct (rus)     res[r0], 0x1
             0x000100e4: 43 74:       bt (ru6)        r1, -0x3 <waitForZero>

<noChans>:
             0x000100e6: c0 ae:       out (r2r)       res[r0], r0
             0x000100e8: d1 4e:       outct (rus)     res[r0], 0x1
             0x000100ea: e0 17:       freer (1r)      res[r0]
             0x000100ec: 00 f0 22 d4: bl (lu10)       -0x22 <__mcmain000003>
             0x000100f0: 00 73:       bu (u6)         0x0 <returnToCRT>

<returnToCRT>:
             0x000100f2: 00 68:       ldc (ru6)       r0, 0x0
             0x000100f4: c2 77:       retsp (u6)      0x2

<buildRegArg>:
             0x000100f6: bc 09:       ldw (2rus)      r3, r11[0x0]
             0x000100f8: 3d fa ec 9f: ldaw (l2rus)    r11, r11[0x1]
             0x000100fc: df 3a:       and (3r)        r9, r3, r7
             0x000100fe: 43 7a:       bf (ru6)        r9, 0x3 <hasEndReg>
             0x00010100: 8f 2f:       andnot (2r)     r3, r7
             0x00010102: 2c 45:       or (3r)         r10, r3, r8
             0x00010104: 5b 17:       setd (r2r)      res[r3], r10

<hasEndReg>:
             0x00010106: c0 77:       retsp (u6)      0x0

<waitForScratch>:
             0x00010108: 83 69:       ldc (ru6)       r6, 0x3
             0x0001010a: 0c f3 cc 69: ldc (lru6)      r7, 0xc30c
             0x0001010e: 36 ad:       shr (2rus)      r11, r1, 0x18
             0x00010110: be a6:       shl (2rus)      r11, r11, 0x18
             0x00010112: bf 45:       or (3r)         r7, r7, r11
             0x00010114: 1d 17:       setd (r2r)      res[r1], r7
             0x00010116: b4 ac:       shr (2rus)      r3, r1, 0x8
             0x00010118: 03 f0 c1 6a: ldc (lru6)      r11, 0xc1

<waitForScratchTop>:
             0x0001011c: 27 4f:       outct (2r)      res[r1], r11
             0x0001011e: fd ac:       shr (2rus)      r7, r3, 0x10
             0x00010120: 1d 0f:       outt (r2r)      res[r1], r7
             0x00010122: fc ac:       shr (2rus)      r7, r3, 0x8
             0x00010124: 1d 0f:       outt (r2r)      res[r1], r7
             0x00010126: dd 0e:       outt (r2r)      res[r1], r3
             0x00010128: b8 ad:       shr (2rus)      r7, r6, 0x8
             0x0001012a: 1d 0f:       outt (r2r)      res[r1], r7
             0x0001012c: 19 0f:       outt (r2r)      res[r1], r6
             0x0001012e: d5 4e:       outct (rus)     res[r1], 0x1
             0x00010130: d7 ce:       chkct (rus)     res[r1], 0x3
             0x00010132: 45 b7:       in (2r)         r9, res[r1]
             0x00010134: d5 ce:       chkct (rus)     res[r1], 0x1
             0x00010136: 26 32:       eq (3r)         r10, r9, r2
             0x00010138: 8f 7e:       bf (ru6)        r10, -0xf <waitForScratchTop>

<writeToScratch>:
             0x0001013a: 03 f0 c0 6a: ldc (lru6)      r11, 0xc0
             0x0001013e: 27 4f:       outct (2r)      res[r1], r11
             0x00010140: cd ac:       shr (2rus)      r4, r3, 0x10
             0x00010142: 11 0f:       outt (r2r)      res[r1], r4
             0x00010144: cc ac:       shr (2rus)      r4, r3, 0x8
             0x00010146: 11 0f:       outt (r2r)      res[r1], r4
             0x00010148: dd 0e:       outt (r2r)      res[r1], r3
             0x0001014a: 1d 0f:       outt (r2r)      res[r1], r7
             0x0001014c: 19 0f:       outt (r2r)      res[r1], r6
             0x0001014e: 29 90:       add (2rus)      r2, r2, 0x1
             0x00010150: c9 ae:       out (r2r)       res[r1], r2
             0x00010152: d5 4e:       outct (rus)     res[r1], 0x1
             0x00010154: d7 ce:       chkct (rus)     res[r1], 0x3
             0x00010156: d5 ce:       chkct (rus)     res[r1], 0x1
             0x00010158: e1 17:       freer (1r)      res[r1]
             0x0001015a: c0 77:       retsp (u6)      0x0

<_DoException>:
<endOfStartup>:
             0x0001015c: ed 07:       clre (0r)       
             0x0001015e: ec 07:       waiteu (0r)     

<__libc_done>:
             0x00010160: 41 77:       entsp (u6)      0x1
             0x00010162: 00 68:       ldc (ru6)       r0, 0x0
             0x00010164: 10 90:       add (2rus)      r1, r0, 0x0
             0x00010166: 00 f0 69 d0: bl (lu10)       0x69 <__call_exitprocs>
             0x0001016a: 00 f0 6f d0: bl (lu10)       0x6f <_cleanup>
             0x0001016e: 00 f0 a4 d0: bl (lu10)       0xa4 <.label4>
             0x00010172: 00 f0 6f d0: bl (lu10)       0x6f <_done>

<_exit>:
             0x00010176: 10 90:       add (2rus)      r1, r0, 0x0
             0x00010178: 00 68:       ldc (ru6)       r0, 0x0
             0x0001017a: 00 f0 5d d0: bl (lu10)       0x5d <_DoSyscall>
             0x0001017e: ed 07:       clre (0r)       
             0x00010180: ec 07:       waiteu (0r)     

<_exit_unlocked>:
             0x00010182: 42 77:       entsp (u6)      0x2
             0x00010184: 01 55:       stw (ru6)       r4, sp[0x1]
             0x00010186: 40 90:       add (2rus)      r4, r0, 0x0
             0x00010188: 40 68:       ldc (ru6)       r1, 0x0
             0x0001018a: 00 f0 57 d0: bl (lu10)       0x57 <__call_exitprocs>
             0x0001018e: 00 f0 5d d0: bl (lu10)       0x5d <_cleanup>
             0x00010192: 00 f0 92 d0: bl (lu10)       0x92 <.label4>
             0x00010196: c0 90:       add (2rus)      r0, r4, 0x0
             0x00010198: 00 f0 13 d4: bl (lu10)       -0x13 <_exit>

<memset>:
.label17     0x0001019c: 45 77:       entsp (u6)      0x5
             0x0001019e: 04 55:       stw (ru6)       r4, sp[0x4]
             0x000101a0: 43 55:       stw (ru6)       r5, sp[0x3]
             0x000101a2: 82 55:       stw (ru6)       r6, sp[0x2]
             0x000101a4: c1 55:       stw (ru6)       r7, sp[0x1]
             0x000101a6: 00 56:       stw (ru6)       r8, sp[0x0]
             0x000101a8: 34 90:       add (2rus)      r3, r1, 0x0
             0x000101aa: 3c 47:       zext (rus)      r3, 0x8
             0x000101ac: c0 6a:       ldc (ru6)       r11, 0x0
             0x000101ae: 00 69:       ldc (ru6)       r4, 0x0
             0x000101b0: dc 91:       add (2rus)      r5, r11, 0x0
             0x000101b2: 06 73:       bu (u6)         0x6 <.label5>
.label7      0x000101b4: 36 31:       eq (3r)         r7, r5, r2
             0x000101b6: fa 71:       bt (ru6)        r7, 0x3a <.label6>
             0x000101b8: 18 fb ec 8f: st8 (l3r)       r1, r6[r4]
             0x000101bc: 3d 9a:       sub (2rus)      r11, r11, 0x1
             0x000101be: 15 91:       add (2rus)      r5, r5, 0x1
.label5      0x000101c0: a1 12:       add (3r)        r6, r0, r5
             0x000101c2: 38 91:       add (2rus)      r7, r6, 0x0
             0x000101c4: 1e 47:       zext (rus)      r7, 0x2
             0x000101c6: ca 75:       bt (ru6)        r7, -0xa <.label7>
             0x000101c8: cb 14:       add (3r)        r4, r2, r11
             0x000101ca: 1a a7:       mkmsk (rus)     r6, 0x2
             0x000101cc: 48 cb:       lsu (3r)        r4, r6, r4
             0x000101ce: 25 79:       bf (ru6)        r4, 0x25 <.label8>
             0x000101d0: cc a4:       shl (2rus)      r4, r3, 0x8
             0x000101d2: f3 40:       or (3r)         r3, r4, r3
             0x000101d4: cd a4:       shl (2rus)      r4, r3, 0x10
             0x000101d6: 03 41:       or (3r)         r4, r4, r3
             0x000101d8: bb 14:       add (3r)        r3, r2, r11
             0x000101da: 90 69:       ldc (ru6)       r6, 0x10
             0x000101dc: 7e ca:       lsu (3r)        r3, r3, r6
             0x000101de: 91 12:       add (3r)        r5, r0, r5
             0x000101e0: d1 70:       bt (ru6)        r3, 0x11 <.label9>
             0x000101e2: 80 69:       ldc (ru6)       r6, 0x0
             0x000101e4: dc a7:       mkmsk (rus)     r7, 0x4
.label10     0x000101e6: 04 01:       stw (2rus)      r4, r5[0x0]
             0x000101e8: 05 01:       stw (2rus)      r4, r5[0x1]
             0x000101ea: 06 01:       stw (2rus)      r4, r5[0x2]
             0x000101ec: 07 01:       stw (2rus)      r4, r5[0x3]
             0x000101ee: bb 14:       add (3r)        r3, r2, r11
             0x000101f0: fb 10:       add (3r)        r3, r6, r3
             0x000101f2: 7c fa ec a7: ldaw (l2rus)    r3, r3[-0x4]
             0x000101f6: 4f c9:       lsu (3r)        r8, r7, r3
             0x000101f8: 68 fb ec a7: ldaw (l2rus)    r6, r6[-0x4]
             0x000101fc: 54 fb ec 9f: ldaw (l2rus)    r5, r5[0x4]
             0x00010200: 0e 76:       bt (ru6)        r8, -0xe <.label10>
             0x00010202: 01 73:       bu (u6)         0x1 <.label11>
.label9      0x00010204: bb 14:       add (3r)        r3, r2, r11
.label11     0x00010206: da a6:       mkmsk (rus)     r2, 0x2
             0x00010208: 2b c8:       lsu (3r)        r2, r2, r3
             0x0001020a: 89 78:       bf (ru6)        r2, 0x9 <.label12>
             0x0001020c: da a6:       mkmsk (rus)     r2, 0x2
.label13     0x0001020e: 04 01:       stw (2rus)      r4, r5[0x0]
             0x00010210: 7c 9a:       sub (2rus)      r3, r3, 0x4
             0x00010212: bb c8:       lsu (3r)        r11, r2, r3
             0x00010214: 54 93:       add (2rus)      r5, r5, 0x4
             0x00010216: c5 76:       bt (ru6)        r11, -0x5 <.label13>
             0x00010218: 02 73:       bu (u6)         0x2 <.label12>
.label8      0x0001021a: bb 14:       add (3r)        r3, r2, r11
             0x0001021c: 91 12:       add (3r)        r5, r0, r5
.label12     0x0001021e: c6 78:       bf (ru6)        r3, 0x6 <.label6>
             0x00010220: 80 68:       ldc (ru6)       r2, 0x0
.label14     0x00010222: d6 f8 ec 8f: st8 (l3r)       r1, r5[r2]
             0x00010226: 29 90:       add (2rus)      r2, r2, 0x1
             0x00010228: bb 30:       eq (3r)         r11, r2, r3
             0x0001022a: c5 7e:       bf (ru6)        r11, -0x5 <.label14>
.label6      0x0001022c: 00 5e:       ldw (ru6)       r8, sp[0x0]
             0x0001022e: c1 5d:       ldw (ru6)       r7, sp[0x1]
             0x00010230: 82 5d:       ldw (ru6)       r6, sp[0x2]
             0x00010232: 43 5d:       ldw (ru6)       r5, sp[0x3]
             0x00010234: 04 5d:       ldw (ru6)       r4, sp[0x4]
             0x00010236: c5 77:       retsp (u6)      0x5

<_DoSyscall>:
             0x00010238: d0 a6:       mkmsk (rus)     r0, 0x20
             0x0001023a: c0 77:       retsp (u6)      0x0

<__call_exitprocs>:
             0x0001023c: 41 77:       entsp (u6)      0x1
             0x0001023e: 00 f0 59 d0: bl (lu10)       0x59 <.label15>
             0x00010242: c1 77:       retsp (u6)      0x1

<__alloc_libc_hwlock>:
.label20     0x00010244: 81 87:       getr (rus)      r0, 0x5
             0x00010246: 00 f0 06 50: stw (lru6)      r0, dp[0x6]
             0x0001024a: c0 77:       retsp (u6)      0x0

<_cleanup>:
             0x0001024c: 41 77:       entsp (u6)      0x1
             0x0001024e: 00 f0 52 d0: bl (lu10)       0x52 <.label16>
             0x00010252: c1 77:       retsp (u6)      0x1

<_done>:
             0x00010254: 07 68:       ldc (ru6)       r0, 0x7
             0x00010256: 00 f0 11 d4: bl (lu10)       -0x11 <_DoSyscall>
             0x0001025a: ed 07:       clre (0r)       
             0x0001025c: ec 07:       waiteu (0r)     

Disassembly of section section .init (size: 92)

<_init>:
.label3      0x0001025e: 41 77:       entsp (u6)      0x1
             0x00010260: 00 f0 56 d8: ldap (lu10)     r11, 0x56 <.label1>
             0x00010264: 8c 91:       add (2rus)      r0, r11, 0x0
             0x00010266: 40 68:       ldc (ru6)       r1, 0x0
             0x00010268: 00 f0 52 d8: ldap (lu10)     r11, 0x52 <.label1>
             0x0001026c: ac 19:       sub (3r)        r2, r11, r0
             0x0001026e: 00 f0 6b d4: bl (lu10)       -0x6b <.label17>
             0x00010272: 00 f0 59 d8: ldap (lu10)     r11, 0x59 <.label18>
             0x00010276: 8c 91:       add (2rus)      r0, r11, 0x0
             0x00010278: 40 68:       ldc (ru6)       r1, 0x0
             0x0001027a: 00 f0 65 d8: ldap (lu10)     r11, 0x65 <.label19>
             0x0001027e: ac 19:       sub (3r)        r2, r11, r0
             0x00010280: 00 f0 74 d4: bl (lu10)       -0x74 <.label17>
             0x00010284: 00 f0 22 d4: bl (lu10)       -0x22 <.label20>
             0x00010288: 00 f0 4c d8: ldap (lu10)     r11, 0x4c <.label21>
             0x0001028c: 8c 91:       add (2rus)      r0, r11, 0x0
             0x0001028e: 00 f0 47 60: ldaw (lru6)     r1, dp[0x7]
             0x00010292: 80 68:       ldc (ru6)       r2, 0x0
             0x00010294: c0 68:       ldc (ru6)       r3, 0x0
             0x00010296: 00 f0 f8 d4: bl (lu10)       -0xf8 <.label22>
             0x0001029a: 00 f0 04 59: ldw (lru6)      r4, dp[0x4]
             0x0001029e: 02 a9:       shr (2rus)      r4, r4, 0x2
             0x000102a0: 0b 79:       bf (ru6)        r4, 0xb <do_ctors_end>
             0x000102a2: 00 f0 35 d8: ldap (lu10)     r11, 0x35 <.label1>
             0x000102a6: dc 91:       add (2rus)      r5, r11, 0x0
             0x000102a8: 00 f0 83 59: ldw (lru6)      r6, dp[0x3]
             0x000102ac: 66 1b:       sub (3r)        r6, r5, r6

<do_ctors_loop>:
             0x000102ae: 01 99:       sub (2rus)      r4, r4, 0x1
             0x000102b0: 04 4b:       ldw (3r)        r0, r5[r4]
             0x000102b2: 42 12:       add (3r)        r0, r0, r6
             0x000102b4: e0 27:       bla (1r)        r0
             0x000102b6: 05 75:       bt (ru6)        r4, -0x5 <do_ctors_loop>

<do_ctors_end>:
             0x000102b8: c1 77:       retsp (u6)      0x1

Disassembly of section section .fini (size: 58)

<_fini>:
.label4      0x000102ba: 41 77:       entsp (u6)      0x1
             0x000102bc: 85 77:       extsp (u6)      0x5
             0x000102be: 01 55:       stw (ru6)       r4, sp[0x1]
             0x000102c0: 42 55:       stw (ru6)       r5, sp[0x2]
             0x000102c2: 83 55:       stw (ru6)       r6, sp[0x3]
             0x000102c4: c4 55:       stw (ru6)       r7, sp[0x4]
             0x000102c6: 00 f0 c2 59: ldw (lru6)      r7, dp[0x2]
             0x000102ca: 3e a9:       shr (2rus)      r7, r7, 0x2
             0x000102cc: cd 79:       bf (ru6)        r7, 0xd <do_dtors_end>
             0x000102ce: 00 69:       ldc (ru6)       r4, 0x0
             0x000102d0: 00 f0 1e d8: ldap (lu10)     r11, 0x1e <.label1>
             0x000102d4: dc 91:       add (2rus)      r5, r11, 0x0
             0x000102d6: 00 f0 81 59: ldw (lru6)      r6, dp[0x1]
             0x000102da: 66 1b:       sub (3r)        r6, r5, r6

<do_dtors_loop>:
             0x000102dc: 04 4b:       ldw (3r)        r0, r5[r4]
             0x000102de: 42 12:       add (3r)        r0, r0, r6
             0x000102e0: e0 27:       bla (1r)        r0
             0x000102e2: 01 91:       add (2rus)      r4, r4, 0x1
             0x000102e4: b3 cb:       lsu (3r)        r11, r4, r7
             0x000102e6: c6 76:       bt (ru6)        r11, -0x6 <do_dtors_loop>

<do_dtors_end>:
             0x000102e8: 01 5d:       ldw (ru6)       r4, sp[0x1]
             0x000102ea: 42 5d:       ldw (ru6)       r5, sp[0x2]
             0x000102ec: 83 5d:       ldw (ru6)       r6, sp[0x3]
             0x000102ee: c4 5d:       ldw (ru6)       r7, sp[0x4]
             0x000102f0: 85 67:       ldaw (ru6)      sp, sp[0x5]
             0x000102f2: c1 77:       retsp (u6)      0x1

Disassembly of section section .gnu.linkonce.t.__call_exitprocs_impl (size: 2)

<__call_exitprocs_impl>:
.label15     0x000102f4: c0 77:       retsp (u6)      0x0

Disassembly of section section .gnu.linkonce.t._cleanup_impl (size: 2)

<_cleanup_impl>:
.label16     0x000102f6: c0 77:       retsp (u6)      0x0

Disassembly of section section .rodata (size: 4)

<_RamSize>:
.label2      0x000102f8: 00 00 01 00: 

Disassembly of section section .cp.const4 (size: 20)

<thisChanendZero>:
<.CPM0>:
.label0      0x000102fc: 02 00 03 00: 

<nextChanendZero>:
<.CPM1>:
             0x00010300: 02 00 00 00: 

<.CPM2>:
             0x00010304: 2d 7f 95 4c: 

<.CPM3>:
             0x00010308: 2d f4 51 58: 

<.CPM4>:
             0x0001030c: ff ff ff 7f: 

Disassembly of section section .dp.data (size: 20)

<_dp>:
<_NullPtr>:
.label1      0x00010310: 00 00 00 00: 

<dtor_list_ptr>:
             0x00010314: 10 03 01 00: 

<dtors_size>:
             0x00010318: 00 00 00 00: 

<ctor_list_ptr>:
             0x0001031c: 10 03 01 00: 

<ctors_size>:
             0x00010320: 00 00 00 00: 

Disassembly of section section .eh_frame (size: 4)

<__EH_FRAME_BEGIN__>:
<__EH_FRAME_END__>:
.label21     0x00010324: 00 00 00 00: 

Disassembly of section section .netinfo (size: 56)

             0x00000000: 5c a1 ab 1e: 
<main.parinfo.debugstring0>:
             0x00000004: 23 20 32 38: 
             0x00000008: 20 22 73 65: 
             0x0000000c: 6c 65 63 74: 
             0x00000010: 2e 78 63 22: 
             0x00000014: 00 23 20 32: 
             0x00000018: 36 20 22 73: 
             0x0000001c: 65 6c 65 63: 
             0x00000020: 74 2e 78 63: 
             0x00000024: 22 00 00 00: 
             0x00000028: 00 00 00 00: 
             0x0000002c: 00 00 00 00: 
             0x00000030: 00 00 00 00: 
             0x00000034: 00 00 00 00: 

Disassembly of section section .xtaendpointtable (size: 60)

             0x00000000: 3c 00 00 00: 
             0x00000004: 00 00 00 00: 
             0x00000008: 2f 55 73 65: 
             0x0000000c: 72 73 2f 76: 
             0x00000010: 6c 69 6f 6e: 
             0x00000014: 2f 44 6f 63: 
             0x00000018: 75 6d 65 6e: 
             0x0000001c: 74 73 2f 6d: 
             0x00000020: 61 73 74 65: 
             0x00000024: 72 73 2f 70: 
             0x00000028: 72 6f 67 72: 
             0x0000002c: 61 6d 73 5f: 
             0x00000030: 6f 66 5f 69: 
             0x00000034: 6e 74 65 72: 
             0x00000038: 65 73 74 00: 

Disassembly of section section .xtalabeltable (size: 142)

             0x00000000: 3c 00 00 00: 
             0x00000004: 00 00 00 00: 
             0x00000008: 2f 55 73 65: 
             0x0000000c: 72 73 2f 76: 
             0x00000010: 6c 69 6f 6e: 
             0x00000014: 2f 44 6f 63: 
             0x00000018: 75 6d 65 6e: 
             0x0000001c: 74 73 2f 6d: 
             0x00000020: 61 73 74 65: 
             0x00000024: 72 73 2f 70: 
             0x00000028: 72 6f 67 72: 
             0x0000002c: 61 6d 73 5f: 
             0x00000030: 6f 66 5f 69: 
             0x00000034: 6e 74 65 72: 
             0x00000038: 65 73 74 00: 
             0x0000003c: 52 00 00 00: 
             0x00000040: 00 00 00 00: 
             0x00000044: 2f 55 73 65: 
             0x00000048: 72 73 2f 76: 
             0x0000004c: 6c 69 6f 6e: 
             0x00000050: 2f 44 6f 63: 
             0x00000054: 75 6d 65 6e: 
             0x00000058: 74 73 2f 6d: 
             0x0000005c: 61 73 74 65: 
             0x00000060: 72 73 2f 70: 
             0x00000064: 72 6f 67 72: 
             0x00000068: 61 6d 73 5f: 
             0x0000006c: 6f 66 5f 69: 
             0x00000070: 6e 74 65 72: 
             0x00000074: 65 73 74 00: 
             0x00000078: 73 65 6c 65: 
             0x0000007c: 63 74 2e 78: 
             0x00000080: 63 00 1c 00: 
             0x00000084: 00 00 1c 00: 
             0x00000088: 00 00 ac 00: 
             0x0000008c: 01 00 00 00: 

Disassembly of section section .xtasystem (size: 46)

             0x00000000: 2e 00 00 00: 
             0x00000004: 00 00 00 00: 
             0x00000008: 64 69 72 00: 
             0x0000000c: 66 63 6c 6f: 
             0x00000010: 73 65 00 63: 
             0x00000014: 72 74 31 2e: 
             0x00000018: 73 00 00 00: 
             0x0000001c: 00 00 65 78: 
             0x00000020: 69 74 00 63: 
             0x00000024: 72 74 31 2e: 
             0x00000028: 73 00 00 00: 
             0x0000002c: 00 00 00 00: 

Disassembly of section section .xtathreadstart (size: 8)

             0x00000000: 00 00 01 00: 
             0x00000004: 84 00 01 00: 

Disassembly of section section .xtathreadstop (size: 16)

             0x00000000: 88 00 01 00: 
             0x00000004: 5e 01 01 00: 
             0x00000008: 80 01 01 00: 
             0x0000000c: 5c 02 01 00: 

Disassembly of section section .xmosnote (size: 20)

             0x00000000: 04 00 00 00: 
             0x00000004: 03 00 00 00: 
             0x00000008: 02 00 00 00: 
             0x0000000c: 58 4d 4f 53: 
             0x00000010: 58 53 31 00: 

Disassembly of section section .xmosnote (size: 20)

             0x00000000: 04 00 00 00: 
             0x00000004: 04 00 00 00: 
             0x00000008: 03 00 00 00: 
             0x0000000c: 58 4d 4f 53: 
             0x00000010: 52 45 56 42: 

Disassembly of section section .xmosnote (size: 36)

             0x00000000: 04 00 00 00: 
             0x00000004: 14 00 00 00: 
             0x00000008: 01 00 00 00: 
             0x0000000c: 58 4d 4f 53: 
             0x00000010: 31 31 2e 32: 
             0x00000014: 2e 32 20 28: 
             0x00000018: 62 75 69 6c: 
             0x0000001c: 64 20 31 39: 
             0x00000020: 38 31 29 00: 

Disassembly of section section .expr (size: 3260)

             0x00000000: 41 00 00 00: 
             0x00000004: 0c 00 00 00: 
             0x00000008: 11 00 00 00: 
             0x0000000c: 00 00 00 00: 
             0x00000010: 00 00 00 00: 
             0x00000014: 01 07 00 00: 
             0x00000018: 0e 00 00 00: 
             0x0000001c: 0d 00 00 00: 
             0x00000020: 00 00 00 00: 
             0x00000024: 00 00 00 00: 
             0x00000028: 01 03 00 00: 
             0x0000002c: 0f 00 00 00: 
             0x00000030: 12 00 00 00: 
             0x00000034: 00 00 00 00: 
             0x00000038: 00 00 00 00: 
             0x0000003c: 01 03 00 00: 
             0x00000040: 0f 00 00 00: 
             0x00000044: 13 00 00 00: 
             0x00000048: 00 00 00 00: 
             0x0000004c: 00 00 00 00: 
             0x00000050: 01 03 00 00: 
             0x00000054: 0f 00 00 00: 
             0x00000058: 14 00 00 00: 
             0x0000005c: 00 00 00 00: 
             0x00000060: 00 00 00 00: 
             0x00000064: 01 03 00 00: 
             0x00000068: 0f 00 00 00: 
             0x0000006c: 15 00 00 00: 
             0x00000070: 00 00 00 00: 
             0x00000074: 00 00 00 00: 
             0x00000078: 01 03 00 00: 
             0x0000007c: 0f 00 00 00: 
             0x00000080: 16 00 00 00: 
             0x00000084: 00 00 00 00: 
             0x00000088: 00 00 00 00: 
             0x0000008c: 01 03 00 00: 
             0x00000090: 0f 00 00 00: 
             0x00000094: 17 00 00 00: 
             0x00000098: 00 00 00 00: 
             0x0000009c: 00 00 00 00: 
             0x000000a0: 01 03 00 00: 
             0x000000a4: 0f 00 00 00: 
             0x000000a8: 18 00 00 00: 
             0x000000ac: 00 00 00 00: 
             0x000000b0: 00 00 00 00: 
             0x000000b4: 01 03 00 00: 
             0x000000b8: 0f 00 00 00: 
             0x000000bc: 19 00 00 00: 
             0x000000c0: 00 00 00 00: 
             0x000000c4: 00 00 00 00: 
             0x000000c8: 41 04 00 00: 
             0x000000cc: 0f 00 00 00: 
             0x000000d0: 1a 00 00 00: 
             0x000000d4: 00 00 00 00: 
             0x000000d8: 00 00 00 00: 
             0x000000dc: c1 04 00 00: 
             0x000000e0: 0f 00 00 00: 
             0x000000e4: 1b 00 00 00: 
             0x000000e8: 00 00 00 00: 
             0x000000ec: 00 00 00 00: 
             0x000000f0: 01 05 00 00: 
             0x000000f4: 0f 00 00 00: 
             0x000000f8: 1c 00 00 00: 
             0x000000fc: 00 00 00 00: 
             0x00000100: 00 00 00 00: 
             0x00000104: 41 05 00 00: 
             0x00000108: 0f 00 00 00: 
             0x0000010c: 1d 00 00 00: 
             0x00000110: 00 00 00 00: 
             0x00000114: 00 00 00 00: 
             0x00000118: 42 09 00 00: 
             0x0000011c: 0f 00 00 00: 
             0x00000120: 33 11 00 00: 
             0x00000124: 00 00 00 00: 
             0x00000128: 00 00 00 00: 
             0x0000012c: 42 09 00 00: 
             0x00000130: 0f 00 00 00: 
             0x00000134: 33 11 00 00: 
             0x00000138: 00 00 00 00: 
             0x0000013c: 00 00 00 00: 
             0x00000140: 41 04 00 00: 
             0x00000144: 12 00 00 00: 
             0x00000148: 1e 00 00 00: 
             0x0000014c: 00 00 00 00: 
             0x00000150: 00 00 00 00: 
             0x00000154: c1 04 00 00: 
             0x00000158: 12 00 00 00: 
             0x0000015c: 25 00 00 00: 
             0x00000160: 00 00 00 00: 
             0x00000164: 00 00 00 00: 
             0x00000168: 01 05 00 00: 
             0x0000016c: 12 00 00 00: 
             0x00000170: 2d 00 00 00: 
             0x00000174: 00 00 00 00: 
             0x00000178: 00 00 00 00: 
             0x0000017c: 41 05 00 00: 
             0x00000180: 12 00 00 00: 
             0x00000184: 35 00 00 00: 
             0x00000188: 00 00 00 00: 
             0x0000018c: 00 00 00 00: 
             0x00000190: 41 04 00 00: 
             0x00000194: 13 00 00 00: 
             0x00000198: 1f 00 00 00: 
             0x0000019c: 00 00 00 00: 
             0x000001a0: 00 00 00 00: 
             0x000001a4: c1 04 00 00: 
             0x000001a8: 13 00 00 00: 
             0x000001ac: 26 00 00 00: 
             0x000001b0: 00 00 00 00: 
             0x000001b4: 00 00 00 00: 
             0x000001b8: 01 05 00 00: 
             0x000001bc: 13 00 00 00: 
             0x000001c0: 2e 00 00 00: 
             0x000001c4: 00 00 00 00: 
             0x000001c8: 00 00 00 00: 
             0x000001cc: 41 05 00 00: 
             0x000001d0: 13 00 00 00: 
             0x000001d4: 36 00 00 00: 
             0x000001d8: 00 00 00 00: 
             0x000001dc: 00 00 00 00: 
             0x000001e0: 41 04 00 00: 
             0x000001e4: 14 00 00 00: 
             0x000001e8: 20 00 00 00: 
             0x000001ec: 00 00 00 00: 
             0x000001f0: 00 00 00 00: 
             0x000001f4: c1 04 00 00: 
             0x000001f8: 14 00 00 00: 
             0x000001fc: 27 00 00 00: 
             0x00000200: 00 00 00 00: 
             0x00000204: 00 00 00 00: 
             0x00000208: 01 05 00 00: 
             0x0000020c: 14 00 00 00: 
             0x00000210: 2f 00 00 00: 
             0x00000214: 00 00 00 00: 
             0x00000218: 00 00 00 00: 
             0x0000021c: 41 05 00 00: 
             0x00000220: 14 00 00 00: 
             0x00000224: 37 00 00 00: 
             0x00000228: 00 00 00 00: 
             0x0000022c: 00 00 00 00: 
             0x00000230: 41 04 00 00: 
             0x00000234: 15 00 00 00: 
             0x00000238: 21 00 00 00: 
             0x0000023c: 00 00 00 00: 
             0x00000240: 00 00 00 00: 
             0x00000244: c1 04 00 00: 
             0x00000248: 15 00 00 00: 
             0x0000024c: 28 00 00 00: 
             0x00000250: 00 00 00 00: 
             0x00000254: 00 00 00 00: 
             0x00000258: 01 05 00 00: 
             0x0000025c: 15 00 00 00: 
             0x00000260: 30 00 00 00: 
             0x00000264: 00 00 00 00: 
             0x00000268: 00 00 00 00: 
             0x0000026c: 41 05 00 00: 
             0x00000270: 15 00 00 00: 
             0x00000274: 38 00 00 00: 
             0x00000278: 00 00 00 00: 
             0x0000027c: 00 00 00 00: 
             0x00000280: 41 04 00 00: 
             0x00000284: 16 00 00 00: 
             0x00000288: 22 00 00 00: 
             0x0000028c: 00 00 00 00: 
             0x00000290: 00 00 00 00: 
             0x00000294: c1 04 00 00: 
             0x00000298: 16 00 00 00: 
             0x0000029c: 29 00 00 00: 
             0x000002a0: 00 00 00 00: 
             0x000002a4: 00 00 00 00: 
             0x000002a8: 01 05 00 00: 
             0x000002ac: 16 00 00 00: 
             0x000002b0: 31 00 00 00: 
             0x000002b4: 00 00 00 00: 
             0x000002b8: 00 00 00 00: 
             0x000002bc: 41 05 00 00: 
             0x000002c0: 16 00 00 00: 
             0x000002c4: 39 00 00 00: 
             0x000002c8: 00 00 00 00: 
             0x000002cc: 00 00 00 00: 
             0x000002d0: 01 03 00 00: 
             0x000002d4: 17 00 00 00: 
             0x000002d8: 66 00 00 00: 
             0x000002dc: 00 00 00 00: 
             0x000002e0: 00 00 00 00: 
             0x000002e4: 41 04 00 00: 
             0x000002e8: 17 00 00 00: 
             0x000002ec: 0d 00 00 00: 
             0x000002f0: 00 00 00 00: 
             0x000002f4: 00 00 00 00: 
             0x000002f8: c1 04 00 00: 
             0x000002fc: 17 00 00 00: 
             0x00000300: 2a 00 00 00: 
             0x00000304: 00 00 00 00: 
             0x00000308: 00 00 00 00: 
             0x0000030c: 01 05 00 00: 
             0x00000310: 17 00 00 00: 
             0x00000314: 32 00 00 00: 
             0x00000318: 00 00 00 00: 
             0x0000031c: 00 00 00 00: 
             0x00000320: 41 05 00 00: 
             0x00000324: 17 00 00 00: 
             0x00000328: 3a 00 00 00: 
             0x0000032c: 00 00 00 00: 
             0x00000330: 00 00 00 00: 
             0x00000334: 42 09 00 00: 
             0x00000338: 17 00 00 00: 
             0x0000033c: 3b 11 00 00: 
             0x00000340: 00 00 00 00: 
             0x00000344: 00 00 00 00: 
             0x00000348: 42 09 00 00: 
             0x0000034c: 17 00 00 00: 
             0x00000350: 3b 11 00 00: 
             0x00000354: 00 00 00 00: 
             0x00000358: 00 00 00 00: 
             0x0000035c: 41 04 00 00: 
             0x00000360: 18 00 00 00: 
             0x00000364: 23 00 00 00: 
             0x00000368: 00 00 00 00: 
             0x0000036c: 00 00 00 00: 
             0x00000370: c1 04 00 00: 
             0x00000374: 18 00 00 00: 
             0x00000378: 2b 00 00 00: 
             0x0000037c: 00 00 00 00: 
             0x00000380: 00 00 00 00: 
             0x00000384: 01 05 00 00: 
             0x00000388: 18 00 00 00: 
             0x0000038c: 33 00 00 00: 
             0x00000390: 00 00 00 00: 
             0x00000394: 00 00 00 00: 
             0x00000398: 41 05 00 00: 
             0x0000039c: 18 00 00 00: 
             0x000003a0: 3b 00 00 00: 
             0x000003a4: 00 00 00 00: 
             0x000003a8: 00 00 00 00: 
             0x000003ac: c1 07 00 00: 
             0x000003b0: 18 00 00 00: 
             0x000003b4: 94 00 00 00: 
             0x000003b8: 00 00 00 00: 
             0x000003bc: 00 00 00 00: 
             0x000003c0: 01 06 00 00: 
             0x000003c4: 18 00 00 00: 
             0x000003c8: 95 00 00 00: 
             0x000003cc: 00 00 00 00: 
             0x000003d0: 00 00 00 00: 
             0x000003d4: 42 09 00 00: 
             0x000003d8: 18 00 00 00: 
             0x000003dc: 33 11 00 00: 
             0x000003e0: 00 00 00 00: 
             0x000003e4: 00 00 00 00: 
             0x000003e8: 42 09 00 00: 
             0x000003ec: 18 00 00 00: 
             0x000003f0: 33 11 00 00: 
             0x000003f4: 00 00 00 00: 
             0x000003f8: 00 00 00 00: 
             0x000003fc: 41 04 00 00: 
             0x00000400: 19 00 00 00: 
             0x00000404: 24 00 00 00: 
             0x00000408: 00 00 00 00: 
             0x0000040c: 00 00 00 00: 
             0x00000410: c1 04 00 00: 
             0x00000414: 19 00 00 00: 
             0x00000418: 2c 00 00 00: 
             0x0000041c: 00 00 00 00: 
             0x00000420: 00 00 00 00: 
             0x00000424: 01 05 00 00: 
             0x00000428: 19 00 00 00: 
             0x0000042c: 34 00 00 00: 
             0x00000430: 00 00 00 00: 
             0x00000434: 00 00 00 00: 
             0x00000438: 41 05 00 00: 
             0x0000043c: 19 00 00 00: 
             0x00000440: 3c 00 00 00: 
             0x00000444: 00 00 00 00: 
             0x00000448: 00 00 00 00: 
             0x0000044c: c1 07 00 00: 
             0x00000450: 19 00 00 00: 
             0x00000454: a2 00 00 00: 
             0x00000458: 00 00 00 00: 
             0x0000045c: 00 00 00 00: 
             0x00000460: 01 06 00 00: 
             0x00000464: 19 00 00 00: 
             0x00000468: a3 00 00 00: 
             0x0000046c: 00 00 00 00: 
             0x00000470: 00 00 00 00: 
             0x00000474: 42 09 00 00: 
             0x00000478: 19 00 00 00: 
             0x0000047c: 44 11 00 00: 
             0x00000480: 00 00 00 00: 
             0x00000484: 00 00 00 00: 
             0x00000488: 42 09 00 00: 
             0x0000048c: 19 00 00 00: 
             0x00000490: 44 11 00 00: 
             0x00000494: 00 00 00 00: 
             0x00000498: 00 00 00 00: 
             0x0000049c: 41 00 00 00: 
             0x000004a0: 2a 00 00 00: 
             0x000004a4: 68 00 00 00: 
             0x000004a8: 00 00 00 00: 
             0x000004ac: 00 00 00 00: 
             0x000004b0: 41 00 00 00: 
             0x000004b4: 32 00 00 00: 
             0x000004b8: 69 00 00 00: 
             0x000004bc: 00 00 00 00: 
             0x000004c0: 00 00 00 00: 
             0x000004c4: 41 04 00 00: 
             0x000004c8: 43 00 00 00: 
             0x000004cc: b8 00 00 00: 
             0x000004d0: 00 00 00 00: 
             0x000004d4: 00 00 00 00: 
             0x000004d8: c1 04 00 00: 
             0x000004dc: 43 00 00 00: 
             0x000004e0: b9 00 00 00: 
             0x000004e4: 00 00 00 00: 
             0x000004e8: 00 00 00 00: 
             0x000004ec: 01 05 00 00: 
             0x000004f0: 43 00 00 00: 
             0x000004f4: ba 00 00 00: 
             0x000004f8: 00 00 00 00: 
             0x000004fc: 00 00 00 00: 
             0x00000500: 41 05 00 00: 
             0x00000504: 43 00 00 00: 
             0x00000508: bb 00 00 00: 
             0x0000050c: 00 00 00 00: 
             0x00000510: 00 00 00 00: 
             0x00000514: c1 07 00 00: 
             0x00000518: 43 00 00 00: 
             0x0000051c: bc 00 00 00: 
             0x00000520: 00 00 00 00: 
             0x00000524: 00 00 00 00: 
             0x00000528: 01 06 00 00: 
             0x0000052c: 43 00 00 00: 
             0x00000530: bd 00 00 00: 
             0x00000534: 00 00 00 00: 
             0x00000538: 00 00 00 00: 
             0x0000053c: 42 09 00 00: 
             0x00000540: 43 00 00 00: 
             0x00000544: 33 11 00 00: 
             0x00000548: 00 00 00 00: 
             0x0000054c: 00 00 00 00: 
             0x00000550: 42 09 00 00: 
             0x00000554: 43 00 00 00: 
             0x00000558: 33 11 00 00: 
             0x0000055c: 00 00 00 00: 
             0x00000560: 00 00 00 00: 
             0x00000564: 41 04 00 00: 
             0x00000568: 46 00 00 00: 
             0x0000056c: 47 00 00 00: 
             0x00000570: 00 00 00 00: 
             0x00000574: 00 00 00 00: 
             0x00000578: 41 05 00 00: 
             0x0000057c: 46 00 00 00: 
             0x00000580: 48 00 00 00: 
             0x00000584: 00 00 00 00: 
             0x00000588: 00 00 00 00: 
             0x0000058c: 01 05 00 00: 
             0x00000590: 46 00 00 00: 
             0x00000594: 49 00 00 00: 
             0x00000598: 00 00 00 00: 
             0x0000059c: 00 00 00 00: 
             0x000005a0: c1 04 00 00: 
             0x000005a4: 46 00 00 00: 
             0x000005a8: 4a 00 00 00: 
             0x000005ac: 00 00 00 00: 
             0x000005b0: 00 00 00 00: 
             0x000005b4: 42 09 00 00: 
             0x000005b8: 46 00 00 00: 
             0x000005bc: 33 11 00 00: 
             0x000005c0: 00 00 00 00: 
             0x000005c4: 00 00 00 00: 
             0x000005c8: 42 09 00 00: 
             0x000005cc: 46 00 00 00: 
             0x000005d0: 33 11 00 00: 
             0x000005d4: 00 00 00 00: 
             0x000005d8: 00 00 00 00: 
             0x000005dc: c1 07 00 00: 
             0x000005e0: 4d 00 00 00: 
             0x000005e4: 97 00 00 00: 
             0x000005e8: 00 00 00 00: 
             0x000005ec: 00 00 00 00: 
             0x000005f0: 41 04 00 00: 
             0x000005f4: 4d 00 00 00: 
             0x000005f8: 98 00 00 00: 
             0x000005fc: 00 00 00 00: 
             0x00000600: 00 00 00 00: 
             0x00000604: 41 05 00 00: 
             0x00000608: 4d 00 00 00: 
             0x0000060c: 99 00 00 00: 
             0x00000610: 00 00 00 00: 
             0x00000614: 00 00 00 00: 
             0x00000618: 01 05 00 00: 
             0x0000061c: 4d 00 00 00: 
             0x00000620: 9a 00 00 00: 
             0x00000624: 00 00 00 00: 
             0x00000628: 00 00 00 00: 
             0x0000062c: c1 04 00 00: 
             0x00000630: 4d 00 00 00: 
             0x00000634: 9b 00 00 00: 
             0x00000638: 00 00 00 00: 
             0x0000063c: 00 00 00 00: 
             0x00000640: 42 09 00 00: 
             0x00000644: 4d 00 00 00: 
             0x00000648: 44 11 00 00: 
             0x0000064c: 00 00 00 00: 
             0x00000650: 00 00 00 00: 
             0x00000654: 42 09 00 00: 
             0x00000658: 4d 00 00 00: 
             0x0000065c: 44 11 00 00: 
             0x00000660: 00 00 00 00: 
             0x00000664: 00 00 00 00: 
             0x00000668: 42 09 00 00: 
             0x0000066c: 4d 00 00 00: 
             0x00000670: 44 11 00 00: 
             0x00000674: 00 00 00 00: 
             0x00000678: 00 00 00 00: 
             0x0000067c: c1 07 00 00: 
             0x00000680: 4e 00 00 00: 
             0x00000684: 7f 00 00 00: 
             0x00000688: 00 00 00 00: 
             0x0000068c: 00 00 00 00: 
             0x00000690: 41 04 00 00: 
             0x00000694: 4e 00 00 00: 
             0x00000698: 80 00 00 00: 
             0x0000069c: 00 00 00 00: 
             0x000006a0: 00 00 00 00: 
             0x000006a4: 41 05 00 00: 
             0x000006a8: 4e 00 00 00: 
             0x000006ac: 81 00 00 00: 
             0x000006b0: 00 00 00 00: 
             0x000006b4: 00 00 00 00: 
             0x000006b8: 01 05 00 00: 
             0x000006bc: 4e 00 00 00: 
             0x000006c0: 82 00 00 00: 
             0x000006c4: 00 00 00 00: 
             0x000006c8: 00 00 00 00: 
             0x000006cc: c1 04 00 00: 
             0x000006d0: 4e 00 00 00: 
             0x000006d4: 83 00 00 00: 
             0x000006d8: 00 00 00 00: 
             0x000006dc: 00 00 00 00: 
             0x000006e0: 41 04 00 00: 
             0x000006e4: 50 00 00 00: 
             0x000006e8: a5 00 00 00: 
             0x000006ec: 00 00 00 00: 
             0x000006f0: 00 00 00 00: 
             0x000006f4: c1 04 00 00: 
             0x000006f8: 50 00 00 00: 
             0x000006fc: a6 00 00 00: 
             0x00000700: 00 00 00 00: 
             0x00000704: 00 00 00 00: 
             0x00000708: 01 05 00 00: 
             0x0000070c: 50 00 00 00: 
             0x00000710: a7 00 00 00: 
             0x00000714: 00 00 00 00: 
             0x00000718: 00 00 00 00: 
             0x0000071c: 41 05 00 00: 
             0x00000720: 50 00 00 00: 
             0x00000724: a8 00 00 00: 
             0x00000728: 00 00 00 00: 
             0x0000072c: 00 00 00 00: 
             0x00000730: c1 07 00 00: 
             0x00000734: 50 00 00 00: 
             0x00000738: a9 00 00 00: 
             0x0000073c: 00 00 00 00: 
             0x00000740: 00 00 00 00: 
             0x00000744: 01 06 00 00: 
             0x00000748: 50 00 00 00: 
             0x0000074c: aa 00 00 00: 
             0x00000750: 00 00 00 00: 
             0x00000754: 00 00 00 00: 
             0x00000758: 42 09 00 00: 
             0x0000075c: 50 00 00 00: 
             0x00000760: 4d 11 00 00: 
             0x00000764: 00 00 00 00: 
             0x00000768: 00 00 00 00: 
             0x0000076c: 42 09 00 00: 
             0x00000770: 50 00 00 00: 
             0x00000774: 4d 11 00 00: 
             0x00000778: 00 00 00 00: 
             0x0000077c: 00 00 00 00: 
             0x00000780: 01 06 00 00: 
             0x00000784: 59 00 00 00: 
             0x00000788: 5a 00 00 00: 
             0x0000078c: 00 00 00 00: 
             0x00000790: 00 00 00 00: 
             0x00000794: c1 07 00 00: 
             0x00000798: 59 00 00 00: 
             0x0000079c: 5b 00 00 00: 
             0x000007a0: 00 00 00 00: 
             0x000007a4: 00 00 00 00: 
             0x000007a8: 42 09 00 00: 
             0x000007ac: 5f 00 00 00: 
             0x000007b0: 61 11 00 00: 
             0x000007b4: 00 00 00 00: 
             0x000007b8: 00 00 00 00: 
             0x000007bc: 42 09 00 00: 
             0x000007c0: 5f 00 00 00: 
             0x000007c4: 61 11 00 00: 
             0x000007c8: 00 00 00 00: 
             0x000007cc: 00 00 00 00: 
             0x000007d0: 42 09 00 00: 
             0x000007d4: 5f 00 00 00: 
             0x000007d8: 61 11 00 00: 
             0x000007dc: 00 00 00 00: 
             0x000007e0: 00 00 00 00: 
             0x000007e4: 01 06 00 00: 
             0x000007e8: 66 00 00 00: 
             0x000007ec: 6b 00 00 00: 
             0x000007f0: 00 00 00 00: 
             0x000007f4: 00 00 00 00: 
             0x000007f8: c1 07 00 00: 
             0x000007fc: 66 00 00 00: 
             0x00000800: 6c 00 00 00: 
             0x00000804: 00 00 00 00: 
             0x00000808: 00 00 00 00: 
             0x0000080c: 41 04 00 00: 
             0x00000810: 66 00 00 00: 
             0x00000814: 67 00 00 00: 
             0x00000818: 00 00 00 00: 
             0x0000081c: 00 00 00 00: 
             0x00000820: 41 05 00 00: 
             0x00000824: 66 00 00 00: 
             0x00000828: 6a 00 00 00: 
             0x0000082c: 00 00 00 00: 
             0x00000830: 00 00 00 00: 
             0x00000834: 01 05 00 00: 
             0x00000838: 66 00 00 00: 
             0x0000083c: 69 00 00 00: 
             0x00000840: 00 00 00 00: 
             0x00000844: 00 00 00 00: 
             0x00000848: c1 04 00 00: 
             0x0000084c: 66 00 00 00: 
             0x00000850: 68 00 00 00: 
             0x00000854: 00 00 00 00: 
             0x00000858: 00 00 00 00: 
             0x0000085c: 42 09 00 00: 
             0x00000860: 66 00 00 00: 
             0x00000864: 3b 11 00 00: 
             0x00000868: 00 00 00 00: 
             0x0000086c: 00 00 00 00: 
             0x00000870: 42 09 00 00: 
             0x00000874: 66 00 00 00: 
             0x00000878: 3b 11 00 00: 
             0x0000087c: 00 00 00 00: 
             0x00000880: 00 00 00 00: 
             0x00000884: 41 04 00 00: 
             0x00000888: 85 00 00 00: 
             0x0000088c: 88 00 00 00: 
             0x00000890: 00 00 00 00: 
             0x00000894: 00 00 00 00: 
             0x00000898: c1 04 00 00: 
             0x0000089c: 85 00 00 00: 
             0x000008a0: 8b 00 00 00: 
             0x000008a4: 00 00 00 00: 
             0x000008a8: 00 00 00 00: 
             0x000008ac: 01 05 00 00: 
             0x000008b0: 85 00 00 00: 
             0x000008b4: 8e 00 00 00: 
             0x000008b8: 00 00 00 00: 
             0x000008bc: 00 00 00 00: 
             0x000008c0: 41 05 00 00: 
             0x000008c4: 85 00 00 00: 
             0x000008c8: 91 00 00 00: 
             0x000008cc: 00 00 00 00: 
             0x000008d0: 00 00 00 00: 
             0x000008d4: c1 07 00 00: 
             0x000008d8: 85 00 00 00: 
             0x000008dc: b5 00 00 00: 
             0x000008e0: 00 00 00 00: 
             0x000008e4: 00 00 00 00: 
             0x000008e8: 01 06 00 00: 
             0x000008ec: 85 00 00 00: 
             0x000008f0: b6 00 00 00: 
             0x000008f4: 00 00 00 00: 
             0x000008f8: 00 00 00 00: 
             0x000008fc: 42 09 00 00: 
             0x00000900: 85 00 00 00: 
             0x00000904: 69 11 00 00: 
             0x00000908: 00 00 00 00: 
             0x0000090c: 00 00 00 00: 
             0x00000910: 42 09 00 00: 
             0x00000914: 85 00 00 00: 
             0x00000918: 69 11 00 00: 
             0x0000091c: 00 00 00 00: 
             0x00000920: 00 00 00 00: 
             0x00000924: 42 09 00 00: 
             0x00000928: 85 00 00 00: 
             0x0000092c: 69 11 00 00: 
             0x00000930: 00 00 00 00: 
             0x00000934: 00 00 00 00: 
             0x00000938: 42 09 00 00: 
             0x0000093c: 85 00 00 00: 
             0x00000940: 69 11 00 00: 
             0x00000944: 00 00 00 00: 
             0x00000948: 00 00 00 00: 
             0x0000094c: 41 04 00 00: 
             0x00000950: 86 00 00 00: 
             0x00000954: 89 00 00 00: 
             0x00000958: 00 00 00 00: 
             0x0000095c: 00 00 00 00: 
             0x00000960: c1 04 00 00: 
             0x00000964: 86 00 00 00: 
             0x00000968: 8c 00 00 00: 
             0x0000096c: 00 00 00 00: 
             0x00000970: 00 00 00 00: 
             0x00000974: 01 05 00 00: 
             0x00000978: 86 00 00 00: 
             0x0000097c: 8f 00 00 00: 
             0x00000980: 00 00 00 00: 
             0x00000984: 00 00 00 00: 
             0x00000988: 41 05 00 00: 
             0x0000098c: 86 00 00 00: 
             0x00000990: 92 00 00 00: 
             0x00000994: 00 00 00 00: 
             0x00000998: 00 00 00 00: 
             0x0000099c: c1 07 00 00: 
             0x000009a0: 86 00 00 00: 
             0x000009a4: c7 00 00 00: 
             0x000009a8: 00 00 00 00: 
             0x000009ac: 00 00 00 00: 
             0x000009b0: 01 06 00 00: 
             0x000009b4: 86 00 00 00: 
             0x000009b8: c8 00 00 00: 
             0x000009bc: 00 00 00 00: 
             0x000009c0: 00 00 00 00: 
             0x000009c4: 42 09 00 00: 
             0x000009c8: 86 00 00 00: 
             0x000009cc: 33 11 00 00: 
             0x000009d0: 00 00 00 00: 
             0x000009d4: 00 00 00 00: 
             0x000009d8: 42 09 00 00: 
             0x000009dc: 86 00 00 00: 
             0x000009e0: 33 11 00 00: 
             0x000009e4: 00 00 00 00: 
             0x000009e8: 00 00 00 00: 
             0x000009ec: 42 09 00 00: 
             0x000009f0: 86 00 00 00: 
             0x000009f4: 33 11 00 00: 
             0x000009f8: 00 00 00 00: 
             0x000009fc: 00 00 00 00: 
             0x00000a00: 42 09 00 00: 
             0x00000a04: 86 00 00 00: 
             0x00000a08: 33 11 00 00: 
             0x00000a0c: 00 00 00 00: 
             0x00000a10: 00 00 00 00: 
             0x00000a14: c1 07 00 00: 
             0x00000a18: 87 00 00 00: 
             0x00000a1c: ca 00 00 00: 
             0x00000a20: 00 00 00 00: 
             0x00000a24: 00 00 00 00: 
             0x00000a28: 41 04 00 00: 
             0x00000a2c: 87 00 00 00: 
             0x00000a30: 8a 00 00 00: 
             0x00000a34: 00 00 00 00: 
             0x00000a38: 00 00 00 00: 
             0x00000a3c: 41 05 00 00: 
             0x00000a40: 87 00 00 00: 
             0x00000a44: 93 00 00 00: 
             0x00000a48: 00 00 00 00: 
             0x00000a4c: 00 00 00 00: 
             0x00000a50: 01 05 00 00: 
             0x00000a54: 87 00 00 00: 
             0x00000a58: 90 00 00 00: 
             0x00000a5c: 00 00 00 00: 
             0x00000a60: 00 00 00 00: 
             0x00000a64: c1 04 00 00: 
             0x00000a68: 87 00 00 00: 
             0x00000a6c: 8d 00 00 00: 
             0x00000a70: 00 00 00 00: 
             0x00000a74: 00 00 00 00: 
             0x00000a78: 42 09 00 00: 
             0x00000a7c: 87 00 00 00: 
             0x00000a80: 33 11 00 00: 
             0x00000a84: 00 00 00 00: 
             0x00000a88: 00 00 00 00: 
             0x00000a8c: 42 09 00 00: 
             0x00000a90: 87 00 00 00: 
             0x00000a94: 33 11 00 00: 
             0x00000a98: 00 00 00 00: 
             0x00000a9c: 00 00 00 00: 
             0x00000aa0: 42 09 00 00: 
             0x00000aa4: 87 00 00 00: 
             0x00000aa8: 33 11 00 00: 
             0x00000aac: 00 00 00 00: 
             0x00000ab0: 00 00 00 00: 
             0x00000ab4: 41 00 00 00: 
             0x00000ab8: 8a 00 00 00: 
             0x00000abc: 9c 00 00 00: 
             0x00000ac0: 00 00 00 00: 
             0x00000ac4: 00 00 00 00: 
             0x00000ac8: 41 00 00 00: 
             0x00000acc: 8d 00 00 00: 
             0x00000ad0: 9f 00 00 00: 
             0x00000ad4: 00 00 00 00: 
             0x00000ad8: 00 00 00 00: 
             0x00000adc: 41 00 00 00: 
             0x00000ae0: 90 00 00 00: 
             0x00000ae4: 9e 00 00 00: 
             0x00000ae8: 00 00 00 00: 
             0x00000aec: 00 00 00 00: 
             0x00000af0: 41 00 00 00: 
             0x00000af4: 93 00 00 00: 
             0x00000af8: 9d 00 00 00: 
             0x00000afc: 00 00 00 00: 
             0x00000b00: 00 00 00 00: 
             0x00000b04: 41 00 00 00: 
             0x00000b08: 98 00 00 00: 
             0x00000b0c: 9c 00 00 00: 
             0x00000b10: 00 00 00 00: 
             0x00000b14: 00 00 00 00: 
             0x00000b18: 41 00 00 00: 
             0x00000b1c: 99 00 00 00: 
             0x00000b20: 9d 00 00 00: 
             0x00000b24: 00 00 00 00: 
             0x00000b28: 00 00 00 00: 
             0x00000b2c: 41 00 00 00: 
             0x00000b30: 9a 00 00 00: 
             0x00000b34: 9e 00 00 00: 
             0x00000b38: 00 00 00 00: 
             0x00000b3c: 00 00 00 00: 
             0x00000b40: 41 00 00 00: 
             0x00000b44: 9b 00 00 00: 
             0x00000b48: 9f 00 00 00: 
             0x00000b4c: 00 00 00 00: 
             0x00000b50: 00 00 00 00: 
             0x00000b54: 41 04 00 00: 
             0x00000b58: a0 00 00 00: 
             0x00000b5c: 9c 00 00 00: 
             0x00000b60: 00 00 00 00: 
             0x00000b64: 00 00 00 00: 
             0x00000b68: 41 05 00 00: 
             0x00000b6c: a0 00 00 00: 
             0x00000b70: 9d 00 00 00: 
             0x00000b74: 00 00 00 00: 
             0x00000b78: 00 00 00 00: 
             0x00000b7c: 01 05 00 00: 
             0x00000b80: a0 00 00 00: 
             0x00000b84: 9e 00 00 00: 
             0x00000b88: 00 00 00 00: 
             0x00000b8c: 00 00 00 00: 
             0x00000b90: c1 04 00 00: 
             0x00000b94: a0 00 00 00: 
             0x00000b98: 9f 00 00 00: 
             0x00000b9c: 00 00 00 00: 
             0x00000ba0: 00 00 00 00: 
             0x00000ba4: 41 04 00 00: 
             0x00000ba8: ae 00 00 00: 
             0x00000bac: af 00 00 00: 
             0x00000bb0: 00 00 00 00: 
             0x00000bb4: 00 00 00 00: 
             0x00000bb8: c1 04 00 00: 
             0x00000bbc: ae 00 00 00: 
             0x00000bc0: b0 00 00 00: 
             0x00000bc4: 00 00 00 00: 
             0x00000bc8: 00 00 00 00: 
             0x00000bcc: 01 05 00 00: 
             0x00000bd0: ae 00 00 00: 
             0x00000bd4: b1 00 00 00: 
             0x00000bd8: 00 00 00 00: 
             0x00000bdc: 00 00 00 00: 
             0x00000be0: 41 05 00 00: 
             0x00000be4: ae 00 00 00: 
             0x00000be8: b2 00 00 00: 
             0x00000bec: 00 00 00 00: 
             0x00000bf0: 00 00 00 00: 
             0x00000bf4: c1 07 00 00: 
             0x00000bf8: ae 00 00 00: 
             0x00000bfc: b3 00 00 00: 
             0x00000c00: 00 00 00 00: 
             0x00000c04: 00 00 00 00: 
             0x00000c08: 01 06 00 00: 
             0x00000c0c: ae 00 00 00: 
             0x00000c10: b4 00 00 00: 
             0x00000c14: 00 00 00 00: 
             0x00000c18: 00 00 00 00: 
             0x00000c1c: 42 09 00 00: 
             0x00000c20: be 00 00 00: 
             0x00000c24: 77 11 00 00: 
             0x00000c28: 00 00 00 00: 
             0x00000c2c: 00 00 00 00: 
             0x00000c30: 42 09 00 00: 
             0x00000c34: be 00 00 00: 
             0x00000c38: 77 11 00 00: 
             0x00000c3c: 00 00 00 00: 
             0x00000c40: 00 00 00 00: 
             0x00000c44: 41 04 00 00: 
             0x00000c48: c0 00 00 00: 
             0x00000c4c: c1 00 00 00: 
             0x00000c50: 00 00 00 00: 
             0x00000c54: 00 00 00 00: 
             0x00000c58: c1 04 00 00: 
             0x00000c5c: c0 00 00 00: 
             0x00000c60: c2 00 00 00: 
             0x00000c64: 00 00 00 00: 
             0x00000c68: 00 00 00 00: 
             0x00000c6c: 01 05 00 00: 
             0x00000c70: c0 00 00 00: 
             0x00000c74: c3 00 00 00: 
             0x00000c78: 00 00 00 00: 
             0x00000c7c: 00 00 00 00: 
             0x00000c80: 41 05 00 00: 
             0x00000c84: c0 00 00 00: 
             0x00000c88: c4 00 00 00: 
             0x00000c8c: 00 00 00 00: 
             0x00000c90: 00 00 00 00: 
             0x00000c94: c1 07 00 00: 
             0x00000c98: c0 00 00 00: 
             0x00000c9c: c5 00 00 00: 
             0x00000ca0: 00 00 00 00: 
             0x00000ca4: 00 00 00 00: 
             0x00000ca8: 01 06 00 00: 
             0x00000cac: c0 00 00 00: 
             0x00000cb0: c6 00 00 00: 
             0x00000cb4: 00 00 00 00: 
             0x00000cb8: 00 00 00 00: 

Disassembly of section section .symtab (size: 3488)

             0x00000000: 00 00 00 00: 
             0x00000004: 00 00 00 00: 
             0x00000008: 00 00 00 00: 
             0x0000000c: 00 00 00 00: 
             0x00000010: 00 00 00 00: 
             0x00000014: 00 00 00 00: 
             0x00000018: 00 00 00 00: 
             0x0000001c: 04 00 f1 ff: 
             0x00000020: 02 01 00 00: 
             0x00000024: fc 02 01 00: 
             0x00000028: 00 00 00 00: 
             0x0000002c: 10 00 03 00: 
             0x00000030: 06 01 00 00: 
             0x00000034: 10 03 01 00: 
             0x00000038: 00 00 00 00: 
             0x0000003c: 10 00 06 00: 
             0x00000040: 0a 01 00 00: 
             0x00000044: 10 03 01 00: 
             0x00000048: 00 00 00 00: 
             0x0000004c: 10 00 01 00: 
             0x00000050: 10 01 00 00: 
             0x00000054: 28 03 01 00: 
             0x00000058: 00 00 00 00: 
             0x0000005c: 10 00 05 00: 
             0x00000060: 19 01 00 00: 
             0x00000064: 10 03 01 00: 
             0x00000068: 00 00 00 00: 
             0x0000006c: 10 00 04 00: 
             0x00000070: 25 01 00 00: 
             0x00000074: 10 03 01 00: 
             0x00000078: 00 00 00 00: 
             0x0000007c: 10 00 07 00: 
             0x00000080: 31 01 00 00: 
             0x00000084: 00 e1 f5 05: 
             0x00000088: 00 00 00 00: 
             0x0000008c: 10 00 f1 ff: 
             0x00000090: 3f 01 00 00: 
             0x00000094: 06 00 00 00: 
             0x00000098: 00 00 00 00: 
             0x0000009c: 10 00 f1 ff: 
             0x000000a0: 4f 01 00 00: 
             0x000000a4: 00 00 00 00: 
             0x000000a8: 00 00 00 00: 
             0x000000ac: 04 00 f1 ff: 
             0x000000b0: 56 01 00 00: 
             0x000000b4: f8 fe 01 00: 
             0x000000b8: 00 00 00 00: 
             0x000000bc: 10 00 f1 ff: 
             0x000000c0: 5d 01 00 00: 
             0x000000c4: 48 03 01 00: 
             0x000000c8: 00 00 00 00: 
             0x000000cc: 10 00 f1 ff: 
             0x000000d0: 64 01 00 00: 
             0x000000d4: 02 00 00 00: 
             0x000000d8: 00 00 00 00: 
             0x000000dc: 10 00 f1 ff: 
             0x000000e0: 75 01 00 00: 
             0x000000e4: 01 00 00 00: 
             0x000000e8: 00 00 00 00: 
             0x000000ec: 00 00 f1 ff: 
             0x000000f0: 8e 01 00 00: 
             0x000000f4: 00 00 01 00: 
             0x000000f8: 00 00 00 00: 
             0x000000fc: 12 00 0f 00: 
             0x00000100: 95 01 00 00: 
             0x00000104: 00 00 01 00: 
             0x00000108: 00 00 00 00: 
             0x0000010c: 10 00 f1 ff: 
             0x00000110: 9f 01 00 00: 
             0x00000114: 48 03 01 00: 
             0x00000118: 00 00 00 00: 
             0x0000011c: 10 00 05 00: 
             0x00000120: a8 01 00 00: 
             0x00000124: a4 00 01 00: 
             0x00000128: 00 00 00 00: 
             0x0000012c: 02 00 0f 00: 
             0x00000130: b4 01 00 00: 
             0x00000134: 30 00 01 00: 
             0x00000138: 00 00 00 00: 
             0x0000013c: 02 00 0f 00: 
             0x00000140: bf 01 00 00: 
             0x00000144: 6c 00 01 00: 
             0x00000148: 00 00 00 00: 
             0x0000014c: 02 00 0f 00: 
             0x00000150: cb 01 00 00: 
             0x00000154: 8a 00 01 00: 
             0x00000158: 00 00 00 00: 
             0x0000015c: 02 00 0f 00: 
             0x00000160: db 01 00 00: 
             0x00000164: 5e 02 01 00: 
             0x00000168: 00 00 00 00: 
             0x0000016c: 12 00 0c 00: 
             0x00000170: e1 01 00 00: 
             0x00000174: ae 00 01 00: 
             0x00000178: 00 00 00 00: 
             0x0000017c: 12 00 0f 00: 
             0x00000180: e6 01 00 00: 
             0x00000184: 60 01 01 00: 
             0x00000188: 16 00 00 00: 
             0x0000018c: 12 00 0f 00: 
             0x00000190: f2 01 00 00: 
             0x00000194: 82 01 01 00: 
             0x00000198: 1a 00 00 00: 
             0x0000019c: 12 00 0f 00: 
             0x000001a0: 01 02 00 00: 
             0x000001a4: 34 00 00 00: 
             0x000001a8: 00 00 00 00: 
             0x000001ac: 10 00 f1 ff: 
             0x000001b0: 14 02 00 00: 
             0x000001b4: 01 00 00 00: 
             0x000001b8: 00 00 00 00: 
             0x000001bc: 10 00 f1 ff: 
             0x000001c0: 26 02 00 00: 
             0x000001c4: 00 00 00 00: 
             0x000001c8: 00 00 00 00: 
             0x000001cc: 10 00 f1 ff: 
             0x000001d0: 37 02 00 00: 
             0x000001d4: 01 00 00 00: 
             0x000001d8: 00 00 00 00: 
             0x000001dc: 10 00 f1 ff: 
             0x000001e0: 4a 02 00 00: 
             0x000001e4: 00 00 00 00: 
             0x000001e8: 00 00 00 00: 
             0x000001ec: 00 00 f1 ff: 
             0x000001f0: 62 02 00 00: 
             0x000001f4: 00 00 00 00: 
             0x000001f8: 00 00 00 00: 
             0x000001fc: 00 00 f1 ff: 
             0x00000200: 79 02 00 00: 
             0x00000204: 00 00 00 00: 
             0x00000208: 00 00 00 00: 
             0x0000020c: 00 00 f1 ff: 
             0x00000210: 91 02 00 00: 
             0x00000214: 00 00 00 00: 
             0x00000218: 00 00 00 00: 
             0x0000021c: 00 00 f1 ff: 
             0x00000220: ad 02 00 00: 
             0x00000224: 32 00 00 00: 
             0x00000228: 00 00 00 00: 
             0x0000022c: 00 00 f1 ff: 
             0x00000230: bf 02 00 00: 
             0x00000234: 33 00 00 00: 
             0x00000238: 00 00 00 00: 
             0x0000023c: 10 00 f1 ff: 
             0x00000240: d7 02 00 00: 
             0x00000244: 34 00 00 00: 
             0x00000248: 00 00 00 00: 
             0x0000024c: 10 00 f1 ff: 
             0x00000250: f2 02 00 00: 
             0x00000254: 01 00 00 00: 
             0x00000258: 00 00 00 00: 
             0x0000025c: 00 00 f1 ff: 
             0x00000260: 09 03 00 00: 
             0x00000264: 01 00 00 00: 
             0x00000268: 00 00 00 00: 
             0x0000026c: 00 00 f1 ff: 
             0x00000270: 1f 03 00 00: 
             0x00000274: 01 00 00 00: 
             0x00000278: 00 00 00 00: 
             0x0000027c: 00 00 f1 ff: 
             0x00000280: 36 03 00 00: 
             0x00000284: 01 00 00 00: 
             0x00000288: 00 00 00 00: 
             0x0000028c: 00 00 f1 ff: 
             0x00000290: 51 03 00 00: 
             0x00000294: 01 00 00 00: 
             0x00000298: 00 00 00 00: 
             0x0000029c: 00 00 f1 ff: 
             0x000002a0: 62 03 00 00: 
             0x000002a4: 01 00 00 00: 
             0x000002a8: 00 00 00 00: 
             0x000002ac: 10 00 f1 ff: 
             0x000002b0: 72 03 00 00: 
             0x000002b4: 01 00 00 00: 
             0x000002b8: 00 00 00 00: 
             0x000002bc: 10 00 f1 ff: 
             0x000002c0: 89 03 00 00: 
             0x000002c4: 01 00 00 00: 
             0x000002c8: 00 00 00 00: 
             0x000002cc: 10 00 f1 ff: 
             0x000002d0: a3 03 00 00: 
             0x000002d4: 00 00 00 00: 
             0x000002d8: 00 00 00 00: 
             0x000002dc: 00 00 f1 ff: 
             0x000002e0: b9 03 00 00: 
             0x000002e4: 00 00 00 00: 
             0x000002e8: 00 00 00 00: 
             0x000002ec: 00 00 f1 ff: 
             0x000002f0: ce 03 00 00: 
             0x000002f4: 00 00 00 00: 
             0x000002f8: 00 00 00 00: 
             0x000002fc: 00 00 f1 ff: 
             0x00000300: e4 03 00 00: 
             0x00000304: 00 00 00 00: 
             0x00000308: 00 00 00 00: 
             0x0000030c: 00 00 f1 ff: 
             0x00000310: fe 03 00 00: 
             0x00000314: 00 00 00 00: 
             0x00000318: 00 00 00 00: 
             0x0000031c: 00 00 f1 ff: 
             0x00000320: 0e 04 00 00: 
             0x00000324: 00 00 00 00: 
             0x00000328: 00 00 00 00: 
             0x0000032c: 10 00 f1 ff: 
             0x00000330: 1d 04 00 00: 
             0x00000334: 00 00 00 00: 
             0x00000338: 00 00 00 00: 
             0x0000033c: 10 00 f1 ff: 
             0x00000340: 33 04 00 00: 
             0x00000344: 00 00 00 00: 
             0x00000348: 00 00 00 00: 
             0x0000034c: 10 00 f1 ff: 
             0x00000350: 4c 04 00 00: 
             0x00000354: 00 00 00 00: 
             0x00000358: 00 00 00 00: 
             0x0000035c: 00 00 f1 ff: 
             0x00000360: 64 04 00 00: 
             0x00000364: 00 00 00 00: 
             0x00000368: 00 00 00 00: 
             0x0000036c: 00 00 f1 ff: 
             0x00000370: 7b 04 00 00: 
             0x00000374: 00 00 00 00: 
             0x00000378: 00 00 00 00: 
             0x0000037c: 00 00 f1 ff: 
             0x00000380: 93 04 00 00: 
             0x00000384: 00 00 00 00: 
             0x00000388: 00 00 00 00: 
             0x0000038c: 00 00 f1 ff: 
             0x00000390: af 04 00 00: 
             0x00000394: 00 00 00 00: 
             0x00000398: 00 00 00 00: 
             0x0000039c: 00 00 f1 ff: 
             0x000003a0: c1 04 00 00: 
             0x000003a4: 01 00 00 00: 
             0x000003a8: 00 00 00 00: 
             0x000003ac: 10 00 f1 ff: 
             0x000003b0: d2 04 00 00: 
             0x000003b4: 00 00 00 00: 
             0x000003b8: 00 00 00 00: 
             0x000003bc: 10 00 f1 ff: 
             0x000003c0: ea 04 00 00: 
             0x000003c4: 00 00 00 00: 
             0x000003c8: 00 00 00 00: 
             0x000003cc: 10 00 f1 ff: 
             0x000003d0: 05 05 00 00: 
             0x000003d4: 26 00 01 00: 
             0x000003d8: 00 00 00 00: 
             0x000003dc: 00 00 0f 00: 
             0x000003e0: 15 05 00 00: 
             0x000003e4: 40 00 01 00: 
             0x000003e8: 00 00 00 00: 
             0x000003ec: 02 00 0f 00: 
             0x000003f0: 24 05 00 00: 
             0x000003f4: 44 00 01 00: 
             0x000003f8: 00 00 00 00: 
             0x000003fc: 00 00 0f 00: 
             0x00000400: 2a 05 00 00: 
             0x00000404: 68 00 01 00: 
             0x00000408: 00 00 00 00: 
             0x0000040c: 00 00 0f 00: 
             0x00000410: 39 05 00 00: 
             0x00000414: 80 00 01 00: 
             0x00000418: 00 00 00 00: 
             0x0000041c: 02 00 0f 00: 
             0x00000420: 46 05 00 00: 
             0x00000424: 84 00 01 00: 
             0x00000428: 00 00 00 00: 
             0x0000042c: 02 00 0f 00: 
             0x00000430: 59 05 00 00: 
             0x00000434: 44 02 01 00: 
             0x00000438: 08 00 00 00: 
             0x0000043c: 12 00 0f 00: 
             0x00000440: 6d 05 00 00: 
             0x00000444: aa 00 01 00: 
             0x00000448: 00 00 00 00: 
             0x0000044c: 12 00 0f 00: 
             0x00000450: 89 05 00 00: 
             0x00000454: aa 00 01 00: 
             0x00000458: 00 00 00 00: 
             0x0000045c: 02 00 0f 00: 
             0x00000460: 9c 05 00 00: 
             0x00000464: ba 02 01 00: 
             0x00000468: 00 00 00 00: 
             0x0000046c: 12 00 09 00: 
             0x00000470: a2 05 00 00: 
             0x00000474: 32 00 00 00: 
             0x00000478: 00 00 00 00: 
             0x0000047c: 10 00 f1 ff: 
             0x00000480: b4 05 00 00: 
             0x00000484: 00 00 00 00: 
             0x00000488: 00 00 00 00: 
             0x0000048c: 10 00 f1 ff: 
             0x00000490: c6 05 00 00: 
             0x00000494: 00 00 00 00: 
             0x00000498: 00 00 00 00: 
             0x0000049c: 10 00 f1 ff: 
             0x000004a0: d6 05 00 00: 
             0x000004a4: 00 00 00 00: 
             0x000004a8: 00 00 00 00: 
             0x000004ac: 10 00 f1 ff: 
             0x000004b0: e7 05 00 00: 
             0x000004b4: f8 02 01 00: 
             0x000004b8: 00 00 00 00: 
             0x000004bc: 00 00 0e 00: 
             0x000004c0: f0 05 00 00: 
             0x000004c4: 10 03 01 00: 
             0x000004c8: 00 00 00 00: 
             0x000004cc: 00 00 06 00: 
             0x000004d0: f9 05 00 00: 
             0x000004d4: 76 01 01 00: 
             0x000004d8: 0c 00 00 00: 
             0x000004dc: 12 00 0f 00: 
             0x000004e0: ff 05 00 00: 
             0x000004e4: 5c 01 01 00: 
             0x000004e8: 04 00 00 00: 
             0x000004ec: 12 00 0f 00: 
             0x000004f0: 0c 06 00 00: 
             0x000004f4: 10 03 01 00: 
             0x000004f8: 00 00 00 00: 
             0x000004fc: 10 00 01 00: 
             0x00000500: 12 06 00 00: 
             0x00000504: 9c 01 01 00: 
             0x00000508: 9c 00 00 00: 
             0x0000050c: 12 00 0f 00: 
             0x00000510: 19 06 00 00: 
             0x00000514: 00 00 00 00: 
             0x00000518: 00 00 00 00: 
             0x0000051c: 04 00 f1 ff: 
             0x00000520: 24 06 00 00: 
             0x00000524: 14 03 01 00: 
             0x00000528: 00 00 00 00: 
             0x0000052c: 00 00 06 00: 
             0x00000530: 32 06 00 00: 
             0x00000534: 18 03 01 00: 
             0x00000538: 00 00 00 00: 
             0x0000053c: 00 00 06 00: 
             0x00000540: 3d 06 00 00: 
             0x00000544: 10 03 01 00: 
             0x00000548: 00 00 00 00: 
             0x0000054c: 10 00 07 00: 
             0x00000550: 48 06 00 00: 
             0x00000554: dc 02 01 00: 
             0x00000558: 00 00 00 00: 
             0x0000055c: 00 00 09 00: 
             0x00000560: 56 06 00 00: 
             0x00000564: e8 02 01 00: 
             0x00000568: 00 00 00 00: 
             0x0000056c: 00 00 09 00: 
             0x00000570: 63 06 00 00: 
             0x00000574: 24 03 01 00: 
             0x00000578: 00 00 00 00: 
             0x0000057c: 10 00 08 00: 
             0x00000580: 76 06 00 00: 
             0x00000584: 00 00 00 00: 
             0x00000588: 00 00 00 00: 
             0x0000058c: 04 00 f1 ff: 
             0x00000590: 80 06 00 00: 
             0x00000594: 00 00 00 00: 
             0x00000598: 00 00 00 00: 
             0x0000059c: 00 00 f1 ff: 
             0x000005a0: 96 06 00 00: 
             0x000005a4: 00 00 00 00: 
             0x000005a8: 00 00 00 00: 
             0x000005ac: 00 00 f1 ff: 
             0x000005b0: b6 06 00 00: 
             0x000005b4: 01 00 00 00: 
             0x000005b8: 00 00 00 00: 
             0x000005bc: 00 00 f1 ff: 
             0x000005c0: d9 06 00 00: 
             0x000005c4: 04 00 00 00: 
             0x000005c8: 00 00 00 00: 
             0x000005cc: 00 00 0d 00: 
             0x000005d0: f3 06 00 00: 
             0x000005d4: 15 00 00 00: 
             0x000005d8: 00 00 00 00: 
             0x000005dc: 00 00 0d 00: 
             0x000005e0: 0d 07 00 00: 
             0x000005e4: 00 00 00 00: 
             0x000005e8: 00 00 00 00: 
             0x000005ec: 10 00 f1 ff: 
             0x000005f0: 24 07 00 00: 
             0x000005f4: 88 00 00 00: 
             0x000005f8: 00 00 00 00: 
             0x000005fc: 11 00 0d 00: 
             0x00000600: 2c 07 00 00: 
             0x00000604: 00 00 00 00: 
             0x00000608: 00 00 00 00: 
             0x0000060c: 00 00 f1 ff: 
             0x00000610: 3a 07 00 00: 
             0x00000614: 00 00 00 00: 
             0x00000618: 00 00 00 00: 
             0x0000061c: 00 00 f1 ff: 
             0x00000620: 48 07 00 00: 
             0x00000624: 00 00 00 00: 
             0x00000628: 00 00 00 00: 
             0x0000062c: 00 00 f1 ff: 
             0x00000630: 56 07 00 00: 
             0x00000634: 00 00 00 00: 
             0x00000638: 00 00 00 00: 
             0x0000063c: 00 00 f1 ff: 
             0x00000640: 64 07 00 00: 
             0x00000644: 00 00 00 00: 
             0x00000648: 00 00 00 00: 
             0x0000064c: 00 00 f1 ff: 
             0x00000650: 76 06 00 00: 
             0x00000654: 00 00 00 00: 
             0x00000658: 00 00 00 00: 
             0x0000065c: 04 00 f1 ff: 
             0x00000660: 72 07 00 00: 
             0x00000664: ac 00 01 00: 
             0x00000668: 02 00 00 00: 
             0x0000066c: 12 00 0f 00: 
             0x00000670: 81 07 00 00: 
             0x00000674: 00 00 00 00: 
             0x00000678: 00 00 00 00: 
             0x0000067c: 10 00 f1 ff: 
             0x00000680: 9c 07 00 00: 
             0x00000684: 01 00 00 00: 
             0x00000688: 00 00 00 00: 
             0x0000068c: 10 00 f1 ff: 
             0x00000690: b6 07 00 00: 
             0x00000694: 00 00 00 00: 
             0x00000698: 00 00 00 00: 
             0x0000069c: 10 00 f1 ff: 
             0x000006a0: cf 07 00 00: 
             0x000006a4: 00 00 00 00: 
             0x000006a8: 00 00 00 00: 
             0x000006ac: 10 00 f1 ff: 
             0x000006b0: ea 07 00 00: 
             0x000006b4: 01 00 00 00: 
             0x000006b8: 00 00 00 00: 
             0x000006bc: 00 00 f1 ff: 
             0x000006c0: 03 08 00 00: 
             0x000006c4: 01 00 00 00: 
             0x000006c8: 00 00 00 00: 
             0x000006cc: 00 00 f1 ff: 
             0x000006d0: 1f 08 00 00: 
             0x000006d4: 00 00 00 00: 
             0x000006d8: 00 00 00 00: 
             0x000006dc: 04 00 f1 ff: 
             0x000006e0: 2a 08 00 00: 
             0x000006e4: b0 00 01 00: 
             0x000006e8: 00 00 00 00: 
             0x000006ec: 00 00 0f 00: 
             0x000006f0: 39 08 00 00: 
             0x000006f4: c2 00 01 00: 
             0x000006f8: 00 00 00 00: 
             0x000006fc: 00 00 0f 00: 
             0x00000700: 49 08 00 00: 
             0x00000704: c4 00 01 00: 
             0x00000708: 00 00 00 00: 
             0x0000070c: 00 00 0f 00: 
             0x00000710: 52 08 00 00: 
             0x00000714: d6 00 01 00: 
             0x00000718: 00 00 00 00: 
             0x0000071c: 00 00 0f 00: 
             0x00000720: 5d 08 00 00: 
             0x00000724: e0 00 01 00: 
             0x00000728: 00 00 00 00: 
             0x0000072c: 00 00 0f 00: 
             0x00000730: 69 08 00 00: 
             0x00000734: e6 00 01 00: 
             0x00000738: 00 00 00 00: 
             0x0000073c: 00 00 0f 00: 
             0x00000740: 71 08 00 00: 
             0x00000744: f2 00 01 00: 
             0x00000748: 00 00 00 00: 
             0x0000074c: 00 00 0f 00: 
             0x00000750: 7d 08 00 00: 
             0x00000754: f6 00 01 00: 
             0x00000758: 00 00 00 00: 
             0x0000075c: 00 00 0f 00: 
             0x00000760: 89 08 00 00: 
             0x00000764: 06 01 01 00: 
             0x00000768: 00 00 00 00: 
             0x0000076c: 00 00 0f 00: 
             0x00000770: 93 08 00 00: 
             0x00000774: 08 01 01 00: 
             0x00000778: 00 00 00 00: 
             0x0000077c: 00 00 0f 00: 
             0x00000780: a2 08 00 00: 
             0x00000784: 1c 01 01 00: 
             0x00000788: 00 00 00 00: 
             0x0000078c: 00 00 0f 00: 
             0x00000790: b4 08 00 00: 
             0x00000794: 3a 01 01 00: 
             0x00000798: 00 00 00 00: 
             0x0000079c: 00 00 0f 00: 
             0x000007a0: c3 08 00 00: 
             0x000007a4: 5c 01 01 00: 
             0x000007a8: 00 00 00 00: 
             0x000007ac: 00 00 0f 00: 
             0x000007b0: d0 08 00 00: 
             0x000007b4: 28 03 01 00: 
             0x000007b8: 00 00 00 00: 
             0x000007bc: 00 00 05 00: 
             0x000007c0: dd 08 00 00: 
             0x000007c4: fc 02 01 00: 
             0x000007c8: 00 00 00 00: 
             0x000007cc: 00 00 02 00: 
             0x000007d0: ed 08 00 00: 
             0x000007d4: 00 03 01 00: 
             0x000007d8: 00 00 00 00: 
             0x000007dc: 00 00 02 00: 
             0x000007e0: fd 08 00 00: 
             0x000007e4: 00 00 00 00: 
             0x000007e8: 00 00 00 00: 
             0x000007ec: 04 00 f1 ff: 
             0x000007f0: 09 09 00 00: 
             0x000007f4: 01 00 00 00: 
             0x000007f8: 00 00 00 00: 
             0x000007fc: 00 00 f1 ff: 
             0x00000800: 23 09 00 00: 
             0x00000804: 00 00 00 00: 
             0x00000808: 00 00 00 00: 
             0x0000080c: 10 00 f1 ff: 
             0x00000810: 3c 09 00 00: 
             0x00000814: 00 00 00 00: 
             0x00000818: 00 00 00 00: 
             0x0000081c: 10 00 f1 ff: 
             0x00000820: 55 09 00 00: 
             0x00000824: 00 00 00 00: 
             0x00000828: 00 00 00 00: 
             0x0000082c: 10 00 f1 ff: 
             0x00000830: 6c 09 00 00: 
             0x00000834: 00 00 00 00: 
             0x00000838: 00 00 00 00: 
             0x0000083c: 10 00 f1 ff: 
             0x00000840: 84 09 00 00: 
             0x00000844: 00 00 00 00: 
             0x00000848: 00 00 00 00: 
             0x0000084c: 04 00 f1 ff: 
             0x00000850: bb 09 00 00: 
             0x00000854: 3c 02 01 00: 
             0x00000858: 08 00 00 00: 
             0x0000085c: 12 00 0f 00: 
             0x00000860: cc 09 00 00: 
             0x00000864: 4c 02 01 00: 
             0x00000868: 08 00 00 00: 
             0x0000086c: 12 00 0f 00: 
             0x00000870: d5 09 00 00: 
             0x00000874: 54 02 01 00: 
             0x00000878: 0a 00 00 00: 
             0x0000087c: 12 00 0f 00: 
             0x00000880: db 09 00 00: 
             0x00000884: 01 00 00 00: 
             0x00000888: 00 00 00 00: 
             0x0000088c: 10 00 f1 ff: 
             0x00000890: f8 09 00 00: 
             0x00000894: 01 00 00 00: 
             0x00000898: 00 00 00 00: 
             0x0000089c: 10 00 f1 ff: 
             0x000008a0: 0d 0a 00 00: 
             0x000008a4: 00 00 00 00: 
             0x000008a8: 00 00 00 00: 
             0x000008ac: 10 00 f1 ff: 
             0x000008b0: 1f 0a 00 00: 
             0x000008b4: 01 00 00 00: 
             0x000008b8: 00 00 00 00: 
             0x000008bc: 10 00 f1 ff: 
             0x000008c0: 3b 0a 00 00: 
             0x000008c4: 01 00 00 00: 
             0x000008c8: 00 00 00 00: 
             0x000008cc: 10 00 f1 ff: 
             0x000008d0: 4f 0a 00 00: 
             0x000008d4: 00 00 00 00: 
             0x000008d8: 00 00 00 00: 
             0x000008dc: 10 00 f1 ff: 
             0x000008e0: 60 0a 00 00: 
             0x000008e4: 00 00 00 00: 
             0x000008e8: 00 00 00 00: 
             0x000008ec: 10 00 f1 ff: 
             0x000008f0: 7b 0a 00 00: 
             0x000008f4: 00 00 00 00: 
             0x000008f8: 00 00 00 00: 
             0x000008fc: 10 00 f1 ff: 
             0x00000900: 8e 0a 00 00: 
             0x00000904: 00 00 00 00: 
             0x00000908: 00 00 00 00: 
             0x0000090c: 10 00 f1 ff: 
             0x00000910: 9e 0a 00 00: 
             0x00000914: 00 00 00 00: 
             0x00000918: 00 00 00 00: 
             0x0000091c: 10 00 f1 ff: 
             0x00000920: bb 0a 00 00: 
             0x00000924: 00 00 00 00: 
             0x00000928: 00 00 00 00: 
             0x0000092c: 10 00 f1 ff: 
             0x00000930: d0 0a 00 00: 
             0x00000934: 00 00 00 00: 
             0x00000938: 00 00 00 00: 
             0x0000093c: 10 00 f1 ff: 
             0x00000940: e2 0a 00 00: 
             0x00000944: 01 00 00 00: 
             0x00000948: 00 00 00 00: 
             0x0000094c: 00 00 f1 ff: 
             0x00000950: fb 0a 00 00: 
             0x00000954: 01 00 00 00: 
             0x00000958: 00 00 00 00: 
             0x0000095c: 00 00 f1 ff: 
             0x00000960: 11 0b 00 00: 
             0x00000964: 00 00 00 00: 
             0x00000968: 00 00 00 00: 
             0x0000096c: 04 00 f1 ff: 
             0x00000970: 18 0b 00 00: 
             0x00000974: 01 00 00 00: 
             0x00000978: 00 00 00 00: 
             0x0000097c: 00 00 f1 ff: 
             0x00000980: 2b 0b 00 00: 
             0x00000984: 00 00 00 00: 
             0x00000988: 00 00 00 00: 
             0x0000098c: 10 00 f1 ff: 
             0x00000990: 3d 0b 00 00: 
             0x00000994: 00 00 00 00: 
             0x00000998: 00 00 00 00: 
             0x0000099c: 10 00 f1 ff: 
             0x000009a0: 4f 0b 00 00: 
             0x000009a4: 00 00 00 00: 
             0x000009a8: 00 00 00 00: 
             0x000009ac: 10 00 f1 ff: 
             0x000009b0: 5f 0b 00 00: 
             0x000009b4: 00 00 00 00: 
             0x000009b8: 00 00 00 00: 
             0x000009bc: 10 00 f1 ff: 
             0x000009c0: 70 0b 00 00: 
             0x000009c4: 00 00 00 00: 
             0x000009c8: 00 00 00 00: 
             0x000009cc: 10 00 f1 ff: 
             0x000009d0: 87 0b 00 00: 
             0x000009d4: 00 00 00 00: 
             0x000009d8: 00 00 00 00: 
             0x000009dc: 10 00 f1 ff: 
             0x000009e0: 9e 0b 00 00: 
             0x000009e4: 00 00 00 00: 
             0x000009e8: 00 00 00 00: 
             0x000009ec: 10 00 f1 ff: 
             0x000009f0: b3 0b 00 00: 
             0x000009f4: 00 00 00 00: 
             0x000009f8: 00 00 00 00: 
             0x000009fc: 10 00 f1 ff: 
             0x00000a00: c9 0b 00 00: 
             0x00000a04: 38 02 01 00: 
             0x00000a08: 04 00 00 00: 
             0x00000a0c: 12 00 0f 00: 
             0x00000a10: d4 0b 00 00: 
             0x00000a14: 00 00 00 00: 
             0x00000a18: 00 00 00 00: 
             0x00000a1c: 04 00 f1 ff: 
             0x00000a20: 0b 0c 00 00: 
             0x00000a24: 01 00 00 00: 
             0x00000a28: 00 00 00 00: 
             0x00000a2c: 00 00 f1 ff: 
             0x00000a30: 27 0c 00 00: 
             0x00000a34: 01 00 00 00: 
             0x00000a38: 00 00 00 00: 
             0x00000a3c: 00 00 f1 ff: 
             0x00000a40: 40 0c 00 00: 
             0x00000a44: 00 00 00 00: 
             0x00000a48: 00 00 00 00: 
             0x00000a4c: 04 00 f1 ff: 
             0x00000a50: 79 0c 00 00: 
             0x00000a54: 05 00 00 00: 
             0x00000a58: 00 00 00 00: 
             0x00000a5c: 10 00 f1 ff: 
             0x00000a60: 8c 0c 00 00: 
             0x00000a64: 01 00 00 00: 
             0x00000a68: 00 00 00 00: 
             0x00000a6c: 10 00 f1 ff: 
             0x00000a70: 9e 0c 00 00: 
             0x00000a74: 00 00 00 00: 
             0x00000a78: 00 00 00 00: 
             0x00000a7c: 10 00 f1 ff: 
             0x00000a80: af 0c 00 00: 
             0x00000a84: 00 00 00 00: 
             0x00000a88: 00 00 00 00: 
             0x00000a8c: 10 00 f1 ff: 
             0x00000a90: c2 0c 00 00: 
             0x00000a94: 01 00 00 00: 
             0x00000a98: 00 00 00 00: 
             0x00000a9c: 00 00 f1 ff: 
             0x00000aa0: d6 0c 00 00: 
             0x00000aa4: 01 00 00 00: 
             0x00000aa8: 00 00 00 00: 
             0x00000aac: 00 00 f1 ff: 
             0x00000ab0: e7 0c 00 00: 
             0x00000ab4: 00 00 00 00: 
             0x00000ab8: 00 00 00 00: 
             0x00000abc: 04 00 f1 ff: 
             0x00000ac0: 14 0d 00 00: 
             0x00000ac4: 00 00 00 00: 
             0x00000ac8: 00 00 00 00: 
             0x00000acc: 04 00 f1 ff: 
             0x00000ad0: 1e 0d 00 00: 
             0x00000ad4: 00 00 00 00: 
             0x00000ad8: 00 00 00 00: 
             0x00000adc: 04 00 f1 ff: 
             0x00000ae0: 5e 0d 00 00: 
             0x00000ae4: f4 02 01 00: 
             0x00000ae8: 02 00 00 00: 
             0x00000aec: 22 00 0a 00: 
             0x00000af0: 74 0d 00 00: 
             0x00000af4: 00 00 00 00: 
             0x00000af8: 00 00 00 00: 
             0x00000afc: 20 00 f1 ff: 
             0x00000b00: 96 0d 00 00: 
             0x00000b04: 01 00 00 00: 
             0x00000b08: 00 00 00 00: 
             0x00000b0c: 20 00 f1 ff: 
             0x00000b10: b7 0d 00 00: 
             0x00000b14: 00 00 00 00: 
             0x00000b18: 00 00 00 00: 
             0x00000b1c: 20 00 f1 ff: 
             0x00000b20: d7 0d 00 00: 
             0x00000b24: 00 00 00 00: 
             0x00000b28: 00 00 00 00: 
             0x00000b2c: 20 00 f1 ff: 
             0x00000b30: f9 0d 00 00: 
             0x00000b34: 01 00 00 00: 
             0x00000b38: 00 00 00 00: 
             0x00000b3c: 00 00 f1 ff: 
             0x00000b40: 1c 0e 00 00: 
             0x00000b44: 01 00 00 00: 
             0x00000b48: 00 00 00 00: 
             0x00000b4c: 00 00 f1 ff: 
             0x00000b50: 3c 0e 00 00: 
             0x00000b54: 01 00 00 00: 
             0x00000b58: 00 00 00 00: 
             0x00000b5c: 00 00 f1 ff: 
             0x00000b60: 5a 0e 00 00: 
             0x00000b64: 01 00 00 00: 
             0x00000b68: 00 00 00 00: 
             0x00000b6c: 00 00 f1 ff: 
             0x00000b70: 75 0e 00 00: 
             0x00000b74: 00 00 00 00: 
             0x00000b78: 00 00 00 00: 
             0x00000b7c: 04 00 f1 ff: 
             0x00000b80: a8 0e 00 00: 
             0x00000b84: 00 00 00 00: 
             0x00000b88: 00 00 00 00: 
             0x00000b8c: 10 00 f1 ff: 
             0x00000b90: c8 0e 00 00: 
             0x00000b94: 01 00 00 00: 
             0x00000b98: 00 00 00 00: 
             0x00000b9c: 10 00 f1 ff: 
             0x00000ba0: e7 0e 00 00: 
             0x00000ba4: 00 00 00 00: 
             0x00000ba8: 00 00 00 00: 
             0x00000bac: 10 00 f1 ff: 
             0x00000bb0: 05 0f 00 00: 
             0x00000bb4: 00 00 00 00: 
             0x00000bb8: 00 00 00 00: 
             0x00000bbc: 10 00 f1 ff: 
             0x00000bc0: 25 0f 00 00: 
             0x00000bc4: 01 00 00 00: 
             0x00000bc8: 00 00 00 00: 
             0x00000bcc: 00 00 f1 ff: 
             0x00000bd0: 46 0f 00 00: 
             0x00000bd4: 01 00 00 00: 
             0x00000bd8: 00 00 00 00: 
             0x00000bdc: 00 00 f1 ff: 
             0x00000be0: 64 0f 00 00: 
             0x00000be4: 28 03 01 00: 
             0x00000be8: 04 00 00 00: 
             0x00000bec: 11 00 05 00: 
             0x00000bf0: 72 0f 00 00: 
             0x00000bf4: 00 00 00 00: 
             0x00000bf8: 00 00 00 00: 
             0x00000bfc: 04 00 f1 ff: 
             0x00000c00: ac 0f 00 00: 
             0x00000c04: f6 02 01 00: 
             0x00000c08: 02 00 00 00: 
             0x00000c0c: 22 00 0b 00: 
             0x00000c10: ba 0f 00 00: 
             0x00000c14: 00 00 00 00: 
             0x00000c18: 00 00 00 00: 
             0x00000c1c: 20 00 f1 ff: 
             0x00000c20: d4 0f 00 00: 
             0x00000c24: 01 00 00 00: 
             0x00000c28: 00 00 00 00: 
             0x00000c2c: 20 00 f1 ff: 
             0x00000c30: ed 0f 00 00: 
             0x00000c34: 00 00 00 00: 
             0x00000c38: 00 00 00 00: 
             0x00000c3c: 20 00 f1 ff: 
             0x00000c40: 05 10 00 00: 
             0x00000c44: 00 00 00 00: 
             0x00000c48: 00 00 00 00: 
             0x00000c4c: 20 00 f1 ff: 
             0x00000c50: 1f 10 00 00: 
             0x00000c54: 01 00 00 00: 
             0x00000c58: 00 00 00 00: 
             0x00000c5c: 00 00 f1 ff: 
             0x00000c60: 3a 10 00 00: 
             0x00000c64: 01 00 00 00: 
             0x00000c68: 00 00 00 00: 
             0x00000c6c: 00 00 f1 ff: 
             0x00000c70: 52 10 00 00: 
             0x00000c74: 01 00 00 00: 
             0x00000c78: 00 00 00 00: 
             0x00000c7c: 00 00 f1 ff: 
             0x00000c80: 68 10 00 00: 
             0x00000c84: 01 00 00 00: 
             0x00000c88: 00 00 00 00: 
             0x00000c8c: 00 00 f1 ff: 
             0x00000c90: 7b 10 00 00: 
             0x00000c94: 00 00 00 00: 
             0x00000c98: 00 00 00 00: 
             0x00000c9c: 04 00 f1 ff: 
             0x00000ca0: 82 10 00 00: 
             0x00000ca4: 01 00 00 00: 
             0x00000ca8: 00 00 00 00: 
             0x00000cac: 00 00 f1 ff: 
             0x00000cb0: 95 10 00 00: 
             0x00000cb4: 00 00 00 00: 
             0x00000cb8: 00 00 00 00: 
             0x00000cbc: 04 00 f1 ff: 
             0x00000cc0: 9e 10 00 00: 
             0x00000cc4: 1c 03 01 00: 
             0x00000cc8: 00 00 00 00: 
             0x00000ccc: 00 00 06 00: 
             0x00000cd0: ac 10 00 00: 
             0x00000cd4: 20 03 01 00: 
             0x00000cd8: 00 00 00 00: 
             0x00000cdc: 00 00 06 00: 
             0x00000ce0: b7 10 00 00: 
             0x00000ce4: 10 03 01 00: 
             0x00000ce8: 00 00 00 00: 
             0x00000cec: 10 00 04 00: 
             0x00000cf0: c2 10 00 00: 
             0x00000cf4: ae 02 01 00: 
             0x00000cf8: 00 00 00 00: 
             0x00000cfc: 00 00 0c 00: 
             0x00000d00: d0 10 00 00: 
             0x00000d04: b8 02 01 00: 
             0x00000d08: 00 00 00 00: 
             0x00000d0c: 00 00 0c 00: 
             0x00000d10: dd 10 00 00: 
             0x00000d14: 2c 03 01 00: 
             0x00000d18: 00 00 00 00: 
             0x00000d1c: 00 00 05 00: 
             0x00000d20: e9 10 00 00: 
             0x00000d24: 24 03 01 00: 
             0x00000d28: 00 00 00 00: 
             0x00000d2c: 10 00 08 00: 
             0x00000d30: fa 10 00 00: 
             0x00000d34: 00 00 00 00: 
             0x00000d38: 00 00 00 00: 
             0x00000d3c: 04 00 f1 ff: 
             0x00000d40: 01 11 00 00: 
             0x00000d44: 00 00 01 00: 
             0x00000d48: 00 00 00 00: 
             0x00000d4c: 10 00 f1 ff: 
             0x00000d50: 0b 11 00 00: 
             0x00000d54: fc 02 01 00: 
             0x00000d58: 00 00 00 00: 
             0x00000d5c: 00 00 02 00: 
             0x00000d60: 11 11 00 00: 
             0x00000d64: 00 03 01 00: 
             0x00000d68: 00 00 00 00: 
             0x00000d6c: 00 00 02 00: 
             0x00000d70: 17 11 00 00: 
             0x00000d74: 04 03 01 00: 
             0x00000d78: 00 00 00 00: 
             0x00000d7c: 00 00 02 00: 
             0x00000d80: 1d 11 00 00: 
             0x00000d84: 08 03 01 00: 
             0x00000d88: 00 00 00 00: 
             0x00000d8c: 00 00 02 00: 
             0x00000d90: 23 11 00 00: 
             0x00000d94: 0c 03 01 00: 
             0x00000d98: 00 00 00 00: 
             0x00000d9c: 00 00 02 00: 

Disassembly of section section .strtab (size: 4496)

             0x00000000: 00 2e 62 73: 
             0x00000004: 73 00 2e 63: 
             0x00000008: 70 2e 63 6f: 
             0x0000000c: 6e 73 74 34: 
             0x00000010: 00 2e 63 70: 
             0x00000014: 2e 72 6f 64: 
             0x00000018: 61 74 61 00: 
             0x0000001c: 2e 63 74 6f: 
             0x00000020: 72 73 00 2e: 
             0x00000024: 64 70 2e 62: 
             0x00000028: 73 73 00 2e: 
             0x0000002c: 64 70 2e 64: 
             0x00000030: 61 74 61 00: 
             0x00000034: 2e 64 74 6f: 
             0x00000038: 72 73 00 2e: 
             0x0000003c: 65 68 5f 66: 
             0x00000040: 72 61 6d 65: 
             0x00000044: 00 2e 66 69: 
             0x00000048: 6e 69 00 2e: 
             0x0000004c: 67 6e 75 2e: 
             0x00000050: 6c 69 6e 6b: 
             0x00000054: 6f 6e 63 65: 
             0x00000058: 2e 74 2e 5f: 
             0x0000005c: 5f 63 61 6c: 
             0x00000060: 6c 5f 65 78: 
             0x00000064: 69 74 70 72: 
             0x00000068: 6f 63 73 5f: 
             0x0000006c: 69 6d 70 6c: 
             0x00000070: 00 2e 67 6e: 
             0x00000074: 75 2e 6c 69: 
             0x00000078: 6e 6b 6f 6e: 
             0x0000007c: 63 65 2e 74: 
             0x00000080: 2e 5f 63 6c: 
             0x00000084: 65 61 6e 75: 
             0x00000088: 70 5f 69 6d: 
             0x0000008c: 70 6c 00 2e: 
             0x00000090: 69 6e 69 74: 
             0x00000094: 00 2e 6e 65: 
             0x00000098: 74 69 6e 66: 
             0x0000009c: 6f 00 2e 72: 
             0x000000a0: 6f 64 61 74: 
             0x000000a4: 61 00 2e 74: 
             0x000000a8: 65 78 74 00: 
             0x000000ac: 2e 78 74 61: 
             0x000000b0: 62 72 61 6e: 
             0x000000b4: 63 68 00 2e: 
             0x000000b8: 78 74 61 65: 
             0x000000bc: 6e 64 70 6f: 
             0x000000c0: 69 6e 74 74: 
             0x000000c4: 61 62 6c 65: 
             0x000000c8: 00 2e 78 74: 
             0x000000cc: 61 6c 61 62: 
             0x000000d0: 65 6c 74 61: 
             0x000000d4: 62 6c 65 00: 
             0x000000d8: 2e 78 74 61: 
             0x000000dc: 73 79 73 74: 
             0x000000e0: 65 6d 00 2e: 
             0x000000e4: 78 74 61 74: 
             0x000000e8: 68 72 65 61: 
             0x000000ec: 64 73 74 61: 
             0x000000f0: 72 74 00 2e: 
             0x000000f4: 78 74 61 74: 
             0x000000f8: 68 72 65 61: 
             0x000000fc: 64 73 74 6f: 
             0x00000100: 70 00 5f 63: 
             0x00000104: 70 00 5f 64: 
             0x00000108: 70 00 5f 66: 
             0x0000010c: 62 73 73 00: 
             0x00000110: 5f 66 64 70: 
             0x00000114: 2e 62 73 73: 
             0x00000118: 00 5f 43 54: 
             0x0000011c: 4f 52 5f 4c: 
             0x00000120: 49 53 54 5f: 
             0x00000124: 00 5f 44 54: 
             0x00000128: 4f 52 5f 4c: 
             0x0000012c: 49 53 54 5f: 
             0x00000130: 00 5f 78 73: 
             0x00000134: 31 5f 74 69: 
             0x00000138: 6d 65 72 5f: 
             0x0000013c: 68 7a 00 5f: 
             0x00000140: 64 65 66 61: 
             0x00000144: 75 6c 74 5f: 
             0x00000148: 63 6c 6b 62: 
             0x0000014c: 6c 6b 00 63: 
             0x00000150: 72 74 31 2e: 
             0x00000154: 53 00 5f 65: 
             0x00000158: 68 65 61 70: 
             0x0000015c: 00 5f 62 68: 
             0x00000160: 65 61 70 00: 
             0x00000164: 6d 61 69 6e: 
             0x00000168: 2e 6e 73 74: 
             0x0000016c: 61 63 6b 77: 
             0x00000170: 6f 72 64 73: 
             0x00000174: 00 6d 61 69: 
             0x00000178: 6e 2e 6e 73: 
             0x0000017c: 74 61 63 6b: 
             0x00000180: 77 6f 72 64: 
             0x00000184: 73 2e 64 65: 
             0x00000188: 66 69 6e 65: 
             0x0000018c: 64 00 5f 73: 
             0x00000190: 74 61 72 74: 
             0x00000194: 00 2e 72 61: 
             0x00000198: 6d 5f 73 69: 
             0x0000019c: 7a 65 00 5f: 
             0x000001a0: 65 64 70 2e: 
             0x000001a4: 62 73 73 00: 
             0x000001a8: 5f 53 65 74: 
             0x000001ac: 75 70 54 72: 
             0x000001b0: 61 70 73 00: 
             0x000001b4: 5f 47 65 74: 
             0x000001b8: 52 61 6d 45: 
             0x000001bc: 6e 64 00 5f: 
             0x000001c0: 49 6e 69 74: 
             0x000001c4: 54 68 72 65: 
             0x000001c8: 61 64 00 5f: 
             0x000001cc: 54 6f 75 63: 
             0x000001d0: 68 52 65 67: 
             0x000001d4: 69 73 74 65: 
             0x000001d8: 72 73 00 5f: 
             0x000001dc: 69 6e 69 74: 
             0x000001e0: 00 6d 61 69: 
             0x000001e4: 6e 00 5f 5f: 
             0x000001e8: 6c 69 62 63: 
             0x000001ec: 5f 64 6f 6e: 
             0x000001f0: 65 00 5f 65: 
             0x000001f4: 78 69 74 5f: 
             0x000001f8: 75 6e 6c 6f: 
             0x000001fc: 63 6b 65 64: 
             0x00000200: 00 5f 73 74: 
             0x00000204: 61 72 74 2e: 
             0x00000208: 6e 73 74 61: 
             0x0000020c: 63 6b 77 6f: 
             0x00000210: 72 64 73 00: 
             0x00000214: 5f 73 74 61: 
             0x00000218: 72 74 2e 6d: 
             0x0000021c: 61 78 74 68: 
             0x00000220: 72 65 61 64: 
             0x00000224: 73 00 5f 73: 
             0x00000228: 74 61 72 74: 
             0x0000022c: 2e 6d 61 78: 
             0x00000230: 74 69 6d 65: 
             0x00000234: 72 73 00 5f: 
             0x00000238: 73 74 61 72: 
             0x0000023c: 74 2e 6d 61: 
             0x00000240: 78 63 68 61: 
             0x00000244: 6e 65 6e 64: 
             0x00000248: 73 00 5f 53: 
             0x0000024c: 65 74 75 70: 
             0x00000250: 54 72 61 70: 
             0x00000254: 73 2e 6e 73: 
             0x00000258: 74 61 63 6b: 
             0x0000025c: 77 6f 72 64: 
             0x00000260: 73 00 5f 47: 
             0x00000264: 65 74 52 61: 
             0x00000268: 6d 45 6e 64: 
             0x0000026c: 2e 6e 73 74: 
             0x00000270: 61 63 6b 77: 
             0x00000274: 6f 72 64 73: 
             0x00000278: 00 5f 49 6e: 
             0x0000027c: 69 74 54 68: 
             0x00000280: 72 65 61 64: 
             0x00000284: 2e 6e 73 74: 
             0x00000288: 61 63 6b 77: 
             0x0000028c: 6f 72 64 73: 
             0x00000290: 00 5f 54 6f: 
             0x00000294: 75 63 68 52: 
             0x00000298: 65 67 69 73: 
             0x0000029c: 74 65 72 73: 
             0x000002a0: 2e 6e 73 74: 
             0x000002a4: 61 63 6b 77: 
             0x000002a8: 6f 72 64 73: 
             0x000002ac: 00 5f 69 6e: 
             0x000002b0: 69 74 2e 6e: 
             0x000002b4: 73 74 61 63: 
             0x000002b8: 6b 77 6f 72: 
             0x000002bc: 64 73 00 5f: 
             0x000002c0: 5f 6c 69 62: 
             0x000002c4: 63 5f 64 6f: 
             0x000002c8: 6e 65 2e 6e: 
             0x000002cc: 73 74 61 63: 
             0x000002d0: 6b 77 6f 72: 
             0x000002d4: 64 73 00 5f: 
             0x000002d8: 65 78 69 74: 
             0x000002dc: 5f 75 6e 6c: 
             0x000002e0: 6f 63 6b 65: 
             0x000002e4: 64 2e 6e 73: 
             0x000002e8: 74 61 63 6b: 
             0x000002ec: 77 6f 72 64: 
             0x000002f0: 73 00 5f 53: 
             0x000002f4: 65 74 75 70: 
             0x000002f8: 54 72 61 70: 
             0x000002fc: 73 2e 6d 61: 
             0x00000300: 78 74 68 72: 
             0x00000304: 65 61 64 73: 
             0x00000308: 00 5f 47 65: 
             0x0000030c: 74 52 61 6d: 
             0x00000310: 45 6e 64 2e: 
             0x00000314: 6d 61 78 74: 
             0x00000318: 68 72 65 61: 
             0x0000031c: 64 73 00 5f: 
             0x00000320: 49 6e 69 74: 
             0x00000324: 54 68 72 65: 
             0x00000328: 61 64 2e 6d: 
             0x0000032c: 61 78 74 68: 
             0x00000330: 72 65 61 64: 
             0x00000334: 73 00 5f 54: 
             0x00000338: 6f 75 63 68: 
             0x0000033c: 52 65 67 69: 
             0x00000340: 73 74 65 72: 
             0x00000344: 73 2e 6d 61: 
             0x00000348: 78 74 68 72: 
             0x0000034c: 65 61 64 73: 
             0x00000350: 00 5f 69 6e: 
             0x00000354: 69 74 2e 6d: 
             0x00000358: 61 78 74 68: 
             0x0000035c: 72 65 61 64: 
             0x00000360: 73 00 6d 61: 
             0x00000364: 69 6e 2e 6d: 
             0x00000368: 61 78 74 68: 
             0x0000036c: 72 65 61 64: 
             0x00000370: 73 00 5f 5f: 
             0x00000374: 6c 69 62 63: 
             0x00000378: 5f 64 6f 6e: 
             0x0000037c: 65 2e 6d 61: 
             0x00000380: 78 74 68 72: 
             0x00000384: 65 61 64 73: 
             0x00000388: 00 5f 65 78: 
             0x0000038c: 69 74 5f 75: 
             0x00000390: 6e 6c 6f 63: 
             0x00000394: 6b 65 64 2e: 
             0x00000398: 6d 61 78 74: 
             0x0000039c: 68 72 65 61: 
             0x000003a0: 64 73 00 5f: 
             0x000003a4: 53 65 74 75: 
             0x000003a8: 70 54 72 61: 
             0x000003ac: 70 73 2e 6d: 
             0x000003b0: 61 78 74 69: 
             0x000003b4: 6d 65 72 73: 
             0x000003b8: 00 5f 47 65: 
             0x000003bc: 74 52 61 6d: 
             0x000003c0: 45 6e 64 2e: 
             0x000003c4: 6d 61 78 74: 
             0x000003c8: 69 6d 65 72: 
             0x000003cc: 73 00 5f 49: 
             0x000003d0: 6e 69 74 54: 
             0x000003d4: 68 72 65 61: 
             0x000003d8: 64 2e 6d 61: 
             0x000003dc: 78 74 69 6d: 
             0x000003e0: 65 72 73 00: 
             0x000003e4: 5f 54 6f 75: 
             0x000003e8: 63 68 52 65: 
             0x000003ec: 67 69 73 74: 
             0x000003f0: 65 72 73 2e: 
             0x000003f4: 6d 61 78 74: 
             0x000003f8: 69 6d 65 72: 
             0x000003fc: 73 00 5f 69: 
             0x00000400: 6e 69 74 2e: 
             0x00000404: 6d 61 78 74: 
             0x00000408: 69 6d 65 72: 
             0x0000040c: 73 00 6d 61: 
             0x00000410: 69 6e 2e 6d: 
             0x00000414: 61 78 74 69: 
             0x00000418: 6d 65 72 73: 
             0x0000041c: 00 5f 5f 6c: 
             0x00000420: 69 62 63 5f: 
             0x00000424: 64 6f 6e 65: 
             0x00000428: 2e 6d 61 78: 
             0x0000042c: 74 69 6d 65: 
             0x00000430: 72 73 00 5f: 
             0x00000434: 65 78 69 74: 
             0x00000438: 5f 75 6e 6c: 
             0x0000043c: 6f 63 6b 65: 
             0x00000440: 64 2e 6d 61: 
             0x00000444: 78 74 69 6d: 
             0x00000448: 65 72 73 00: 
             0x0000044c: 5f 53 65 74: 
             0x00000450: 75 70 54 72: 
             0x00000454: 61 70 73 2e: 
             0x00000458: 6d 61 78 63: 
             0x0000045c: 68 61 6e 65: 
             0x00000460: 6e 64 73 00: 
             0x00000464: 5f 47 65 74: 
             0x00000468: 52 61 6d 45: 
             0x0000046c: 6e 64 2e 6d: 
             0x00000470: 61 78 63 68: 
             0x00000474: 61 6e 65 6e: 
             0x00000478: 64 73 00 5f: 
             0x0000047c: 49 6e 69 74: 
             0x00000480: 54 68 72 65: 
             0x00000484: 61 64 2e 6d: 
             0x00000488: 61 78 63 68: 
             0x0000048c: 61 6e 65 6e: 
             0x00000490: 64 73 00 5f: 
             0x00000494: 54 6f 75 63: 
             0x00000498: 68 52 65 67: 
             0x0000049c: 69 73 74 65: 
             0x000004a0: 72 73 2e 6d: 
             0x000004a4: 61 78 63 68: 
             0x000004a8: 61 6e 65 6e: 
             0x000004ac: 64 73 00 5f: 
             0x000004b0: 69 6e 69 74: 
             0x000004b4: 2e 6d 61 78: 
             0x000004b8: 63 68 61 6e: 
             0x000004bc: 65 6e 64 73: 
             0x000004c0: 00 6d 61 69: 
             0x000004c4: 6e 2e 6d 61: 
             0x000004c8: 78 63 68 61: 
             0x000004cc: 6e 65 6e 64: 
             0x000004d0: 73 00 5f 5f: 
             0x000004d4: 6c 69 62 63: 
             0x000004d8: 5f 64 6f 6e: 
             0x000004dc: 65 2e 6d 61: 
             0x000004e0: 78 63 68 61: 
             0x000004e4: 6e 65 6e 64: 
             0x000004e8: 73 00 5f 65: 
             0x000004ec: 78 69 74 5f: 
             0x000004f0: 75 6e 6c 6f: 
             0x000004f4: 63 6b 65 64: 
             0x000004f8: 2e 6d 61 78: 
             0x000004fc: 63 68 61 6e: 
             0x00000500: 65 6e 64 73: 
             0x00000504: 00 5f 49 6e: 
             0x00000508: 69 74 54 68: 
             0x0000050c: 72 65 61 64: 
             0x00000510: 4c 6f 6f 70: 
             0x00000514: 00 5f 45 78: 
             0x00000518: 69 74 57 69: 
             0x0000051c: 74 68 45 72: 
             0x00000520: 72 6f 72 00: 
             0x00000524: 5f 4a 6f 69: 
             0x00000528: 6e 00 5f 4e: 
             0x0000052c: 6f 6e 5a 65: 
             0x00000530: 72 6f 52 65: 
             0x00000534: 74 75 72 6e: 
             0x00000538: 00 5f 54 72: 
             0x0000053c: 61 70 48 61: 
             0x00000540: 6e 64 6c 65: 
             0x00000544: 72 00 5f 49: 
             0x00000548: 6e 69 74 54: 
             0x0000054c: 68 72 65 61: 
             0x00000550: 64 52 6f 75: 
             0x00000554: 74 69 6e 65: 
             0x00000558: 00 5f 5f 61: 
             0x0000055c: 6c 6c 6f 63: 
             0x00000560: 5f 6c 69 62: 
             0x00000564: 63 5f 68 77: 
             0x00000568: 6c 6f 63 6b: 
             0x0000056c: 00 5f 5f 72: 
             0x00000570: 65 67 69 73: 
             0x00000574: 74 65 72 5f: 
             0x00000578: 66 72 61 6d: 
             0x0000057c: 65 5f 69 6e: 
             0x00000580: 66 6f 5f 62: 
             0x00000584: 61 73 65 73: 
             0x00000588: 00 5f 5f 66: 
             0x0000058c: 72 65 65 5f: 
             0x00000590: 6c 69 62 63: 
             0x00000594: 5f 68 77 6c: 
             0x00000598: 6f 63 6b 00: 
             0x0000059c: 5f 66 69 6e: 
             0x000005a0: 69 00 5f 66: 
             0x000005a4: 69 6e 69 2e: 
             0x000005a8: 6e 73 74 61: 
             0x000005ac: 63 6b 77 6f: 
             0x000005b0: 72 64 73 00: 
             0x000005b4: 5f 66 69 6e: 
             0x000005b8: 69 2e 6d 61: 
             0x000005bc: 78 63 68 61: 
             0x000005c0: 6e 65 6e 64: 
             0x000005c4: 73 00 5f 66: 
             0x000005c8: 69 6e 69 2e: 
             0x000005cc: 6d 61 78 74: 
             0x000005d0: 69 6d 65 72: 
             0x000005d4: 73 00 5f 66: 
             0x000005d8: 69 6e 69 2e: 
             0x000005dc: 6d 61 78 74: 
             0x000005e0: 68 72 65 61: 
             0x000005e4: 64 73 00 5f: 
             0x000005e8: 52 61 6d 53: 
             0x000005ec: 69 7a 65 00: 
             0x000005f0: 5f 4e 75 6c: 
             0x000005f4: 6c 50 74 72: 
             0x000005f8: 00 5f 65 78: 
             0x000005fc: 69 74 00 5f: 
             0x00000600: 44 6f 45 78: 
             0x00000604: 63 65 70 74: 
             0x00000608: 69 6f 6e 00: 
             0x0000060c: 5f 65 62 73: 
             0x00000610: 73 00 6d 65: 
             0x00000614: 6d 73 65 74: 
             0x00000618: 00 63 72 74: 
             0x0000061c: 62 65 67 69: 
             0x00000620: 6e 2e 73 00: 
             0x00000624: 64 74 6f 72: 
             0x00000628: 5f 6c 69 73: 
             0x0000062c: 74 5f 70 74: 
             0x00000630: 72 00 64 74: 
             0x00000634: 6f 72 73 5f: 
             0x00000638: 73 69 7a 65: 
             0x0000063c: 00 5f 44 54: 
             0x00000640: 4f 52 5f 45: 
             0x00000644: 4e 44 5f 00: 
             0x00000648: 64 6f 5f 64: 
             0x0000064c: 74 6f 72 73: 
             0x00000650: 5f 6c 6f 6f: 
             0x00000654: 70 00 64 6f: 
             0x00000658: 5f 64 74 6f: 
             0x0000065c: 72 73 5f 65: 
             0x00000660: 6e 64 00 5f: 
             0x00000664: 5f 45 48 5f: 
             0x00000668: 46 52 41 4d: 
             0x0000066c: 45 5f 42 45: 
             0x00000670: 47 49 4e 5f: 
             0x00000674: 5f 00 73 65: 
             0x00000678: 6c 65 63 74: 
             0x0000067c: 2e 78 63 00: 
             0x00000680: 5f 5f 62 75: 
             0x00000684: 69 6c 74 69: 
             0x00000688: 6e 5f 74 69: 
             0x0000068c: 6d 65 72 5f: 
             0x00000690: 61 66 74 65: 
             0x00000694: 72 00 5f 5f: 
             0x00000698: 62 75 69 6c: 
             0x0000069c: 74 69 6e 5f: 
             0x000006a0: 74 69 6d 65: 
             0x000006a4: 72 5f 61 66: 
             0x000006a8: 74 65 72 2e: 
             0x000006ac: 6c 6f 63 6e: 
             0x000006b0: 6f 73 69 64: 
             0x000006b4: 65 00 5f 5f: 
             0x000006b8: 62 75 69 6c: 
             0x000006bc: 74 69 6e 5f: 
             0x000006c0: 74 69 6d 65: 
             0x000006c4: 72 5f 61 66: 
             0x000006c8: 74 65 72 2e: 
             0x000006cc: 6c 6f 63 6e: 
             0x000006d0: 6f 63 68 61: 
             0x000006d4: 6e 64 65 63: 
             0x000006d8: 00 6d 61 69: 
             0x000006dc: 6e 2e 70 61: 
             0x000006e0: 72 69 6e 66: 
             0x000006e4: 6f 2e 64 65: 
             0x000006e8: 62 75 67 73: 
             0x000006ec: 74 72 69 6e: 
             0x000006f0: 67 30 00 6d: 
             0x000006f4: 61 69 6e 2e: 
             0x000006f8: 70 61 72 69: 
             0x000006fc: 6e 66 6f 2e: 
             0x00000700: 64 65 62 75: 
             0x00000704: 67 73 74 72: 
             0x00000708: 69 6e 67 31: 
             0x0000070c: 00 5f 5f 6d: 
             0x00000710: 61 69 6e 5f: 
             0x00000714: 64 65 66 61: 
             0x00000718: 75 6c 74 5f: 
             0x0000071c: 6e 65 74 77: 
             0x00000720: 6f 72 6b 00: 
             0x00000724: 73 74 64 63: 
             0x00000728: 6f 72 65 00: 
             0x0000072c: 74 68 72 65: 
             0x00000730: 61 64 2e 61: 
             0x00000734: 6e 6f 6e 2e: 
             0x00000738: 30 00 74 68: 
             0x0000073c: 72 65 61 64: 
             0x00000740: 2e 61 6e 6f: 
             0x00000744: 6e 2e 31 00: 
             0x00000748: 74 68 72 65: 
             0x0000074c: 61 64 2e 61: 
             0x00000750: 6e 6f 6e 2e: 
             0x00000754: 32 00 74 68: 
             0x00000758: 72 65 61 64: 
             0x0000075c: 2e 61 6e 6f: 
             0x00000760: 6e 2e 33 00: 
             0x00000764: 74 68 72 65: 
             0x00000768: 61 64 2e 61: 
             0x0000076c: 6e 6f 6e 2e: 
             0x00000770: 34 00 5f 5f: 
             0x00000774: 6d 63 6d 61: 
             0x00000778: 69 6e 30 30: 
             0x0000077c: 30 30 30 33: 
             0x00000780: 00 5f 5f 6d: 
             0x00000784: 63 6d 61 69: 
             0x00000788: 6e 30 30 30: 
             0x0000078c: 30 30 33 2e: 
             0x00000790: 6e 73 74 61: 
             0x00000794: 63 6b 77 6f: 
             0x00000798: 72 64 73 00: 
             0x0000079c: 5f 5f 6d 63: 
             0x000007a0: 6d 61 69 6e: 
             0x000007a4: 30 30 30 30: 
             0x000007a8: 30 33 2e 6d: 
             0x000007ac: 61 78 74 68: 
             0x000007b0: 72 65 61 64: 
             0x000007b4: 73 00 5f 5f: 
             0x000007b8: 6d 63 6d 61: 
             0x000007bc: 69 6e 30 30: 
             0x000007c0: 30 30 30 33: 
             0x000007c4: 2e 6d 61 78: 
             0x000007c8: 74 69 6d 65: 
             0x000007cc: 72 73 00 5f: 
             0x000007d0: 5f 6d 63 6d: 
             0x000007d4: 61 69 6e 30: 
             0x000007d8: 30 30 30 30: 
             0x000007dc: 33 2e 6d 61: 
             0x000007e0: 78 63 68 61: 
             0x000007e4: 6e 65 6e 64: 
             0x000007e8: 73 00 5f 5f: 
             0x000007ec: 6d 63 6d 61: 
             0x000007f0: 69 6e 30 30: 
             0x000007f4: 30 30 30 33: 
             0x000007f8: 2e 6c 6f 63: 
             0x000007fc: 6e 6f 73 69: 
             0x00000800: 64 65 00 5f: 
             0x00000804: 5f 6d 63 6d: 
             0x00000808: 61 69 6e 30: 
             0x0000080c: 30 30 30 30: 
             0x00000810: 33 2e 6c 6f: 
             0x00000814: 63 6e 6f 63: 
             0x00000818: 68 61 6e 64: 
             0x0000081c: 65 63 00 63: 
             0x00000820: 63 4b 30 78: 
             0x00000824: 63 79 75 2e: 
             0x00000828: 73 00 67 65: 
             0x0000082c: 74 41 6c 6c: 
             0x00000830: 43 68 61 6e: 
             0x00000834: 6e 65 6c 73: 
             0x00000838: 00 66 72 65: 
             0x0000083c: 65 41 6c 6c: 
             0x00000840: 43 68 61 6e: 
             0x00000844: 6e 65 6c 73: 
             0x00000848: 00 73 6b 69: 
             0x0000084c: 70 46 72 65: 
             0x00000850: 65 00 72 65: 
             0x00000854: 63 65 69 76: 
             0x00000858: 65 45 6e 64: 
             0x0000085c: 00 77 61 69: 
             0x00000860: 74 46 6f 72: 
             0x00000864: 5a 65 72 6f: 
             0x00000868: 00 6e 6f 43: 
             0x0000086c: 68 61 6e 73: 
             0x00000870: 00 72 65 74: 
             0x00000874: 75 72 6e 54: 
             0x00000878: 6f 43 52 54: 
             0x0000087c: 00 62 75 69: 
             0x00000880: 6c 64 52 65: 
             0x00000884: 67 41 72 67: 
             0x00000888: 00 68 61 73: 
             0x0000088c: 45 6e 64 52: 
             0x00000890: 65 67 00 77: 
             0x00000894: 61 69 74 46: 
             0x00000898: 6f 72 53 63: 
             0x0000089c: 72 61 74 63: 
             0x000008a0: 68 00 77 61: 
             0x000008a4: 69 74 46 6f: 
             0x000008a8: 72 53 63 72: 
             0x000008ac: 61 74 63 68: 
             0x000008b0: 54 6f 70 00: 
             0x000008b4: 77 72 69 74: 
             0x000008b8: 65 54 6f 53: 
             0x000008bc: 63 72 61 74: 
             0x000008c0: 63 68 00 65: 
             0x000008c4: 6e 64 4f 66: 
             0x000008c8: 53 74 61 72: 
             0x000008cc: 74 75 70 00: 
             0x000008d0: 63 68 61 6e: 
             0x000008d4: 45 6e 64 53: 
             0x000008d8: 74 6f 72 65: 
             0x000008dc: 00 74 68 69: 
             0x000008e0: 73 43 68 61: 
             0x000008e4: 6e 65 6e 64: 
             0x000008e8: 5a 65 72 6f: 
             0x000008ec: 00 6e 65 78: 
             0x000008f0: 74 43 68 61: 
             0x000008f4: 6e 65 6e 64: 
             0x000008f8: 5a 65 72 6f: 
             0x000008fc: 00 65 78 63: 
             0x00000900: 65 70 74 69: 
             0x00000904: 6f 6e 2e 53: 
             0x00000908: 00 5f 44 6f: 
             0x0000090c: 45 78 63 65: 
             0x00000910: 70 74 69 6f: 
             0x00000914: 6e 2e 6c 6f: 
             0x00000918: 63 6e 6f 63: 
             0x0000091c: 68 61 6e 64: 
             0x00000920: 65 63 00 5f: 
             0x00000924: 44 6f 45 78: 
             0x00000928: 63 65 70 74: 
             0x0000092c: 69 6f 6e 2e: 
             0x00000930: 6e 73 74 61: 
             0x00000934: 63 6b 77 6f: 
             0x00000938: 72 64 73 00: 
             0x0000093c: 5f 44 6f 45: 
             0x00000940: 78 63 65 70: 
             0x00000944: 74 69 6f 6e: 
             0x00000948: 2e 6d 61 78: 
             0x0000094c: 63 68 61 6e: 
             0x00000950: 65 6e 64 73: 
             0x00000954: 00 5f 44 6f: 
             0x00000958: 45 78 63 65: 
             0x0000095c: 70 74 69 6f: 
             0x00000960: 6e 2e 6d 61: 
             0x00000964: 78 74 69 6d: 
             0x00000968: 65 72 73 00: 
             0x0000096c: 5f 44 6f 45: 
             0x00000970: 78 63 65 70: 
             0x00000974: 74 69 6f 6e: 
             0x00000978: 2e 6d 61 78: 
             0x0000097c: 74 68 72 65: 
             0x00000980: 61 64 73 00: 
             0x00000984: 2e 2e 2f 2e: 
             0x00000988: 2e 2f 2e 2e: 
             0x0000098c: 2f 2e 2e 2f: 
             0x00000990: 2e 2e 2f 2e: 
             0x00000994: 2e 2f 73 72: 
             0x00000998: 63 2f 6e 65: 
             0x0000099c: 77 6c 69 62: 
             0x000009a0: 2f 6c 69 62: 
             0x000009a4: 63 2f 6d 61: 
             0x000009a8: 63 68 69 6e: 
             0x000009ac: 65 2f 78 63: 
             0x000009b0: 6f 72 65 2f: 
             0x000009b4: 64 6f 6e 65: 
             0x000009b8: 2e 63 00 5f: 
             0x000009bc: 5f 63 61 6c: 
             0x000009c0: 6c 5f 65 78: 
             0x000009c4: 69 74 70 72: 
             0x000009c8: 6f 63 73 00: 
             0x000009cc: 5f 63 6c 65: 
             0x000009d0: 61 6e 75 70: 
             0x000009d4: 00 5f 64 6f: 
             0x000009d8: 6e 65 00 5f: 
             0x000009dc: 5f 63 61 6c: 
             0x000009e0: 6c 5f 65 78: 
             0x000009e4: 69 74 70 72: 
             0x000009e8: 6f 63 73 2e: 
             0x000009ec: 6e 73 74 61: 
             0x000009f0: 63 6b 77 6f: 
             0x000009f4: 72 64 73 00: 
             0x000009f8: 5f 63 6c 65: 
             0x000009fc: 61 6e 75 70: 
             0x00000a00: 2e 6e 73 74: 
             0x00000a04: 61 63 6b 77: 
             0x00000a08: 6f 72 64 73: 
             0x00000a0c: 00 5f 64 6f: 
             0x00000a10: 6e 65 2e 6e: 
             0x00000a14: 73 74 61 63: 
             0x00000a18: 6b 77 6f 72: 
             0x00000a1c: 64 73 00 5f: 
             0x00000a20: 5f 63 61 6c: 
             0x00000a24: 6c 5f 65 78: 
             0x00000a28: 69 74 70 72: 
             0x00000a2c: 6f 63 73 2e: 
             0x00000a30: 6d 61 78 74: 
             0x00000a34: 68 72 65 61: 
             0x00000a38: 64 73 00 5f: 
             0x00000a3c: 63 6c 65 61: 
             0x00000a40: 6e 75 70 2e: 
             0x00000a44: 6d 61 78 74: 
             0x00000a48: 68 72 65 61: 
             0x00000a4c: 64 73 00 5f: 
             0x00000a50: 64 6f 6e 65: 
             0x00000a54: 2e 6d 61 78: 
             0x00000a58: 74 68 72 65: 
             0x00000a5c: 61 64 73 00: 
             0x00000a60: 5f 5f 63 61: 
             0x00000a64: 6c 6c 5f 65: 
             0x00000a68: 78 69 74 70: 
             0x00000a6c: 72 6f 63 73: 
             0x00000a70: 2e 6d 61 78: 
             0x00000a74: 74 69 6d 65: 
             0x00000a78: 72 73 00 5f: 
             0x00000a7c: 63 6c 65 61: 
             0x00000a80: 6e 75 70 2e: 
             0x00000a84: 6d 61 78 74: 
             0x00000a88: 69 6d 65 72: 
             0x00000a8c: 73 00 5f 64: 
             0x00000a90: 6f 6e 65 2e: 
             0x00000a94: 6d 61 78 74: 
             0x00000a98: 69 6d 65 72: 
             0x00000a9c: 73 00 5f 5f: 
             0x00000aa0: 63 61 6c 6c: 
             0x00000aa4: 5f 65 78 69: 
             0x00000aa8: 74 70 72 6f: 
             0x00000aac: 63 73 2e 6d: 
             0x00000ab0: 61 78 63 68: 
             0x00000ab4: 61 6e 65 6e: 
             0x00000ab8: 64 73 00 5f: 
             0x00000abc: 63 6c 65 61: 
             0x00000ac0: 6e 75 70 2e: 
             0x00000ac4: 6d 61 78 63: 
             0x00000ac8: 68 61 6e 65: 
             0x00000acc: 6e 64 73 00: 
             0x00000ad0: 5f 64 6f 6e: 
             0x00000ad4: 65 2e 6d 61: 
             0x00000ad8: 78 63 68 61: 
             0x00000adc: 6e 65 6e 64: 
             0x00000ae0: 73 00 5f 5f: 
             0x00000ae4: 6c 69 62 63: 
             0x00000ae8: 5f 64 6f 6e: 
             0x00000aec: 65 2e 6c 6f: 
             0x00000af0: 63 6e 6f 63: 
             0x00000af4: 68 61 6e 64: 
             0x00000af8: 65 63 00 5f: 
             0x00000afc: 5f 6c 69 62: 
             0x00000b00: 63 5f 64 6f: 
             0x00000b04: 6e 65 2e 6c: 
             0x00000b08: 6f 63 6e 6f: 
             0x00000b0c: 73 69 64 65: 
             0x00000b10: 00 65 78 69: 
             0x00000b14: 74 2e 53 00: 
             0x00000b18: 5f 65 78 69: 
             0x00000b1c: 74 2e 6c 6f: 
             0x00000b20: 63 6e 6f 63: 
             0x00000b24: 68 61 6e 64: 
             0x00000b28: 65 63 00 5f: 
             0x00000b2c: 65 78 69 74: 
             0x00000b30: 2e 6e 73 74: 
             0x00000b34: 61 63 6b 77: 
             0x00000b38: 6f 72 64 73: 
             0x00000b3c: 00 5f 65 78: 
             0x00000b40: 69 74 2e 6d: 
             0x00000b44: 61 78 63 68: 
             0x00000b48: 61 6e 65 6e: 
             0x00000b4c: 64 73 00 5f: 
             0x00000b50: 65 78 69 74: 
             0x00000b54: 2e 6d 61 78: 
             0x00000b58: 74 69 6d 65: 
             0x00000b5c: 72 73 00 5f: 
             0x00000b60: 65 78 69 74: 
             0x00000b64: 2e 6d 61 78: 
             0x00000b68: 74 68 72 65: 
             0x00000b6c: 61 64 73 00: 
             0x00000b70: 5f 44 6f 53: 
             0x00000b74: 79 73 63 61: 
             0x00000b78: 6c 6c 2e 6e: 
             0x00000b7c: 73 74 61 63: 
             0x00000b80: 6b 77 6f 72: 
             0x00000b84: 64 73 00 5f: 
             0x00000b88: 44 6f 53 79: 
             0x00000b8c: 73 63 61 6c: 
             0x00000b90: 6c 2e 6d 61: 
             0x00000b94: 78 63 68 61: 
             0x00000b98: 6e 65 6e 64: 
             0x00000b9c: 73 00 5f 44: 
             0x00000ba0: 6f 53 79 73: 
             0x00000ba4: 63 61 6c 6c: 
             0x00000ba8: 2e 6d 61 78: 
             0x00000bac: 74 69 6d 65: 
             0x00000bb0: 72 73 00 5f: 
             0x00000bb4: 44 6f 53 79: 
             0x00000bb8: 73 63 61 6c: 
             0x00000bbc: 6c 2e 6d 61: 
             0x00000bc0: 78 74 68 72: 
             0x00000bc4: 65 61 64 73: 
             0x00000bc8: 00 5f 44 6f: 
             0x00000bcc: 53 79 73 63: 
             0x00000bd0: 61 6c 6c 00: 
             0x00000bd4: 2e 2e 2f 2e: 
             0x00000bd8: 2e 2f 2e 2e: 
             0x00000bdc: 2f 2e 2e 2f: 
             0x00000be0: 2e 2e 2f 2e: 
             0x00000be4: 2e 2f 73 72: 
             0x00000be8: 63 2f 6e 65: 
             0x00000bec: 77 6c 69 62: 
             0x00000bf0: 2f 6c 69 62: 
             0x00000bf4: 63 2f 6d 61: 
             0x00000bf8: 63 68 69 6e: 
             0x00000bfc: 65 2f 78 63: 
             0x00000c00: 6f 72 65 2f: 
             0x00000c04: 65 78 69 74: 
             0x00000c08: 2e 63 00 5f: 
             0x00000c0c: 65 78 69 74: 
             0x00000c10: 5f 75 6e 6c: 
             0x00000c14: 6f 63 6b 65: 
             0x00000c18: 64 2e 6c 6f: 
             0x00000c1c: 63 6e 6f 63: 
             0x00000c20: 68 61 6e 64: 
             0x00000c24: 65 63 00 5f: 
             0x00000c28: 65 78 69 74: 
             0x00000c2c: 5f 75 6e 6c: 
             0x00000c30: 6f 63 6b 65: 
             0x00000c34: 64 2e 6c 6f: 
             0x00000c38: 63 6e 6f 73: 
             0x00000c3c: 69 64 65 00: 
             0x00000c40: 2e 2e 2f 2e: 
             0x00000c44: 2e 2f 2e 2e: 
             0x00000c48: 2f 2e 2e 2f: 
             0x00000c4c: 2e 2e 2f 2e: 
             0x00000c50: 2e 2f 73 72: 
             0x00000c54: 63 2f 6e 65: 
             0x00000c58: 77 6c 69 62: 
             0x00000c5c: 2f 6c 69 62: 
             0x00000c60: 63 2f 6d 61: 
             0x00000c64: 63 68 69 6e: 
             0x00000c68: 65 2f 78 63: 
             0x00000c6c: 6f 72 65 2f: 
             0x00000c70: 6d 65 6d 73: 
             0x00000c74: 65 74 2e 63: 
             0x00000c78: 00 6d 65 6d: 
             0x00000c7c: 73 65 74 2e: 
             0x00000c80: 6e 73 74 61: 
             0x00000c84: 63 6b 77 6f: 
             0x00000c88: 72 64 73 00: 
             0x00000c8c: 6d 65 6d 73: 
             0x00000c90: 65 74 2e 6d: 
             0x00000c94: 61 78 74 68: 
             0x00000c98: 72 65 61 64: 
             0x00000c9c: 73 00 6d 65: 
             0x00000ca0: 6d 73 65 74: 
             0x00000ca4: 2e 6d 61 78: 
             0x00000ca8: 74 69 6d 65: 
             0x00000cac: 72 73 00 6d: 
             0x00000cb0: 65 6d 73 65: 
             0x00000cb4: 74 2e 6d 61: 
             0x00000cb8: 78 63 68 61: 
             0x00000cbc: 6e 65 6e 64: 
             0x00000cc0: 73 00 6d 65: 
             0x00000cc4: 6d 73 65 74: 
             0x00000cc8: 2e 6c 6f 63: 
             0x00000ccc: 6e 6f 63 68: 
             0x00000cd0: 61 6e 64 65: 
             0x00000cd4: 63 00 6d 65: 
             0x00000cd8: 6d 73 65 74: 
             0x00000cdc: 2e 6c 6f 63: 
             0x00000ce0: 6e 6f 73 69: 
             0x00000ce4: 64 65 00 2e: 
             0x00000ce8: 2e 2f 2e 2e: 
             0x00000cec: 2f 2e 2e 2f: 
             0x00000cf0: 2e 2e 2f 2e: 
             0x00000cf4: 2e 2f 73 72: 
             0x00000cf8: 63 2f 6e 65: 
             0x00000cfc: 77 6c 69 62: 
             0x00000d00: 2f 6c 69 62: 
             0x00000d04: 63 2f 73 74: 
             0x00000d08: 64 6c 69 62: 
             0x00000d0c: 2f 72 61 6e: 
             0x00000d10: 64 2e 63 00: 
             0x00000d14: 73 79 73 63: 
             0x00000d18: 61 6c 6c 2e: 
             0x00000d1c: 53 00 2e 2e: 
             0x00000d20: 2f 2e 2e 2f: 
             0x00000d24: 2e 2e 2f 2e: 
             0x00000d28: 2e 2f 2e 2e: 
             0x00000d2c: 2f 2e 2e 2f: 
             0x00000d30: 73 72 63 2f: 
             0x00000d34: 6e 65 77 6c: 
             0x00000d38: 69 62 2f 6c: 
             0x00000d3c: 69 62 63 2f: 
             0x00000d40: 6d 61 63 68: 
             0x00000d44: 69 6e 65 2f: 
             0x00000d48: 78 63 6f 72: 
             0x00000d4c: 65 2f 5f 5f: 
             0x00000d50: 63 61 6c 6c: 
             0x00000d54: 5f 61 74 65: 
             0x00000d58: 78 69 74 2e: 
             0x00000d5c: 63 00 5f 5f: 
             0x00000d60: 63 61 6c 6c: 
             0x00000d64: 5f 65 78 69: 
             0x00000d68: 74 70 72 6f: 
             0x00000d6c: 63 73 5f 69: 
             0x00000d70: 6d 70 6c 00: 
             0x00000d74: 5f 5f 63 61: 
             0x00000d78: 6c 6c 5f 65: 
             0x00000d7c: 78 69 74 70: 
             0x00000d80: 72 6f 63 73: 
             0x00000d84: 5f 69 6d 70: 
             0x00000d88: 6c 2e 6e 73: 
             0x00000d8c: 74 61 63 6b: 
             0x00000d90: 77 6f 72 64: 
             0x00000d94: 73 00 5f 5f: 
             0x00000d98: 63 61 6c 6c: 
             0x00000d9c: 5f 65 78 69: 
             0x00000da0: 74 70 72 6f: 
             0x00000da4: 63 73 5f 69: 
             0x00000da8: 6d 70 6c 2e: 
             0x00000dac: 6d 61 78 74: 
             0x00000db0: 68 72 65 61: 
             0x00000db4: 64 73 00 5f: 
             0x00000db8: 5f 63 61 6c: 
             0x00000dbc: 6c 5f 65 78: 
             0x00000dc0: 69 74 70 72: 
             0x00000dc4: 6f 63 73 5f: 
             0x00000dc8: 69 6d 70 6c: 
             0x00000dcc: 2e 6d 61 78: 
             0x00000dd0: 74 69 6d 65: 
             0x00000dd4: 72 73 00 5f: 
             0x00000dd8: 5f 63 61 6c: 
             0x00000ddc: 6c 5f 65 78: 
             0x00000de0: 69 74 70 72: 
             0x00000de4: 6f 63 73 5f: 
             0x00000de8: 69 6d 70 6c: 
             0x00000dec: 2e 6d 61 78: 
             0x00000df0: 63 68 61 6e: 
             0x00000df4: 65 6e 64 73: 
             0x00000df8: 00 5f 5f 63: 
             0x00000dfc: 61 6c 6c 5f: 
             0x00000e00: 65 78 69 74: 
             0x00000e04: 70 72 6f 63: 
             0x00000e08: 73 5f 69 6d: 
             0x00000e0c: 70 6c 2e 6c: 
             0x00000e10: 6f 63 6e 6f: 
             0x00000e14: 63 68 61 6e: 
             0x00000e18: 64 65 63 00: 
             0x00000e1c: 5f 5f 63 61: 
             0x00000e20: 6c 6c 5f 65: 
             0x00000e24: 78 69 74 70: 
             0x00000e28: 72 6f 63 73: 
             0x00000e2c: 5f 69 6d 70: 
             0x00000e30: 6c 2e 6c 6f: 
             0x00000e34: 63 6e 6f 73: 
             0x00000e38: 69 64 65 00: 
             0x00000e3c: 5f 5f 63 61: 
             0x00000e40: 6c 6c 5f 65: 
             0x00000e44: 78 69 74 70: 
             0x00000e48: 72 6f 63 73: 
             0x00000e4c: 2e 6c 6f 63: 
             0x00000e50: 6e 6f 63 68: 
             0x00000e54: 61 6e 64 65: 
             0x00000e58: 63 00 5f 5f: 
             0x00000e5c: 63 61 6c 6c: 
             0x00000e60: 5f 65 78 69: 
             0x00000e64: 74 70 72 6f: 
             0x00000e68: 63 73 2e 6c: 
             0x00000e6c: 6f 63 6e 6f: 
             0x00000e70: 73 69 64 65: 
             0x00000e74: 00 2e 2e 2f: 
             0x00000e78: 2e 2e 2f 2e: 
             0x00000e7c: 2e 2f 2e 2e: 
             0x00000e80: 2f 2e 2e 2f: 
             0x00000e84: 2e 2e 2f 73: 
             0x00000e88: 72 63 2f 6e: 
             0x00000e8c: 65 77 6c 69: 
             0x00000e90: 62 2f 6c 69: 
             0x00000e94: 62 63 2f 73: 
             0x00000e98: 79 73 2f 78: 
             0x00000e9c: 63 6f 72 65: 
             0x00000ea0: 2f 6c 6f 63: 
             0x00000ea4: 6b 2e 63 00: 
             0x00000ea8: 5f 5f 61 6c: 
             0x00000eac: 6c 6f 63 5f: 
             0x00000eb0: 6c 69 62 63: 
             0x00000eb4: 5f 68 77 6c: 
             0x00000eb8: 6f 63 6b 2e: 
             0x00000ebc: 6e 73 74 61: 
             0x00000ec0: 63 6b 77 6f: 
             0x00000ec4: 72 64 73 00: 
             0x00000ec8: 5f 5f 61 6c: 
             0x00000ecc: 6c 6f 63 5f: 
             0x00000ed0: 6c 69 62 63: 
             0x00000ed4: 5f 68 77 6c: 
             0x00000ed8: 6f 63 6b 2e: 
             0x00000edc: 6d 61 78 74: 
             0x00000ee0: 68 72 65 61: 
             0x00000ee4: 64 73 00 5f: 
             0x00000ee8: 5f 61 6c 6c: 
             0x00000eec: 6f 63 5f 6c: 
             0x00000ef0: 69 62 63 5f: 
             0x00000ef4: 68 77 6c 6f: 
             0x00000ef8: 63 6b 2e 6d: 
             0x00000efc: 61 78 74 69: 
             0x00000f00: 6d 65 72 73: 
             0x00000f04: 00 5f 5f 61: 
             0x00000f08: 6c 6c 6f 63: 
             0x00000f0c: 5f 6c 69 62: 
             0x00000f10: 63 5f 68 77: 
             0x00000f14: 6c 6f 63 6b: 
             0x00000f18: 2e 6d 61 78: 
             0x00000f1c: 63 68 61 6e: 
             0x00000f20: 65 6e 64 73: 
             0x00000f24: 00 5f 5f 61: 
             0x00000f28: 6c 6c 6f 63: 
             0x00000f2c: 5f 6c 69 62: 
             0x00000f30: 63 5f 68 77: 
             0x00000f34: 6c 6f 63 6b: 
             0x00000f38: 2e 6c 6f 63: 
             0x00000f3c: 6e 6f 63 68: 
             0x00000f40: 61 6e 64 65: 
             0x00000f44: 63 00 5f 5f: 
             0x00000f48: 61 6c 6c 6f: 
             0x00000f4c: 63 5f 6c 69: 
             0x00000f50: 62 63 5f 68: 
             0x00000f54: 77 6c 6f 63: 
             0x00000f58: 6b 2e 6c 6f: 
             0x00000f5c: 63 6e 6f 73: 
             0x00000f60: 69 64 65 00: 
             0x00000f64: 5f 5f 6c 69: 
             0x00000f68: 62 63 5f 68: 
             0x00000f6c: 77 6c 6f 63: 
             0x00000f70: 6b 00 2e 2e: 
             0x00000f74: 2f 2e 2e 2f: 
             0x00000f78: 2e 2e 2f 2e: 
             0x00000f7c: 2e 2f 2e 2e: 
             0x00000f80: 2f 2e 2e 2f: 
             0x00000f84: 73 72 63 2f: 
             0x00000f88: 6e 65 77 6c: 
             0x00000f8c: 69 62 2f 6c: 
             0x00000f90: 69 62 63 2f: 
             0x00000f94: 6d 61 63 68: 
             0x00000f98: 69 6e 65 2f: 
             0x00000f9c: 78 63 6f 72: 
             0x00000fa0: 65 2f 63 6c: 
             0x00000fa4: 65 61 6e 75: 
             0x00000fa8: 70 2e 63 00: 
             0x00000fac: 5f 63 6c 65: 
             0x00000fb0: 61 6e 75 70: 
             0x00000fb4: 5f 69 6d 70: 
             0x00000fb8: 6c 00 5f 63: 
             0x00000fbc: 6c 65 61 6e: 
             0x00000fc0: 75 70 5f 69: 
             0x00000fc4: 6d 70 6c 2e: 
             0x00000fc8: 6e 73 74 61: 
             0x00000fcc: 63 6b 77 6f: 
             0x00000fd0: 72 64 73 00: 
             0x00000fd4: 5f 63 6c 65: 
             0x00000fd8: 61 6e 75 70: 
             0x00000fdc: 5f 69 6d 70: 
             0x00000fe0: 6c 2e 6d 61: 
             0x00000fe4: 78 74 68 72: 
             0x00000fe8: 65 61 64 73: 
             0x00000fec: 00 5f 63 6c: 
             0x00000ff0: 65 61 6e 75: 
             0x00000ff4: 70 5f 69 6d: 
             0x00000ff8: 70 6c 2e 6d: 
             0x00000ffc: 61 78 74 69: 
             0x00001000: 6d 65 72 73: 
             0x00001004: 00 5f 63 6c: 
             0x00001008: 65 61 6e 75: 
             0x0000100c: 70 5f 69 6d: 
             0x00001010: 70 6c 2e 6d: 
             0x00001014: 61 78 63 68: 
             0x00001018: 61 6e 65 6e: 
             0x0000101c: 64 73 00 5f: 
             0x00001020: 63 6c 65 61: 
             0x00001024: 6e 75 70 5f: 
             0x00001028: 69 6d 70 6c: 
             0x0000102c: 2e 6c 6f 63: 
             0x00001030: 6e 6f 63 68: 
             0x00001034: 61 6e 64 65: 
             0x00001038: 63 00 5f 63: 
             0x0000103c: 6c 65 61 6e: 
             0x00001040: 75 70 5f 69: 
             0x00001044: 6d 70 6c 2e: 
             0x00001048: 6c 6f 63 6e: 
             0x0000104c: 6f 73 69 64: 
             0x00001050: 65 00 5f 63: 
             0x00001054: 6c 65 61 6e: 
             0x00001058: 75 70 2e 6c: 
             0x0000105c: 6f 63 6e 6f: 
             0x00001060: 63 68 61 6e: 
             0x00001064: 64 65 63 00: 
             0x00001068: 5f 63 6c 65: 
             0x0000106c: 61 6e 75 70: 
             0x00001070: 2e 6c 6f 63: 
             0x00001074: 6e 6f 73 69: 
             0x00001078: 64 65 00 64: 
             0x0000107c: 6f 6e 65 2e: 
             0x00001080: 53 00 5f 64: 
             0x00001084: 6f 6e 65 2e: 
             0x00001088: 6c 6f 63 6e: 
             0x0000108c: 6f 63 68 61: 
             0x00001090: 6e 64 65 63: 
             0x00001094: 00 63 72 74: 
             0x00001098: 65 6e 64 2e: 
             0x0000109c: 73 00 63 74: 
             0x000010a0: 6f 72 5f 6c: 
             0x000010a4: 69 73 74 5f: 
             0x000010a8: 70 74 72 00: 
             0x000010ac: 63 74 6f 72: 
             0x000010b0: 73 5f 73 69: 
             0x000010b4: 7a 65 00 5f: 
             0x000010b8: 43 54 4f 52: 
             0x000010bc: 5f 45 4e 44: 
             0x000010c0: 5f 00 64 6f: 
             0x000010c4: 5f 63 74 6f: 
             0x000010c8: 72 73 5f 6c: 
             0x000010cc: 6f 6f 70 00: 
             0x000010d0: 64 6f 5f 63: 
             0x000010d4: 74 6f 72 73: 
             0x000010d8: 5f 65 6e 64: 
             0x000010dc: 00 5f 5f 65: 
             0x000010e0: 68 5f 6f 62: 
             0x000010e4: 6a 65 63 74: 
             0x000010e8: 00 5f 5f 45: 
             0x000010ec: 48 5f 46 52: 
             0x000010f0: 41 4d 45 5f: 
             0x000010f4: 45 4e 44 5f: 
             0x000010f8: 5f 00 63 72: 
             0x000010fc: 74 6e 2e 73: 
             0x00001100: 00 2e 72 61: 
             0x00001104: 6d 5f 62 61: 
             0x00001108: 73 65 00 2e: 
             0x0000110c: 43 50 4d 30: 
             0x00001110: 00 2e 43 50: 
             0x00001114: 4d 31 00 2e: 
             0x00001118: 43 50 4d 32: 
             0x0000111c: 00 2e 43 50: 
             0x00001120: 4d 33 00 2e: 
             0x00001124: 43 50 4d 34: 
             0x00001128: 00 2e 78 6d: 
             0x0000112c: 6f 73 6e 6f: 
             0x00001130: 74 65 00 66: 
             0x00001134: 7b 30 7d 28: 
             0x00001138: 30 29 00 66: 
             0x0000113c: 7b 73 69 7d: 
             0x00001140: 28 30 29 00: 
             0x00001144: 66 7b 30 7d: 
             0x00001148: 28 73 69 29: 
             0x0000114c: 00 66 7b 70: 
             0x00001150: 28 30 29 7d: 
             0x00001154: 28 70 28 30: 
             0x00001158: 29 2c 73 69: 
             0x0000115c: 2c 75 69 29: 
             0x00001160: 00 61 28 34: 
             0x00001164: 3a 63 72 29: 
             0x00001168: 00 66 7b 30: 
             0x0000116c: 7d 28 73 69: 
             0x00001170: 2c 70 28 30: 
             0x00001174: 29 29 00 75: 
             0x00001178: 69 00 2e 65: 
             0x0000117c: 78 70 72 00: 
             0x00001180: 2e 73 79 6d: 
             0x00001184: 74 61 62 00: 
             0x00001188: 2e 73 74 72: 
             0x0000118c: 74 61 62 00: 


